###############################################################################
#                                                                             #
# IAR C/C++ Compiler V1.30.1.50036 for STM8             24/Jul/2013  22:48:01 #
# Copyright 2010-2011 IAR Systems AB.                                         #
#                                                                             #
#    Source file  =  C:\Documents and Settings\Administrator\Desktop\stm8s105 #
#                    k-controller\Project\STM8S_StdPeriph_Template\main.c     #
#    Command line =  "C:\Documents and Settings\Administrator\Desktop\stm8s10 #
#                    5k-controller\Project\STM8S_StdPeriph_Template\main.c"   #
#                    -e -Ohz --debug --code_model medium --data_model medium  #
#                    -o "C:\Documents and Settings\Administrator\Desktop\stm8 #
#                    s105k-controller\Project\STM8S_StdPeriph_Template\EWSTM8 #
#                    \STM8S105\Obj\" --dlib_config "C:\Program Files\IAR      #
#                    Systems\Embedded Workbench 6.0\stm8\LIB\dlstm8mmf.h" -D  #
#                    STM8S105 -lC "C:\Documents and                           #
#                    Settings\Administrator\Desktop\stm8s105k-controller\Proj #
#                    ect\STM8S_StdPeriph_Template\EWSTM8\STM8S105\List\" -lA  #
#                    "C:\Documents and Settings\Administrator\Desktop\stm8s10 #
#                    5k-controller\Project\STM8S_StdPeriph_Template\EWSTM8\ST #
#                    M8S105\List\" -I "C:\Documents and                       #
#                    Settings\Administrator\Desktop\stm8s105k-controller\Proj #
#                    ect\STM8S_StdPeriph_Template\EWSTM8\..\" -I              #
#                    "C:\Documents and Settings\Administrator\Desktop\stm8s10 #
#                    5k-controller\Project\STM8S_StdPeriph_Template\EWSTM8\.. #
#                    \..\..\Libraries\STM8S_StdPeriph_Driver\inc\" --vregs 16 #
#    List file    =  C:\Documents and Settings\Administrator\Desktop\stm8s105 #
#                    k-controller\Project\STM8S_StdPeriph_Template\EWSTM8\STM #
#                    8S105\List\main.lst                                      #
#    Object file  =  C:\Documents and Settings\Administrator\Desktop\stm8s105 #
#                    k-controller\Project\STM8S_StdPeriph_Template\EWSTM8\STM #
#                    8S105\Obj\main.o                                         #
#                                                                             #
#                                                                             #
###############################################################################

C:\Documents and Settings\Administrator\Desktop\stm8s105k-controller\Project\STM8S_StdPeriph_Template\main.c
      1          /**
      2             LCD PINOUT
      3             PINS  1    2    3   4   5   6   7   8   9   10   11   12   13   14    15    16
      4                  VSS  VDD  VO  RS  R/W  E  DB0 DB1 DB2  DB3  DB4  DB5 DB6  DB7  LED_A LED_K
      5                  GND
      6                                20   22  24                   18    19   21   23
      7                                3    5   7                    1     2    4    6
      8             */
      9          
     10          /** New Device STM8S105K4  */
     11          /* Controller LCD DS1307,DS18B20 */
     12          
     13          /* Daily Allarm ON OFF
     14                                  ON
     15                                  |
     16            First bit set ON      100H:HHHH MMMM:MMMM
     17                                     OFF
     18                                      |
     19            Second bit set OFF       010H:HHHH MMMM:MMMM
     20          
     21          
     22            Daily Allarm ON TimeLong(in minute for 24h 1440 minute 0x5A0)
     23          
     24          
     25          
     26          
     27          */
     28          
     29          
     30          
     31          /* Includes ------------------------------------------------------------------*/
     32          #include "stm8s.h"
     33          #include "stdio.h"
     34          #include "string.h"
     35          /* Private defines -----------------------------------------------------------*/
     36          
     37          /* ================ LCD ======================= */
     38          
     39          #define LCD_GPIO_PIN (GPIO_PIN_1|GPIO_PIN_2|GPIO_PIN_3|GPIO_PIN_4|GPIO_PIN_5|GPIO_PIN_6|GPIO_PIN_7)
     40          #define LCD_PORT (GPIOC)
     41          #define LCD_GPIO_COTROL_PIN (GPIO_PIN_3 | GPIO_PIN_1 |GPIO_PIN_2)
     42          #define DATA4 GPIO_PIN_4
     43          #define DATA5 GPIO_PIN_5
     44          #define DATA6 GPIO_PIN_6
     45          #define DATA7 GPIO_PIN_7
     46          #define EN  GPIO_PIN_3
     47          #define RW  GPIO_PIN_1
     48          #define RS  GPIO_PIN_2
     49          #define LCD_EN(x)  x ? GPIO_WriteHigh(LCD_PORT, EN): GPIO_WriteLow(LCD_PORT,EN); //GPIOB->ODR =(GPIOB->ODR &~PIN_EN)|(x ? PIN_EN :0);
     50          #define LCD_RW(x)  x ? GPIO_WriteHigh(LCD_PORT, RW): GPIO_WriteLow(LCD_PORT,RW);
     51          #define LCD_RS(x)  x ? GPIO_WriteHigh(LCD_PORT, RS): GPIO_WriteLow(LCD_PORT,RS);
     52          
     53          #define key_ok    GPIO_PIN_4
     54          #define key_plus  GPIO_PIN_1
     55          #define key_minus GPIO_PIN_2
     56          
     57          #define ds18_data GPIO_PIN_2
     58          #define DS18(x)   x ? GPIO_WriteHigh(GPIOD,ds18_data):GPIO_WriteLow(GPIOD,ds18_data);
     59          
     60          #ifdef __GNUC__
     61            /* With GCC/RAISONANCE, small printf (option LD Linker->Libraries->Small printf
     62               set to 'Yes') calls __io_putchar() */
     63            #define PUTCHAR_PROTOTYPE int __io_putchar(int ch)
     64          #else
     65            #define PUTCHAR_PROTOTYPE int fputc(int ch, FILE *f)
     66          #endif /* __GNUC__ */
     67          
     68          
     69          
     70          
     71          #define SpecialSymbol 0x1b //Esc to start message
     72          #define data_size 20
     73          #define key_time 8000
     74          #define key_time_ok 15000
     75          #define DS_Control  0x10  // Out 1s
     76          #define EEPROM_ADDR 0x4000
     77          
     78          
     79          
     80          /* Private variables ---------------------------------------------------------*/

   \                                 In section .near.bss, align 1
     81          volatile u16 timer1;
   \                     timer1:
   \   000000                       DS8 2

   \                                 In section .near.bss, align 1
     82          volatile u16 timer2;
   \                     timer2:
   \   000000                       DS8 2

   \                                 In section .near.bss, align 1
     83          volatile u8 timeout;
   \                     timeout:
   \   000000                       DS8 1

   \                                 In section .near.bss, align 1
     84          volatile u16 adcdata;
   \                     adcdata:
   \   000000                       DS8 2

   \                                 In section .near.bss, align 1
     85          volatile u8 rx_data;
   \                     rx_data:
   \   000000                       DS8 1

   \                                 In section .near.bss, align 1
     86          char data[data_size];
   \                     data:
   \   000000                       DS8 20

   \                                 In section .near.bss, align 1
     87          u16  measure[data_size];
   \                     measure:
   \   000000                       DS8 40

   \                                 In section .near.bss, align 1
     88          u8 line_lcd;
   \                     line_lcd:
   \   000000                       DS8 1

   \                                 In section .near.bss, align 1
     89          u8 count;
   \                     count:
   \   000000                       DS8 1

   \                                 In section .near.bss, align 1
     90          u8 seconds;
   \                     seconds:
   \   000000                       DS8 1

   \                                 In section .near.bss, align 1
     91          u8 minutes;
   \                     minutes:
   \   000000                       DS8 1

   \                                 In section .near.bss, align 1
     92          u8 hours;
   \                     hours:
   \   000000                       DS8 1

   \                                 In section .near.data, align 1
     93          u8 days=1;
   \                     days:
   \   000000 01                    DC8 1

   \                                 In section .near.data, align 1
     94          u8 date=1;
   \                     `date`:
   \   000000 01                    DC8 1

   \                                 In section .near.data, align 1
     95          u8 mounts=1;
   \                     mounts:
   \   000000 01                    DC8 1

   \                                 In section .near.bss, align 1
     96          u8 years;
   \                     years:
   \   000000                       DS8 1

   \                                 In section .near.bss, align 1
     97          u8 error;
   \                     error:
   \   000000                       DS8 1

   \                                 In section .near.bss, align 1
     98          u8 temp_flag;
   \                     temp_flag:
   \   000000                       DS8 1

   \                                 In section .near.bss, align 1
     99          u8 temp2;
   \                     temp2:
   \   000000                       DS8 1

   \                                 In section .near.bss, align 1
    100          u8 daily_hour_on;
   \                     daily_hour_on:
   \   000000                       DS8 1

   \                                 In section .near.bss, align 1
    101          u8 daily_minute_on;
   \                     daily_minute_on:
   \   000000                       DS8 1

   \                                 In section .near.bss, align 1
    102          u8 daily_hour_off;
   \                     daily_hour_off:
   \   000000                       DS8 1

   \                                 In section .near.bss, align 1
    103          u8 daily_minute_off;
   \                     daily_minute_off:
   \   000000                       DS8 1

   \                                 In section .near.bss, align 1
    104          u16 daily_long_on;
   \                     daily_long_on:
   \   000000                       DS8 2

   \                                 In section .near.bss, align 1
    105          u16 time_on;
   \                     time_on:
   \   000000                       DS8 2

   \                                 In section .near.bss, align 1
    106          u16 time_off;
   \                     time_off:
   \   000000                       DS8 2
    107          //u8 index=0;

   \                                 In section .near.bss, align 1
    108          float  result;
   \                     result:
   \   000000                       DS8 4

   \                                 In section .near.bss, align 1
    109          int volatile k=0;
   \                     k:
   \   000000                       DS8 2
    110          
    111          
    112          
    113          
    114          
    115          
    116          
    117          
    118          /* Private function prototypes -----------------------------------------------*/
    119          void InitHardware();
    120          void GpioConfiguration();
    121          void InitClk();
    122          void InitAdc();
    123          void InitI2C();
    124          void EEPROM_INIT();
    125          bool ReadDS1307();
    126          //void InitUart();
    127          void InitLcd();
    128          void InitDelayTimer();
    129          void Delay1( u16 Delay);
    130          void Delay2( u16 Delay);
    131          void LCDInstrNibble (u8 Instr);
    132          void LCDInstr(u8 Instr);
    133          void LCDDataOut(u8 data);
    134          void LCD_Busy();
    135          void PulseEnable();
    136          //void SendData();
    137          void SendChar(u8 Char);
    138          //void Send_Hello();
    139          bool Set_Clock();
    140          bool key_ok_on();
    141          bool key_plus_on();
    142          bool key_minus_on();
    143          bool key_ok_plus();
    144          bool Init_DS1307(void);
    145          bool Check_DS1307(void);
    146          bool I2C_Start(void);
    147          bool I2C_WA(u8 address);
    148          bool I2C_WD(u8 data);
    149          bool I2C_RA(u8 address);
    150          bool Set_DS1307();
    151          bool Set_Delay_Allarm();
    152          bool Read_Allarm();
    153          bool Read_DS18();
    154          u8 convert_tobcd(u8 data);
    155          u8 I2C_RD(void);
    156          u8 adj(u8 min,u8 max,u8 now);
    157          u8 bcd2hex(u8 bcd);
    158          
    159          u16  Average();
    160          
    161          
    162          /* Private functions ---------------------------------------------------------*/
    163          

   \                                 In section .far_func.text, align 1, keep-with-next
   \                     ?Subroutine28:
   \   000000 8D000000              CALLF     key_ok_on
   \   000004 A100                  CP        A, #0x0
   \   000006 87                    RETF

   \                                 In section .far_func.text, align 1, keep-with-next
    164          void main(void)
    165          {
    166              /*High speed internal clock prescaler: 1*/
    167              //CLK_HSIPrescalerConfig(CLK_PRESCALER_HSIDIV1);
    168          
    169              InitClk();
   \                     main:
   \   000000 8D000000              CALLF     InitClk
    170              InitDelayTimer();
   \   000004 8D000000              CALLF     InitDelayTimer
    171              GpioConfiguration();
   \   000008 8D000000              CALLF     GpioConfiguration
    172              //InitUart();
    173              enableInterrupts();
   \   00000C 9A                    RIM
    174              GPIO_WriteLow(GPIOD,GPIO_PIN_7); //R/W Line Read Mode
   \   00000D A680                  LD        A, #0x80
   \   00000F AE500F                LDW       X, #0x500f
   \   000012 8D000000              CALLF     GPIO_WriteLow
    175              InitLcd();
   \   000016 8D000000              CALLF     InitLcd
    176              InitAdc();
   \   00001A 8D000000              CALLF     InitAdc
    177              InitI2C();
   \   00001E 8D000000              CALLF     InitI2C
    178              line_lcd=0;
   \   000022 725F0000              CLR       L:line_lcd
    179              if (!Read_DS18())
   \   000026 8D000000              CALLF     Read_DS18
   \   00002A A100                  CP        A, #0x0
   \   00002C 260D                  JRNE      L:??main_0
    180              {
    181               printf("\nDS_Err_I");
   \   00002E AE0000                LDW       X, #`?<Constant "\\nDS_Err_I">`
   \   000031 8D000000              CALLF     printf
    182                while (!key_ok_on());
   \                     ??main_1:
   \   000035 8D000000              CALLF     ?Subroutine28
    183              }
   \                     ??CrossCallReturnLabel_92:
   \   000039 27FA                  JREQ      L:??main_1
    184          
    185              //years=bcd2hex(13);
    186              Delay1(1000);
   \                     ??main_0:
   \   00003B AE03E8                LDW       X, #0x3e8
   \   00003E 8D000000              CALLF     Delay1
    187               if (!ReadDS1307())
   \   000042 8D000000              CALLF     ReadDS1307
   \   000046 A100                  CP        A, #0x0
   \   000048 2615                  JRNE      L:??main_2
    188               {
    189                 printf("\n E2:%d",error);
   \   00004A C60000                LD        A, L:error
   \   00004D 5F                    CLRW      X
   \   00004E 97                    LD        XL, A
   \   00004F 89                    PUSHW     X
   \   000050 AE0000                LDW       X, #`?<Constant "\\n E2:%d">`
   \   000053 8D000000              CALLF     printf
   \   000057 5B02                  ADD       SP, #0x2
    190                 // Reset the CPU: Enable the watchdog and wait until it expires
    191                 IWDG->KR = IWDG_KEY_ENABLE;
   \   000059 35CC50E0              MOV       L:0x50e0, #0xcc
    192                 while ( 1 );    // Wait until reset occurs from IWDG
   \                     ??main_3:
   \   00005D 20FE                  JRA       L:??main_3
    193               }
    194               //Send_Hello();
    195              //line_lcd=0;
    196              //printf("\nHello");
    197          
    198          
    199              if (!Check_DS1307())
   \                     ??main_2:
   \   00005F 8D000000              CALLF     Check_DS1307
   \   000063 A100                  CP        A, #0x0
   \   000065 2626                  JRNE      L:??main_4
    200              {
    201                 if (error!=0)
   \   000067 C60000                LD        A, L:error
   \   00006A 2712                  JREQ      L:??main_5
    202                 {
    203                  printf("\n E:%d",error);
   \   00006C 5F                    CLRW      X
   \   00006D 97                    LD        XL, A
   \   00006E 89                    PUSHW     X
   \   00006F AE0000                LDW       X, #`?<Constant "\\n E:%d">`
   \   000072 8D000000              CALLF     printf
   \   000076 5B02                  ADD       SP, #0x2
    204                   while (!key_ok_on());
   \                     ??main_6:
   \   000078 8D000000              CALLF     ?Subroutine28
    205          
    206                 }
   \                     ??CrossCallReturnLabel_93:
   \   00007C 27FA                  JREQ      L:??main_6
    207               line_lcd=0;
   \                     ??main_5:
   \   00007E 725F0000              CLR       L:line_lcd
    208               printf("\nSetClock");
   \   000082 AE0000                LDW       X, #`?<Constant "\\nSetClock">`
   \   000085 8D000000              CALLF     printf
    209                Set_Clock();
   \   000089 8D000000              CALLF     Set_Clock
    210          
    211              }
    212          
    213          
    214              //When Start Check for Allarm and computing Daily_long_on
    215                Read_Allarm();
   \                     ??main_4:
   \   00008D 8D000000              CALLF     Read_Allarm
    216                 time_on=daily_hour_on*60+daily_minute_on;
   \   000091 8D000000              CALLF     ?Subroutine1
    217                 time_off= daily_hour_off*60+daily_minute_off;
   \                     ??CrossCallReturnLabel_1:
   \   000095 200B                  JRA       L:??main_7
    218          
    219          
    220               //UART2_Cmd(DISABLE);  // Disable UART for the moment
    221          
    222               // Working fuction
    223              //Set_DS1307(13,7,13,34,0);//u8 year ,u8 mounts,u8 hours,u8 minutes,u8 seconds)
    224          
    225              while(1)
    226              {
    227                ADC1_Cmd (ENABLE);
    228          
    229                 GPIO_WriteReverse(GPIOD, (GPIO_Pin_TypeDef)GPIO_PIN_0 );
    230                   Delay2(10000);
    231                 GPIO_WriteReverse(GPIOD, (GPIO_Pin_TypeDef)GPIO_PIN_0 );
    232                   Delay2(10000);
    233          
    234                line_lcd=0;
    235               if (!ReadDS1307())
    236               {
    237                 printf("\n E2:%d",error);
    238                  //restart i2c
    239                // Reset the CPU: Enable the watchdog and wait until it expires
    240                 IWDG->KR = IWDG_KEY_ENABLE;
    241                 while ( 1 );    // Wait until reset occurs from IWDG
    242          
    243          
    244               }
    245                 else  printf("\n      ");
    246               line_lcd=1;
    247               printf("\n%02d:%02d:%02d",hours,minutes,seconds);
    248               //line_lcd=2;
    249               //printf("\n Just Test:%X", timer2);
    250                   //if (rx_data==SpecialSymbol) SendData();
    251                //SendData();
    252          
    253                if (key_ok_on())
    254                {
    255                  line_lcd=0;
    256                  printf("\n%02d:%02d:%02d",years,mounts,date);
    257                }
    258          
    259                if(key_ok_plus())
    260                {
    261                 //Set Daily Allarm
    262                  Set_Delay_Allarm();
    263                }
    264          
    265          
    266                //Check for Allarm
    267          
    268                u16 time_now=hours*60+minutes;
    269                bool allarm=FALSE;
    270          
    271          
    272                     u16 time=time_on;
    273                     do
    274                    {
    275                       if(time==time_now)
    276                       {
    277                         allarm=TRUE;
    278                          break ;
    279                       }
    280                        time++;
    281                         if( time==1441) time=0;
    282                    } while(!(time==time_off));
    283          
    284          
    285          
    286          
    287          
    288          
    289          
    290          
    291          
    292                      if(allarm)
    293                   {
    294                     // Allarm ON
    295                     line_lcd=0;
   \                     ??main_8:
   \   000097 725F0000              CLR       L:line_lcd
    296                     printf("\n ON");
   \   00009B AE0000                LDW       X, #`?<Constant "\\n ON">`
   \                     ??main_9:
   \   00009E 8D000000              CALLF     printf
    297                   }
   \                     ??main_7:
   \   0000A2 A601                  LD        A, #0x1
   \   0000A4 8D000000              CALLF     ADC1_Cmd
   \   0000A8 8D000000              CALLF     ?Subroutine17
   \                     ??CrossCallReturnLabel_56:
   \   0000AC 8D000000              CALLF     ?Subroutine17
   \                     ??CrossCallReturnLabel_55:
   \   0000B0 725F0000              CLR       L:line_lcd
   \   0000B4 8D000000              CALLF     ReadDS1307
   \   0000B8 A100                  CP        A, #0x0
   \   0000BA 2615                  JRNE      L:??main_10
   \   0000BC C60000                LD        A, L:error
   \   0000BF 5F                    CLRW      X
   \   0000C0 97                    LD        XL, A
   \   0000C1 89                    PUSHW     X
   \   0000C2 AE0000                LDW       X, #`?<Constant "\\n E2:%d">`
   \   0000C5 8D000000              CALLF     printf
   \   0000C9 5B02                  ADD       SP, #0x2
   \   0000CB 35CC50E0              MOV       L:0x50e0, #0xcc
   \                     ??main_11:
   \   0000CF 20FE                  JRA       L:??main_11
   \                     ??main_10:
   \   0000D1 AE0000                LDW       X, #`?<Constant "\\n      ">`
   \   0000D4 8D000000              CALLF     printf
   \   0000D8 8D000000              CALLF     ?Subroutine16
   \                     ??CrossCallReturnLabel_54:
   \   0000DC 89                    PUSHW     X
   \   0000DD C60000                LD        A, L:minutes
   \   0000E0 97                    LD        XL, A
   \   0000E1 89                    PUSHW     X
   \   0000E2 C60000                LD        A, L:hours
   \   0000E5 97                    LD        XL, A
   \   0000E6 89                    PUSHW     X
   \   0000E7 AE0000                LDW       X, #`?<Constant "\\n%02d:%02d:%02d">`
   \   0000EA 8D000000              CALLF     printf
   \   0000EE 5B06                  ADD       SP, #0x6
   \   0000F0 8D000000              CALLF     ?Subroutine28
   \                     ??CrossCallReturnLabel_94:
   \   0000F4 271D                  JREQ      L:??main_12
   \   0000F6 725F0000              CLR       L:line_lcd
   \   0000FA C60000                LD        A, L:`date`
   \   0000FD 5F                    CLRW      X
   \   0000FE 97                    LD        XL, A
   \   0000FF 89                    PUSHW     X
   \   000100 C60000                LD        A, L:mounts
   \   000103 97                    LD        XL, A
   \   000104 89                    PUSHW     X
   \   000105 C60000                LD        A, L:years
   \   000108 97                    LD        XL, A
   \   000109 89                    PUSHW     X
   \   00010A AE0000                LDW       X, #`?<Constant "\\n%02d:%02d:%02d">`
   \   00010D 8D000000              CALLF     printf
   \   000111 5B06                  ADD       SP, #0x6
   \                     ??main_12:
   \   000113 8D000000              CALLF     key_ok_plus
   \   000117 A100                  CP        A, #0x0
   \   000119 2704                  JREQ      L:??main_13
   \   00011B 8D000000              CALLF     Set_Delay_Allarm
   \                     ??main_13:
   \   00011F C60000                LD        A, L:hours
   \   000122 8D000000              CALLF     ?Subroutine34
   \                     ??CrossCallReturnLabel_160:
   \   000126 C60000                LD        A, L:minutes
   \   000129 8D000000              CALLF     ?Subroutine39
   \                     ??CrossCallReturnLabel_114:
   \   00012D 90CE0000              LDW       Y, L:time_on
   \                     ??main_14:
   \   000131 BF00                  LDW       S:?w0, X
   \   000133 90B300                CPW       Y, S:?w0
   \   000136 2603                  JRNE      ??lb_0
   \   000138 CC0000                JP        L:??main_8
   \                     ??lb_0:
   \   00013B 905C                  INCW      Y
   \   00013D 90A305A1              CPW       Y, #0x5a1
   \   000141 2602                  JRNE      L:??main_15
   \   000143 905F                  CLRW      Y
   \                     ??main_15:
   \   000145 90C30000              CPW       Y, L:time_off
   \   000149 26E6                  JRNE      L:??main_14
    298          
    299                    else
    300                    {
    301                      line_lcd=0;
   \   00014B 725F0000              CLR       L:line_lcd
    302                      printf("\n OFF");
   \   00014F AE0000                LDW       X, #`?<Constant "\\n OFF">`
   \   000152 AC000000              JPF       ??main_9
    303                    }
    304          
    305          
    306              }
    307          
    308          
    309          
    310          }

   \                                 In section .far_func.text, align 1, keep-with-next
   \                     ?Subroutine34:
   \   000000 905F                  CLRW      Y
   \   000002                       REQUIRE ??Subroutine47_0
   \   000002                       ;               // Fall through to label ??Subroutine47_0

   \                                 In section .far_func.text, align 1, keep-with-next
   \                     ??Subroutine47_0:
   \   000000 9097                  LD        YL, A
   \   000002 AE003C                LDW       X, #0x3c
   \   000005 BF00                  LDW       S:?w0, X
   \   000007 93                    LDW       X, Y
   \   000008 AC000000              JPF       L:?mul16_x_x_w0

   \                                 In section .far_func.text, align 1
   \                     ?Subroutine17:
   \   000000 A601                  LD        A, #0x1
   \   000002 AE500F                LDW       X, #0x500f
   \   000005 8D000000              CALLF     GPIO_WriteReverse
   \   000009 AE2710                LDW       X, #0x2710
   \   00000C AC000000              JPF       Delay2

   \                                 In section .far_func.text, align 1
   \                     ?Subroutine16:
   \   000000 35010000              MOV       L:line_lcd, #0x1
   \   000004 C60000                LD        A, L:seconds
   \   000007 5F                    CLRW      X
   \   000008 97                    LD        XL, A
   \   000009 87                    RETF

   \                                 In section .far_func.text, align 1
   \                     ?Subroutine1:
   \   000000 C60000                LD        A, L:daily_hour_on
   \   000003 8D000000              CALLF     ?Subroutine34
   \                     ??CrossCallReturnLabel_161:
   \   000007 C60000                LD        A, L:daily_minute_on
   \   00000A 8D000000              CALLF     ?Subroutine39
   \                     ??CrossCallReturnLabel_115:
   \   00000E CF0000                LDW       L:time_on, X
   \   000011 C60000                LD        A, L:daily_hour_off
   \   000014 8D000000              CALLF     ??Subroutine47_0
   \                     ??CrossCallReturnLabel_159:
   \   000018 C60000                LD        A, L:daily_minute_off
   \   00001B 8D000000              CALLF     ?Subroutine39
   \                     ??CrossCallReturnLabel_116:
   \   00001F CF0000                LDW       L:time_off, X
   \   000022 87                    RETF

   \                                 In section .far_func.text, align 1
   \                     ?Subroutine39:
   \   000000 9097                  LD        YL, A
   \   000002 90BF00                LDW       S:?w0, Y
   \   000005 72BB0000              ADDW      X, S:?w0
   \   000009 87                    RETF
    311          

   \                                 In section .far_func.text, align 1, keep-with-next
    312          void InitI2C(void)
    313          {
    314             I2C_DeInit();
   \                     InitI2C:
   \   000000 8D000000              CALLF     I2C_DeInit
    315             I2C_Init(10000, 0xA2, I2C_DUTYCYCLE_2, I2C_ACK_CURR, I2C_ADDMODE_7BIT, 2);
   \   000004 35020000              MOV       S:?b6, #0x2
   \   000008 3F00                  CLR       S:?b5
   \   00000A 35010000              MOV       S:?b4, #0x1
   \   00000E 4F                    CLR       A
   \   00000F AE00A2                LDW       X, #0xa2
   \   000012 89                    PUSHW     X
   \   000013 AE2710                LDW       X, #0x2710
   \   000016 BF00                  LDW       S:?w1, X
   \   000018 5F                    CLRW      X
   \   000019 BF00                  LDW       S:?w0, X
   \   00001B 85                    POPW      X
   \   00001C 8D000000              CALLF     I2C_Init
    316             I2C_Cmd(ENABLE);
   \   000020 A601                  LD        A, #0x1
   \   000022 AC000000              JPF       I2C_Cmd
    317          }
    318          

   \                                 In section .far_func.text, align 1, keep-with-next
    319          bool I2C_Start(void)
    320          {
    321             I2C_GenerateSTART(ENABLE);
   \                     I2C_Start:
   \   000000 A601                  LD        A, #0x1
   \   000002 8D000000              CALLF     I2C_GenerateSTART
    322                 timeout=100;
   \   000006 35640000              MOV       L:timeout, #0x64
    323              	while(!(I2C_CheckEvent(I2C_EVENT_MASTER_MODE_SELECT))&&timeout);
   \                     ??I2C_Start_0:
   \   00000A AE0301                LDW       X, #0x301
   \   00000D 8D000000              CALLF     ?Subroutine32
   \                     ??CrossCallReturnLabel_103:
   \   000011 2605                  JRNE      L:??I2C_Start_1
   \   000013 C60000                LD        A, L:timeout
   \   000016 26F2                  JRNE      L:??I2C_Start_0
    324                  if (!timeout)
   \                     ??I2C_Start_1:
   \   000018 C60000                LD        A, L:timeout
   \   00001B 2606                  JRNE      L:??I2C_Start_2
    325                  {
    326                      error=1;
   \   00001D 35010000              MOV       L:error, #0x1
    327                     return FALSE;
   \   000021 4F                    CLR       A
   \   000022 87                    RETF
    328                  }
    329                    else return TRUE;
   \                     ??I2C_Start_2:
   \   000023 A601                  LD        A, #0x1
   \   000025 87                    RETF
    330          }

   \                                 In section .far_func.text, align 1, keep-with-next
   \                     ?Subroutine32:
   \   000000 8D000000              CALLF     I2C_CheckEvent
   \   000004 A100                  CP        A, #0x0
   \   000006 87                    RETF
    331          

   \                                 In section .far_func.text, align 1, keep-with-next
    332          bool I2C_WA(u8 address)
    333          {
    334            I2C_Send7bitAddress(address, I2C_DIRECTION_TX);
   \                     I2C_WA:
   \   000000 3F00                  CLR       S:?b0
   \   000002 8D000000              CALLF     I2C_Send7bitAddress
    335                 timeout=255;
   \   000006 35FF0000              MOV       L:timeout, #0xff
    336                  while(!(I2C_CheckEvent(I2C_EVENT_MASTER_TRANSMITTER_MODE_SELECTED))&&timeout);
   \                     ??I2C_WA_0:
   \   00000A AE0782                LDW       X, #0x782
   \   00000D 8D000000              CALLF     ?Subroutine32
   \                     ??CrossCallReturnLabel_102:
   \   000011 2605                  JRNE      L:??I2C_WA_1
   \   000013 C60000                LD        A, L:timeout
   \   000016 26F2                  JRNE      L:??I2C_WA_0
    337                   if (!timeout)
   \                     ??I2C_WA_1:
   \   000018 C60000                LD        A, L:timeout
   \   00001B 2606                  JRNE      L:??I2C_WA_2
    338                   {
    339                    error=2;
   \   00001D 35020000              MOV       L:error, #0x2
    340                     return FALSE ;
   \   000021 4F                    CLR       A
   \   000022 87                    RETF
    341                   }
    342                    else return TRUE;
   \                     ??I2C_WA_2:
   \   000023 A601                  LD        A, #0x1
   \   000025 87                    RETF
    343          }
    344          

   \                                 In section .far_func.text, align 1, keep-with-next
    345          bool I2C_RA(u8 address)
    346          {
    347            I2C_Send7bitAddress(address, I2C_DIRECTION_RX);
   \                     I2C_RA:
   \   000000 35010000              MOV       S:?b0, #0x1
   \   000004 8D000000              CALLF     I2C_Send7bitAddress
    348                 timeout=255;
   \   000008 35FF0000              MOV       L:timeout, #0xff
    349                  while(!(I2C_CheckEvent(I2C_EVENT_MASTER_RECEIVER_MODE_SELECTED))&&timeout);
   \                     ??I2C_RA_0:
   \   00000C AE0302                LDW       X, #0x302
   \   00000F 8D000000              CALLF     ?Subroutine32
   \                     ??CrossCallReturnLabel_104:
   \   000013 2605                  JRNE      L:??I2C_RA_1
   \   000015 C60000                LD        A, L:timeout
   \   000018 26F2                  JRNE      L:??I2C_RA_0
    350                   if (!timeout)
   \                     ??I2C_RA_1:
   \   00001A C60000                LD        A, L:timeout
   \   00001D 2606                  JRNE      L:??I2C_RA_2
    351                   {
    352                     error=3;
   \   00001F 35030000              MOV       L:error, #0x3
    353                     return FALSE ;
   \   000023 4F                    CLR       A
   \   000024 87                    RETF
    354                   }
    355                    else return TRUE;
   \                     ??I2C_RA_2:
   \   000025 A601                  LD        A, #0x1
   \   000027 87                    RETF
    356          }
    357          
    358          

   \                                 In section .far_func.text, align 1, keep-with-next
    359          bool I2C_WD(u8 data)
    360          {
    361           I2C_SendData(data);   // set register pointer 00h
   \                     I2C_WD:
   \   000000 8D000000              CALLF     I2C_SendData
    362             timeout=255;
   \   000004 35FF0000              MOV       L:timeout, #0xff
    363             while(!(I2C_CheckEvent(I2C_EVENT_MASTER_BYTE_TRANSMITTED))&&timeout);
   \                     ??I2C_WD_0:
   \   000008 AE0784                LDW       X, #0x784
   \   00000B 8D000000              CALLF     ?Subroutine32
   \                     ??CrossCallReturnLabel_101:
   \   00000F 2605                  JRNE      L:??I2C_WD_1
   \   000011 C60000                LD        A, L:timeout
   \   000014 26F2                  JRNE      L:??I2C_WD_0
    364              if (!timeout)
   \                     ??I2C_WD_1:
   \   000016 C60000                LD        A, L:timeout
   \   000019 2606                  JRNE      L:??I2C_WD_2
    365              {
    366                error=4;
   \   00001B 35040000              MOV       L:error, #0x4
    367                 return FALSE ;
   \   00001F 4F                    CLR       A
   \   000020 87                    RETF
    368              }
    369               else return TRUE;
   \                     ??I2C_WD_2:
   \   000021 A601                  LD        A, #0x1
   \   000023 87                    RETF
    370          }
    371          

   \                                 In section .far_func.text, align 1, keep-with-next
    372          u8 I2C_RD(void)
    373          {
    374           timeout=255;
   \                     I2C_RD:
   \   000000 35FF0000              MOV       L:timeout, #0xff
    375            while( !I2C_GetFlagStatus(I2C_FLAG_TRANSFERFINISHED)&& timeout);
   \                     ??I2C_RD_0:
   \   000004 AE0104                LDW       X, #0x104
   \   000007 8D000000              CALLF     I2C_GetFlagStatus
   \   00000B A100                  CP        A, #0x0
   \   00000D 2605                  JRNE      L:??I2C_RD_1
   \   00000F C60000                LD        A, L:timeout
   \   000012 26F0                  JRNE      L:??I2C_RD_0
    376           //while((!(I2C->SR1 & 0x40))&&timeout);
    377           if (!timeout)
   \                     ??I2C_RD_1:
   \   000014 C60000                LD        A, L:timeout
   \   000017 2606                  JRNE      L:??I2C_RD_2
    378           {
    379             error=5;
   \   000019 35050000              MOV       L:error, #0x5
    380             return FALSE;
   \   00001D 4F                    CLR       A
   \   00001E 87                    RETF
    381           }
    382           u8 data=I2C_ReceiveData();
    383           return data;
   \                     ??I2C_RD_2:
   \   00001F AC000000              JPF       I2C_ReceiveData
    384          }
    385          
    386            /*
    387          bool Init_DS1307(void)
    388          {
    389             // Test DS1307
    390              error=0;
    391              if (!I2C_Start()) return FALSE;
    392              if(!I2C_WA(0xD0)) return FALSE;
    393              if(!I2C_WD(0x00)) return FALSE;
    394              if(!I2C_WD(0x00)) return FALSE;
    395              I2C_GenerateSTOP(ENABLE);
    396          
    397              // timeout=100;  error=4;
    398              ///   while(!(I2C_CheckEvent(I2C_EVENT_MASTER_BYTE_TRANSMITTED))&&timeout);
    399              //    if (!timeout)return FALSE ;
    400               return TRUE;
    401          }
    402             */
    403          

   \                                 In section .far_func.text, align 1, keep-with-next
   \                     ?Subroutine31:
   \   000000 A6D0                  LD        A, #0xd0
   \   000002 8D000000              CALLF     I2C_WA
   \   000006 A100                  CP        A, #0x0
   \   000008 87                    RETF

   \                                 In section .far_func.text, align 1, keep-with-next
   \                     ?Subroutine30:
   \   000000 725F0000              CLR       L:error
   \   000004 8D000000              CALLF     I2C_Start
   \   000008 A100                  CP        A, #0x0
   \   00000A 87                    RETF

   \                                 In section .far_func.text, align 1, keep-with-next
   \                     ??Subroutine46_0:
   \   000000 8D000000              CALLF     I2C_WD
   \   000004 A100                  CP        A, #0x0
   \   000006 87                    RETF

   \                                 In section .far_func.text, align 1, keep-with-next
    404          bool  ReadDS1307(void)
    405          {
    406                 error=0;
   \                     ReadDS1307:
   \   000000 8D000000              CALLF     ?Subroutine30
    407                 if (!I2C_Start()) return FALSE;
   \                     ??CrossCallReturnLabel_97:
   \   000004 2602                  JRNE      L:??ReadDS1307_0
   \                     ??ReadDS1307_1:
   \   000006 4F                    CLR       A
   \   000007 87                    RETF
    408                 if(!I2C_WA(0xD0))return FALSE;
   \                     ??ReadDS1307_0:
   \   000008 8D000000              CALLF     ?Subroutine31
   \                     ??CrossCallReturnLabel_100:
   \   00000C 27F8                  JREQ      L:??ReadDS1307_1
    409                 if(!I2C_WD(0x00)) return FALSE;
   \   00000E 4F                    CLR       A
   \   00000F 8D000000              CALLF     ??Subroutine46_0
   \                     ??CrossCallReturnLabel_158:
   \   000013 27F1                  JREQ      L:??ReadDS1307_1
    410                 I2C_GenerateSTOP(ENABLE);
   \   000015 8D000000              CALLF     ?Subroutine19
    411                 if (!I2C_Start()) return FALSE;
   \                     ??CrossCallReturnLabel_61:
   \   000019 27EB                  JREQ      L:??ReadDS1307_1
    412                 if(!I2C_RA(0xD0))return FALSE;
   \   00001B A6D0                  LD        A, #0xd0
   \   00001D 8D000000              CALLF     I2C_RA
   \   000021 A100                  CP        A, #0x0
   \   000023 27E1                  JREQ      L:??ReadDS1307_1
    413                 I2C_AcknowledgeConfig(I2C_ACK_CURR);
   \   000025 8D000000              CALLF     ?Subroutine15
    414                 seconds = bcd2hex(I2C_RD());
   \                     ??CrossCallReturnLabel_50:
   \   000029 C70000                LD        L:seconds, A
    415                 I2C_AcknowledgeConfig(I2C_ACK_CURR);
   \   00002C 8D000000              CALLF     ?Subroutine15
    416                 minutes = bcd2hex(I2C_RD());
   \                     ??CrossCallReturnLabel_49:
   \   000030 C70000                LD        L:minutes, A
    417                 I2C_AcknowledgeConfig(I2C_ACK_CURR);
   \   000033 8D000000              CALLF     ?Subroutine15
    418                 hours = bcd2hex(I2C_RD());
   \                     ??CrossCallReturnLabel_48:
   \   000037 C70000                LD        L:hours, A
    419                 I2C_AcknowledgeConfig(I2C_ACK_CURR);
   \   00003A 8D000000              CALLF     ?Subroutine15
    420                 days = bcd2hex(I2C_RD());
   \                     ??CrossCallReturnLabel_47:
   \   00003E C70000                LD        L:days, A
    421                 I2C_AcknowledgeConfig(I2C_ACK_CURR);
   \   000041 8D000000              CALLF     ?Subroutine15
    422                 date = bcd2hex(I2C_RD());
   \                     ??CrossCallReturnLabel_46:
   \   000045 C70000                LD        L:`date`, A
    423                 I2C_AcknowledgeConfig(I2C_ACK_CURR);
   \   000048 8D000000              CALLF     ?Subroutine15
    424                 mounts = bcd2hex(I2C_RD());
   \                     ??CrossCallReturnLabel_45:
   \   00004C C70000                LD        L:mounts, A
    425                 I2C_AcknowledgeConfig(I2C_ACK_CURR);
   \   00004F 8D000000              CALLF     ?Subroutine15
    426                  years= bcd2hex(I2C_RD());
   \                     ??CrossCallReturnLabel_44:
   \   000053 C70000                LD        L:years, A
    427                 I2C_AcknowledgeConfig(I2C_ACK_CURR);
   \   000056 8D000000              CALLF     ?Subroutine20
    428                  u8 data1 = I2C_RD();
    429                //Last read byte by I2C slave
    430                 I2C_AcknowledgeConfig(I2C_ACK_NONE);
   \                     ??CrossCallReturnLabel_63:
   \   00005A 8D000000              CALLF     ?Subroutine22
    431                 I2C_GenerateSTOP(ENABLE);
    432                 temp2= I2C_RD();
   \                     ??CrossCallReturnLabel_64:
   \   00005E 8D000000              CALLF     I2C_RD
   \   000062 C70000                LD        L:temp2, A
    433                 return TRUE;
   \   000065 A601                  LD        A, #0x1
   \   000067 87                    RETF
    434          }

   \                                 In section .far_func.text, align 1, keep-with-next
   \                     ?Subroutine22:
   \   000000 4F                    CLR       A
   \   000001 8D000000              CALLF     I2C_AcknowledgeConfig
   \   000005 A601                  LD        A, #0x1
   \   000007 AC000000              JPF       I2C_GenerateSTOP

   \                                 In section .far_func.text, align 1, keep-with-next
   \                     ?Subroutine20:
   \   000000 8D000000              CALLF     ?Subroutine37
   \                     ??CrossCallReturnLabel_110:
   \   000004 87                    RETF

   \                                 In section .far_func.text, align 1, keep-with-next
   \                     ?Subroutine37:
   \   000000 A601                  LD        A, #0x1
   \   000002 8D000000              CALLF     I2C_AcknowledgeConfig
   \   000006 AC000000              JPF       I2C_RD

   \                                 In section .far_func.text, align 1, keep-with-next
   \                     ?Subroutine19:
   \   000000 A601                  LD        A, #0x1
   \   000002 8D000000              CALLF     I2C_GenerateSTOP
   \   000006 8D000000              CALLF     I2C_Start
   \   00000A A100                  CP        A, #0x0
   \   00000C 87                    RETF

   \                                 In section .far_func.text, align 1, keep-with-next
   \                     ?Subroutine15:
   \   000000 8D000000              CALLF     ?Subroutine37
   \                     ??CrossCallReturnLabel_109:
   \   000004 AC000000              JPF       bcd2hex
    435          

   \                                 In section .far_func.text, align 1, keep-with-next
    436          bool Check_DS1307(void)
    437          {
   \                     Check_DS1307:
   \   000000 3B0000                PUSH      S:?b8
    438             // Read  address 0x08 from DS1307 if not 0XAA clock is not set
    439                 error=0;
   \   000003 8D000000              CALLF     ?Subroutine30
    440                 if (!I2C_Start()) return FALSE;
   \                     ??CrossCallReturnLabel_96:
   \   000007 2603                  JRNE      L:??Check_DS1307_0
   \                     ??Check_DS1307_1:
   \   000009 4F                    CLR       A
   \   00000A 2030                  JRA       L:??Check_DS1307_2
    441                 if(!I2C_WA(0xD0)) return FALSE;
   \                     ??Check_DS1307_0:
   \   00000C 8D000000              CALLF     ?Subroutine31
   \                     ??CrossCallReturnLabel_99:
   \   000010 27F7                  JREQ      L:??Check_DS1307_1
    442                 if(!I2C_WD(0x08)) return FALSE;
   \   000012 A608                  LD        A, #0x8
   \   000014 8D000000              CALLF     ??Subroutine46_0
   \                     ??CrossCallReturnLabel_157:
   \   000018 27EF                  JREQ      L:??Check_DS1307_1
    443                 I2C_GenerateSTOP(ENABLE);
   \   00001A 8D000000              CALLF     ?Subroutine19
    444                  //Last read byte by I2C slave
    445                 if (!I2C_Start()) return FALSE;
   \                     ??CrossCallReturnLabel_60:
   \   00001E 27E9                  JREQ      L:??Check_DS1307_1
    446                 if(!I2C_RA(0xD0))return FALSE;
   \   000020 A6D0                  LD        A, #0xd0
   \   000022 8D000000              CALLF     I2C_RA
   \   000026 A100                  CP        A, #0x0
   \   000028 27DF                  JREQ      L:??Check_DS1307_1
    447                 I2C_AcknowledgeConfig(I2C_ACK_CURR);
   \   00002A 8D000000              CALLF     ?Subroutine20
    448                 u8 data = I2C_RD();
   \                     ??CrossCallReturnLabel_62:
   \   00002E B700                  LD        S:?b8, A
    449                 I2C_AcknowledgeConfig(I2C_ACK_NONE);
   \   000030 8D000000              CALLF     ?Subroutine22
    450                 I2C_GenerateSTOP(ENABLE);
    451                 if (data != 0xAA) return FALSE;
   \                     ??CrossCallReturnLabel_65:
   \   000034 B600                  LD        A, S:?b8
   \   000036 A1AA                  CP        A, #0xaa
   \   000038 26CF                  JRNE      L:??Check_DS1307_1
    452                 else return TRUE;
   \   00003A A601                  LD        A, #0x1
   \                     ??Check_DS1307_2:
   \   00003C 320000                POP       S:?b8
   \   00003F 87                    RETF
    453          }
    454          

   \                                 In section .far_func.text, align 1, keep-with-next
    455          bool Set_DS1307()
    456          {
    457                 // convert hex or decimal to bcd format
    458          
    459          
    460                 error=0;
   \                     Set_DS1307:
   \   000000 8D000000              CALLF     ?Subroutine30
    461                 if (!I2C_Start()) return FALSE;
   \                     ??CrossCallReturnLabel_95:
   \   000004 2602                  JRNE      L:??Set_DS1307_0
   \                     ??Set_DS1307_1:
   \   000006 4F                    CLR       A
   \   000007 87                    RETF
    462                 if(!I2C_WA(0xD0)) return FALSE;
   \                     ??Set_DS1307_0:
   \   000008 8D000000              CALLF     ?Subroutine31
   \                     ??CrossCallReturnLabel_98:
   \   00000C 27F8                  JREQ      L:??Set_DS1307_1
    463                 if(!I2C_WD(0x00)) return FALSE;
   \   00000E 4F                    CLR       A
   \   00000F 8D000000              CALLF     ??Subroutine46_0
   \                     ??CrossCallReturnLabel_154:
   \   000013 27F1                  JREQ      L:??Set_DS1307_1
    464                 if(!I2C_WD(convert_tobcd(seconds))) return FALSE;
   \   000015 C60000                LD        A, L:seconds
   \   000018 8D000000              CALLF     ?Subroutine29
   \                     ??CrossCallReturnLabel_147:
   \   00001C 27E8                  JREQ      L:??Set_DS1307_1
    465                 if(!I2C_WD(convert_tobcd(minutes))) return FALSE;
   \   00001E C60000                LD        A, L:minutes
   \   000021 8D000000              CALLF     ?Subroutine29
   \                     ??CrossCallReturnLabel_148:
   \   000025 27DF                  JREQ      L:??Set_DS1307_1
    466                 if(!I2C_WD(convert_tobcd(hours))) return FALSE;
   \   000027 C60000                LD        A, L:hours
   \   00002A 8D000000              CALLF     ?Subroutine29
   \                     ??CrossCallReturnLabel_149:
   \   00002E 27D6                  JREQ      L:??Set_DS1307_1
    467                 if(!I2C_WD(convert_tobcd(days))) return FALSE;
   \   000030 C60000                LD        A, L:days
   \   000033 8D000000              CALLF     ?Subroutine29
   \                     ??CrossCallReturnLabel_150:
   \   000037 27CD                  JREQ      L:??Set_DS1307_1
    468                 if(!I2C_WD(convert_tobcd(date))) return FALSE;
   \   000039 C60000                LD        A, L:`date`
   \   00003C 8D000000              CALLF     ?Subroutine29
   \                     ??CrossCallReturnLabel_151:
   \   000040 27C4                  JREQ      L:??Set_DS1307_1
    469                 if(!I2C_WD(convert_tobcd(mounts))) return FALSE;
   \   000042 C60000                LD        A, L:mounts
   \   000045 8D000000              CALLF     ?Subroutine29
   \                     ??CrossCallReturnLabel_152:
   \   000049 27BB                  JREQ      L:??Set_DS1307_1
    470                 if(!I2C_WD(convert_tobcd(years)))return FALSE;
   \   00004B C60000                LD        A, L:years
   \   00004E 8D000000              CALLF     ?Subroutine29
   \                     ??CrossCallReturnLabel_153:
   \   000052 27B2                  JREQ      L:??Set_DS1307_1
    471                 if(!I2C_WD(DS_Control))return FALSE;
   \   000054 A610                  LD        A, #0x10
   \   000056 8D000000              CALLF     ??Subroutine46_0
   \                     ??CrossCallReturnLabel_155:
   \   00005A 27AA                  JREQ      L:??Set_DS1307_1
    472                 if(!I2C_WD(0XAA)) return FALSE;  // Byte --> time is set by program
   \   00005C A6AA                  LD        A, #0xaa
   \   00005E 8D000000              CALLF     ??Subroutine46_0
   \                     ??CrossCallReturnLabel_156:
   \   000062 27A2                  JREQ      L:??Set_DS1307_1
    473                 I2C_GenerateSTOP(ENABLE);
   \   000064 A601                  LD        A, #0x1
   \   000066 8D000000              CALLF     I2C_GenerateSTOP
    474          
    475          
    476             return TRUE;
   \   00006A A601                  LD        A, #0x1
   \   00006C 87                    RETF
    477          }

   \                                 In section .far_func.text, align 1, keep-with-next
   \                     ?Subroutine29:
   \   000000 8D000000              CALLF     convert_tobcd
   \   000004                       REQUIRE ??Subroutine46_0
   \   000004                       ;               // Fall through to label ??Subroutine46_0
    478          
    479          

   \                                 In section .far_func.text, align 1, keep-with-next
    480          u8 convert_tobcd(u8 data)
    481          {
   \                     convert_tobcd:
   \   000000 B700                  LD        S:?b1, A
    482             u8 data_second_decimal=data/10;
    483             u8 data_first_decimal=data - 10*data_second_decimal;
    484             data=16*data_second_decimal + data_first_decimal;
    485            return data;
   \   000002 A60A                  LD        A, #0xa
   \   000004 5F                    CLRW      X
   \   000005 01                    RRWA      X, A
   \   000006 B600                  LD        A, S:?b1
   \   000008 02                    RLWA      X, A
   \   000009 62                    DIV       X, A
   \   00000A 41                    EXG       A, XL
   \   00000B B700                  LD        S:?b0, A
   \   00000D A606                  LD        A, #0x6
   \   00000F 97                    LD        XL, A
   \   000010 B600                  LD        A, S:?b0
   \   000012 42                    MUL       X, A
   \   000013 9F                    LD        A, XL
   \   000014 BB00                  ADD       A, S:?b1
   \   000016 87                    RETF
    486          }
    487          

   \                                 In section .far_func.text, align 1, keep-with-next
    488          u8 bcd2hex(u8 bcd)
    489          {
   \                     bcd2hex:
   \   000000 B700                  LD        S:?b1, A
    490            u8 hex=0;
    491            hex=(bcd>>4)*10 +(bcd&0x0f);
    492            bcd=0;
    493            return hex ;
   \   000002 4E                    SWAP      A
   \   000003 A40F                  AND       A, #0xf
   \   000005 350A0000              MOV       S:?b0, #0xa
   \   000009 97                    LD        XL, A
   \   00000A B600                  LD        A, S:?b0
   \   00000C 42                    MUL       X, A
   \   00000D 41                    EXG       A, XL
   \   00000E B700                  LD        S:?b0, A
   \   000010 B600                  LD        A, S:?b1
   \   000012 A40F                  AND       A, #0xf
   \   000014 BB00                  ADD       A, S:?b0
   \   000016 87                    RETF
    494          }
    495          
    496          

   \                                 In section .far_func.text, align 1, keep-with-next
   \                     ?Subroutine36:
   \   000000 A601                  LD        A, #0x1
   \   000002 AC000000              JPF       LCDInstr

   \                                 In section .far_func.text, align 1, keep-with-next
    497          bool Set_Clock()
    498          {
    499              //Clear Display
    500             LCDInstr(0x01);
   \                     Set_Clock:
   \   000000 8D000000              CALLF     ?Subroutine8
    501             Delay1(1000);
    502             line_lcd=0;
    503              printf("\nYears:");
   \                     ??CrossCallReturnLabel_25:
   \   000004 AE0000                LDW       X, #`?<Constant "\\nYears:">`
   \   000007 8D000000              CALLF     printf
    504                do
    505              {
    506               line_lcd=1;
   \                     ??Set_Clock_0:
   \   00000B 8D000000              CALLF     ?Subroutine18
    507               printf("\n%02d:%02d:%02d",years,mounts,date);
   \                     ??CrossCallReturnLabel_57:
   \   00000F 89                    PUSHW     X
   \   000010 C60000                LD        A, L:mounts
   \   000013 97                    LD        XL, A
   \   000014 89                    PUSHW     X
   \   000015 C60000                LD        A, L:years
   \   000018 97                    LD        XL, A
   \   000019 89                    PUSHW     X
   \   00001A AE0000                LDW       X, #`?<Constant "\\n%02d:%02d:%02d">`
   \   00001D 8D000000              CALLF     printf
   \   000021 5B06                  ADD       SP, #0x6
    508                 years=adj(0,99,years);
   \   000023 C60000                LD        A, L:years
   \   000026 B700                  LD        S:?b1, A
   \   000028 35630000              MOV       S:?b0, #0x63
   \   00002C 8D000000              CALLF     ??Subroutine45_0
    509              } while (!key_ok_on());
   \                     ??CrossCallReturnLabel_140:
   \   000030 C70000                LD        L:years, A
   \   000033 8D000000              CALLF     ?Subroutine28
   \                     ??CrossCallReturnLabel_85:
   \   000037 27D2                  JREQ      L:??Set_Clock_0
    510          
    511               line_lcd=0;
   \   000039 725F0000              CLR       L:line_lcd
    512              printf("\nMounts:");
   \   00003D AE0000                LDW       X, #`?<Constant "\\nMounts:">`
   \   000040 8D000000              CALLF     printf
    513                do
    514              {
    515               line_lcd=1;
   \                     ??Set_Clock_1:
   \   000044 8D000000              CALLF     ?Subroutine18
    516               printf("\n%02d:%02d:%02d",years,mounts,date);
   \                     ??CrossCallReturnLabel_58:
   \   000048 89                    PUSHW     X
   \   000049 C60000                LD        A, L:mounts
   \   00004C 97                    LD        XL, A
   \   00004D 89                    PUSHW     X
   \   00004E C60000                LD        A, L:years
   \   000051 97                    LD        XL, A
   \   000052 89                    PUSHW     X
   \   000053 AE0000                LDW       X, #`?<Constant "\\n%02d:%02d:%02d">`
   \   000056 8D000000              CALLF     printf
   \   00005A 5B06                  ADD       SP, #0x6
    517                 mounts=adj(1,12,mounts);
   \   00005C C60000                LD        A, L:mounts
   \   00005F B700                  LD        S:?b1, A
   \   000061 350C0000              MOV       S:?b0, #0xc
   \   000065 A601                  LD        A, #0x1
   \   000067 8D000000              CALLF     adj
   \   00006B C70000                LD        L:mounts, A
    518              } while (!key_ok_on());
   \   00006E 8D000000              CALLF     ?Subroutine28
   \                     ??CrossCallReturnLabel_86:
   \   000072 27D0                  JREQ      L:??Set_Clock_1
    519          
    520              LCDInstr(0x01);
   \   000074 8D000000              CALLF     ?Subroutine8
    521               Delay1(1000);
    522                line_lcd=0;
    523              printf("\nDate:");
   \                     ??CrossCallReturnLabel_26:
   \   000078 AE0000                LDW       X, #`?<Constant "\\nDate:">`
   \   00007B 8D000000              CALLF     printf
    524                do
    525              {
    526               line_lcd=1;
   \                     ??Set_Clock_2:
   \   00007F 8D000000              CALLF     ?Subroutine18
    527               printf("\n%02d:%02d:%02d",years,mounts,date);
   \                     ??CrossCallReturnLabel_59:
   \   000083 89                    PUSHW     X
   \   000084 C60000                LD        A, L:mounts
   \   000087 97                    LD        XL, A
   \   000088 89                    PUSHW     X
   \   000089 C60000                LD        A, L:years
   \   00008C 97                    LD        XL, A
   \   00008D 89                    PUSHW     X
   \   00008E AE0000                LDW       X, #`?<Constant "\\n%02d:%02d:%02d">`
   \   000091 8D000000              CALLF     printf
   \   000095 5B06                  ADD       SP, #0x6
    528                 date=adj(1,31,date);
   \   000097 C60000                LD        A, L:`date`
   \   00009A B700                  LD        S:?b1, A
   \   00009C 351F0000              MOV       S:?b0, #0x1f
   \   0000A0 A601                  LD        A, #0x1
   \   0000A2 8D000000              CALLF     adj
   \   0000A6 C70000                LD        L:`date`, A
    529              } while (!key_ok_on());
   \   0000A9 8D000000              CALLF     ?Subroutine28
   \                     ??CrossCallReturnLabel_87:
   \   0000AD 27D0                  JREQ      L:??Set_Clock_2
    530          
    531          
    532              //Clear Display
    533             LCDInstr(0x01);
   \   0000AF 8D000000              CALLF     ?Subroutine8
    534             Delay1(1000);
    535             line_lcd=0;
    536              printf("\nDays:");
   \                     ??CrossCallReturnLabel_27:
   \   0000B3 AE0000                LDW       X, #`?<Constant "\\nDays:">`
   \   0000B6 8D000000              CALLF     printf
    537                do
    538              {
    539                line_lcd=1;
   \                     ??Set_Clock_3:
   \   0000BA 35010000              MOV       L:line_lcd, #0x1
    540               printf("\n%02d",days);
   \   0000BE C60000                LD        A, L:days
   \   0000C1 5F                    CLRW      X
   \   0000C2 97                    LD        XL, A
   \   0000C3 89                    PUSHW     X
   \   0000C4 AE0000                LDW       X, #`?<Constant "\\n%02d">`
   \   0000C7 8D000000              CALLF     printf
   \   0000CB 5B02                  ADD       SP, #0x2
    541                 days=adj(1,7,days);
   \   0000CD C60000                LD        A, L:days
   \   0000D0 B700                  LD        S:?b1, A
   \   0000D2 35070000              MOV       S:?b0, #0x7
   \   0000D6 A601                  LD        A, #0x1
   \   0000D8 8D000000              CALLF     adj
   \   0000DC C70000                LD        L:days, A
    542              } while (!key_ok_on());
   \   0000DF 8D000000              CALLF     ?Subroutine28
   \                     ??CrossCallReturnLabel_88:
   \   0000E3 27D5                  JREQ      L:??Set_Clock_3
    543          
    544          
    545          
    546             //Clear Display
    547             LCDInstr(0x01);
   \   0000E5 8D000000              CALLF     ?Subroutine8
    548             Delay1(1000);
    549             line_lcd=0;
    550              printf("\nHours:");
   \                     ??CrossCallReturnLabel_28:
   \   0000E9 AE0000                LDW       X, #`?<Constant "\\nHours:">`
   \   0000EC 8D000000              CALLF     printf
    551                do
    552              {
    553                line_lcd=1;
   \                     ??Set_Clock_4:
   \   0000F0 8D000000              CALLF     ?Subroutine16
    554               printf("\n%02d:%02d:%02d",hours,minutes,seconds);
   \                     ??CrossCallReturnLabel_51:
   \   0000F4 89                    PUSHW     X
   \   0000F5 C60000                LD        A, L:minutes
   \   0000F8 97                    LD        XL, A
   \   0000F9 89                    PUSHW     X
   \   0000FA C60000                LD        A, L:hours
   \   0000FD 97                    LD        XL, A
   \   0000FE 89                    PUSHW     X
   \   0000FF AE0000                LDW       X, #`?<Constant "\\n%02d:%02d:%02d">`
   \   000102 8D000000              CALLF     printf
   \   000106 5B06                  ADD       SP, #0x6
    555                 hours=adj(0,23,hours);
   \   000108 C60000                LD        A, L:hours
   \   00010B B700                  LD        S:?b1, A
   \   00010D 35170000              MOV       S:?b0, #0x17
   \   000111 8D000000              CALLF     ??Subroutine45_0
    556              } while (!key_ok_on());
   \                     ??CrossCallReturnLabel_139:
   \   000115 C70000                LD        L:hours, A
   \   000118 8D000000              CALLF     ?Subroutine28
   \                     ??CrossCallReturnLabel_89:
   \   00011C 27D2                  JREQ      L:??Set_Clock_4
    557          
    558               line_lcd=0;
   \   00011E 725F0000              CLR       L:line_lcd
    559               printf("\nMinutes:");
   \   000122 AE0000                LDW       X, #`?<Constant "\\nMinutes:">`
   \   000125 8D000000              CALLF     printf
    560                do
    561              {
    562                line_lcd=1;
   \                     ??Set_Clock_5:
   \   000129 8D000000              CALLF     ?Subroutine16
    563               printf("\n%02d:%02d:%02d",hours,minutes,seconds);
   \                     ??CrossCallReturnLabel_52:
   \   00012D 89                    PUSHW     X
   \   00012E C60000                LD        A, L:minutes
   \   000131 97                    LD        XL, A
   \   000132 89                    PUSHW     X
   \   000133 C60000                LD        A, L:hours
   \   000136 97                    LD        XL, A
   \   000137 89                    PUSHW     X
   \   000138 AE0000                LDW       X, #`?<Constant "\\n%02d:%02d:%02d">`
   \   00013B 8D000000              CALLF     printf
   \   00013F 5B06                  ADD       SP, #0x6
    564                 minutes=adj(0,59,minutes);
   \   000141 C60000                LD        A, L:minutes
   \   000144 8D000000              CALLF     ?Subroutine21
    565              } while (!key_ok_on());
   \                     ??CrossCallReturnLabel_144:
   \   000148 C70000                LD        L:minutes, A
   \   00014B 8D000000              CALLF     ?Subroutine28
   \                     ??CrossCallReturnLabel_90:
   \   00014F 27D8                  JREQ      L:??Set_Clock_5
    566          
    567              line_lcd=0;
   \   000151 725F0000              CLR       L:line_lcd
    568              printf("\nSeconds:");
   \   000155 AE0000                LDW       X, #`?<Constant "\\nSeconds:">`
   \   000158 8D000000              CALLF     printf
    569              do
    570              {
    571                line_lcd=1;
   \                     ??Set_Clock_6:
   \   00015C 8D000000              CALLF     ?Subroutine16
    572               printf("\n%02d:%02d:%02d",hours,minutes,seconds);
   \                     ??CrossCallReturnLabel_53:
   \   000160 89                    PUSHW     X
   \   000161 C60000                LD        A, L:minutes
   \   000164 97                    LD        XL, A
   \   000165 89                    PUSHW     X
   \   000166 C60000                LD        A, L:hours
   \   000169 97                    LD        XL, A
   \   00016A 89                    PUSHW     X
   \   00016B AE0000                LDW       X, #`?<Constant "\\n%02d:%02d:%02d">`
   \   00016E 8D000000              CALLF     printf
   \   000172 5B06                  ADD       SP, #0x6
    573                 seconds=adj(0,59,seconds);
   \   000174 C60000                LD        A, L:seconds
   \   000177 8D000000              CALLF     ?Subroutine21
    574              } while (!key_ok_on());
   \                     ??CrossCallReturnLabel_143:
   \   00017B C70000                LD        L:seconds, A
   \   00017E 8D000000              CALLF     ?Subroutine28
   \                     ??CrossCallReturnLabel_91:
   \   000182 27D8                  JREQ      L:??Set_Clock_6
    575          
    576                // Set parameter to DS1307 + time byte
    577                Set_DS1307();
   \   000184 8D000000              CALLF     Set_DS1307
    578          
    579                //bool k=Check_DS1307();
    580          
    581            return TRUE;
   \   000188 A601                  LD        A, #0x1
   \   00018A 87                    RETF
    582          }

   \                                 In section .far_func.text, align 1, keep-with-next
   \                     ?Subroutine21:
   \   000000 B700                  LD        S:?b1, A
   \   000002 353B0000              MOV       S:?b0, #0x3b
   \   000006                       REQUIRE ??Subroutine45_0
   \   000006                       ;               // Fall through to label ??Subroutine45_0

   \                                 In section .far_func.text, align 1, keep-with-next
   \                     ??Subroutine45_0:
   \   000000 4F                    CLR       A
   \   000001 AC000000              JPF       adj

   \                                 In section .far_func.text, align 1, keep-with-next
   \                     ?Subroutine18:
   \   000000 35010000              MOV       L:line_lcd, #0x1
   \   000004 C60000                LD        A, L:`date`
   \   000007 5F                    CLRW      X
   \   000008 97                    LD        XL, A
   \   000009 87                    RETF

   \                                 In section .far_func.text, align 1, keep-with-next
   \                     ?Subroutine8:
   \   000000 8D000000              CALLF     ?Subroutine36
   \                     ??CrossCallReturnLabel_105:
   \   000004 AE03E8                LDW       X, #0x3e8
   \   000007 8D000000              CALLF     Delay1
   \   00000B 725F0000              CLR       L:line_lcd
   \   00000F 87                    RETF
    583          
    584          

   \                                 In section .far_func.text, align 1, keep-with-next
    585          u8 adj(u8 min,u8 max,u8 now)
    586          {
   \                     adj:
   \   000000 8D000000              CALLF     L:?push_w4
   \   000004 3B0000                PUSH      S:?b10
   \   000007 B700                  LD        S:?b10, A
   \   000009 450000                MOV       S:?b8, S:?b0
   \   00000C 450000                MOV       S:?b9, S:?b1
    587             u8 adj=now;
    588             if (key_plus_on()) adj ++;
   \   00000F 8D000000              CALLF     key_plus_on
   \   000013 A100                  CP        A, #0x0
   \   000015 2705                  JREQ      L:??adj_0
   \   000017 B600                  LD        A, S:?b9
   \   000019 4C                    INC       A
   \   00001A B700                  LD        S:?b9, A
    589             if (adj >max) adj = min;
   \                     ??adj_0:
   \   00001C B600                  LD        A, S:?b8
   \   00001E B100                  CP        A, S:?b9
   \   000020 2403                  JRNC      L:??adj_1
   \   000022 450000                MOV       S:?b9, S:?b10
    590             if (key_minus_on()) adj --;
   \                     ??adj_1:
   \   000025 8D000000              CALLF     key_minus_on
   \   000029 A100                  CP        A, #0x0
   \   00002B 2705                  JREQ      L:??adj_2
   \   00002D B600                  LD        A, S:?b9
   \   00002F 4A                    DEC       A
   \   000030 B700                  LD        S:?b9, A
    591             if ( adj == 255) adj=max;
   \                     ??adj_2:
   \   000032 B600                  LD        A, S:?b9
   \   000034 A1FF                  CP        A, #0xff
   \   000036 2603                  JRNE      L:??adj_3
   \   000038 450000                MOV       S:?b9, S:?b8
    592             if (adj < min) adj=max;
   \                     ??adj_3:
   \   00003B B600                  LD        A, S:?b9
   \   00003D B100                  CP        A, S:?b10
   \   00003F 2403                  JRNC      L:??adj_4
   \   000041 450000                MOV       S:?b9, S:?b8
    593             return adj ;
   \                     ??adj_4:
   \   000044 B600                  LD        A, S:?b9
   \   000046 320000                POP       S:?b10
   \   000049 AC000000              JPF       L:?epilogue_w4
    594          }
    595          
    596          

   \                                 In section .far_func.text, align 1, keep-with-next
    597          bool key_ok_on()
    598          {
    599            //Read Key OK
    600            if (!(GPIO_ReadInputData(GPIOF)& key_ok))
   \                     key_ok_on:
   \   000000 8D000000              CALLF     ?Subroutine38
   \                     ??CrossCallReturnLabel_113:
   \   000004 A510                  BCP       A, #0x10
   \   000006 261F                  JRNE      L:??key_ok_on_0
    601             {
    602               timer2=0;  // Key must be push for timer2 time
   \   000008 5F                    CLRW      X
   \   000009 CF0000                LDW       L:timer2, X
    603                while((timer2 < key_time_ok) && !(GPIO_ReadInputData(GPIOF)& key_ok) );;
   \                     ??key_ok_on_1:
   \   00000C CE0000                LDW       X, L:timer2
   \   00000F A33A98                CPW       X, #0x3a98
   \   000012 2408                  JRNC      L:??key_ok_on_2
   \   000014 8D000000              CALLF     ?Subroutine38
   \                     ??CrossCallReturnLabel_112:
   \   000018 A510                  BCP       A, #0x10
   \   00001A 27F0                  JREQ      L:??key_ok_on_1
    604                  if (timer2>=key_time_ok) return TRUE;
   \                     ??key_ok_on_2:
   \   00001C CE0000                LDW       X, L:timer2
   \   00001F A33A98                CPW       X, #0x3a98
   \   000022 2503                  JRC       L:??key_ok_on_0
   \   000024 A601                  LD        A, #0x1
   \   000026 87                    RETF
    605             }
    606          
    607            return FALSE;
   \                     ??key_ok_on_0:
   \   000027 4F                    CLR       A
   \   000028 87                    RETF
    608          }

   \                                 In section .far_func.text, align 1, keep-with-next
   \                     ?Subroutine38:
   \   000000 AE5019                LDW       X, #0x5019
   \   000003 AC000000              JPF       GPIO_ReadInputData
    609          

   \                                 In section .far_func.text, align 1, keep-with-next
    610           bool key_plus_on()
    611          {
    612            //Read Key OK
    613              if (!(GPIO_ReadInputData(GPIOA)& key_plus))
   \                     key_plus_on:
   \   000000 8D000000              CALLF     ?Subroutine26
   \                     ??CrossCallReturnLabel_75:
   \   000004 A502                  BCP       A, #0x2
   \   000006 261B                  JRNE      L:??key_plus_on_0
    614               {
    615               timer2=0;  // Key must be push for timer2 time
   \   000008 5F                    CLRW      X
   \   000009 CF0000                LDW       L:timer2, X
    616                while((timer2 < key_time) && !(GPIO_ReadInputData(GPIOA)& key_plus) );;
   \                     ??key_plus_on_1:
   \   00000C 8D000000              CALLF     ?Subroutine5
   \                     ??CrossCallReturnLabel_14:
   \   000010 2408                  JRNC      L:??key_plus_on_2
   \   000012 8D000000              CALLF     ?Subroutine26
   \                     ??CrossCallReturnLabel_74:
   \   000016 A502                  BCP       A, #0x2
   \   000018 27F2                  JREQ      L:??key_plus_on_1
    617                  if (timer2>=key_time) return TRUE;
   \                     ??key_plus_on_2:
   \   00001A 8D000000              CALLF     ?Subroutine5
   \                     ??CrossCallReturnLabel_15:
   \   00001E 2503                  JRC       L:??key_plus_on_0
   \   000020 A601                  LD        A, #0x1
   \   000022 87                    RETF
    618               }
    619          
    620            return FALSE;
   \                     ??key_plus_on_0:
   \   000023 4F                    CLR       A
   \   000024 87                    RETF
    621          }

   \                                 In section .far_func.text, align 1, keep-with-next
   \                     ?Subroutine26:
   \   000000 AE5000                LDW       X, #0x5000
   \   000003 AC000000              JPF       GPIO_ReadInputData

   \                                 In section .far_func.text, align 1, keep-with-next
   \                     ?Subroutine5:
   \   000000 CE0000                LDW       X, L:timer2
   \   000003 A31F40                CPW       X, #0x1f40
   \   000006 87                    RETF
    622          

   \                                 In section .far_func.text, align 1, keep-with-next
    623            bool key_minus_on()
    624          {
    625            //Read Key OK
    626             if (!(GPIO_ReadInputData(GPIOA)& key_minus))
   \                     key_minus_on:
   \   000000 8D000000              CALLF     ?Subroutine26
   \                     ??CrossCallReturnLabel_77:
   \   000004 A504                  BCP       A, #0x4
   \   000006 261B                  JRNE      L:??key_minus_on_0
    627               {
    628               timer2=0;  // Key must be push for timer2 time
   \   000008 5F                    CLRW      X
   \   000009 CF0000                LDW       L:timer2, X
    629                while((timer2 < key_time) && !(GPIO_ReadInputData(GPIOA)& key_minus) );;
   \                     ??key_minus_on_1:
   \   00000C 8D000000              CALLF     ?Subroutine5
   \                     ??CrossCallReturnLabel_12:
   \   000010 2408                  JRNC      L:??key_minus_on_2
   \   000012 8D000000              CALLF     ?Subroutine26
   \                     ??CrossCallReturnLabel_76:
   \   000016 A504                  BCP       A, #0x4
   \   000018 27F2                  JREQ      L:??key_minus_on_1
    630                  if (timer2>=key_time) return TRUE;
   \                     ??key_minus_on_2:
   \   00001A 8D000000              CALLF     ?Subroutine5
   \                     ??CrossCallReturnLabel_13:
   \   00001E 2503                  JRC       L:??key_minus_on_0
   \   000020 A601                  LD        A, #0x1
   \   000022 87                    RETF
    631               }
    632          
    633            return FALSE;
   \                     ??key_minus_on_0:
   \   000023 4F                    CLR       A
   \   000024 87                    RETF
    634          }
    635          
    636          

   \                                 In section .far_func.text, align 1, keep-with-next
    637          bool  key_ok_plus()
    638          {
   \                     key_ok_plus:
   \   000000 3B0000                PUSH      S:?b8
    639            if (!((GPIO_ReadInputData(GPIOF)& key_ok)|(GPIO_ReadInputData(GPIOA)& key_plus)))
   \   000003 8D000000              CALLF     ?Subroutine13
   \                     ??CrossCallReturnLabel_42:
   \   000007 261A                  JRNE      L:??key_ok_plus_0
    640            {
    641                timer2=0;  // Key must be push for timer2 time
   \   000009 5F                    CLRW      X
   \   00000A CF0000                LDW       L:timer2, X
    642                while((timer2 < key_time) && !((GPIO_ReadInputData(GPIOF)& key_ok)|(GPIO_ReadInputData(GPIOA)& key_plus)));;
   \                     ??key_ok_plus_1:
   \   00000D 8D000000              CALLF     ?Subroutine5
   \                     ??CrossCallReturnLabel_16:
   \   000011 2406                  JRNC      L:??key_ok_plus_2
   \   000013 8D000000              CALLF     ?Subroutine13
   \                     ??CrossCallReturnLabel_43:
   \   000017 27F4                  JREQ      L:??key_ok_plus_1
    643                 if (timer2>=key_time) return TRUE;
   \                     ??key_ok_plus_2:
   \   000019 8D000000              CALLF     ?Subroutine5
   \                     ??CrossCallReturnLabel_17:
   \   00001D 2504                  JRC       L:??key_ok_plus_0
   \   00001F A601                  LD        A, #0x1
   \   000021 2001                  JRA       L:??key_ok_plus_3
    644            }
    645          
    646           return FALSE;
   \                     ??key_ok_plus_0:
   \   000023 4F                    CLR       A
   \                     ??key_ok_plus_3:
   \   000024 320000                POP       S:?b8
   \   000027 87                    RETF
    647          }

   \                                 In section .far_func.text, align 1, keep-with-next
   \                     ?Subroutine13:
   \   000000 8D000000              CALLF     ?Subroutine38
   \                     ??CrossCallReturnLabel_111:
   \   000004 B700                  LD        S:?b8, A
   \   000006 AE5000                LDW       X, #0x5000
   \   000009 8D000000              CALLF     GPIO_ReadInputData
   \   00000D A402                  AND       A, #0x2
   \   00000F 88                    PUSH      A
   \   000010 B600                  LD        A, S:?b8
   \   000012 A410                  AND       A, #0x10
   \   000014 B700                  LD        S:?b1, A
   \   000016 84                    POP       A
   \   000017 BA00                  OR        A, S:?b1
   \   000019 87                    RETF
    648          
    649          

   \                                 In section .far_func.text, align 1, keep-with-next
    650          bool Set_Delay_Allarm()
    651          {
    652          
    653             //clr
    654             LCDInstr(0x01);
   \                     Set_Delay_Allarm:
   \   000000 8D000000              CALLF     ?Subroutine8
    655             Delay1(1000);
    656             line_lcd=0;
    657             printf("\nH On:");
   \                     ??CrossCallReturnLabel_20:
   \   000004 AE0000                LDW       X, #`?<Constant "\\nH On:">`
   \   000007 8D000000              CALLF     printf
    658            do
    659              {
    660               line_lcd=1;
   \                     ??Set_Delay_Allarm_0:
   \   00000B 35010000              MOV       L:line_lcd, #0x1
    661               printf("\n%02d:%02d",daily_hour_on,daily_minute_on);
   \   00000F C60000                LD        A, L:daily_minute_on
   \   000012 5F                    CLRW      X
   \   000013 97                    LD        XL, A
   \   000014 89                    PUSHW     X
   \   000015 C60000                LD        A, L:daily_hour_on
   \   000018 97                    LD        XL, A
   \   000019 89                    PUSHW     X
   \   00001A AE0000                LDW       X, #`?<Constant "\\n%02d:%02d">`
   \   00001D 8D000000              CALLF     printf
   \   000021 5B04                  ADD       SP, #0x4
    662                 daily_hour_on=adj(0,23,daily_hour_on);
   \   000023 C60000                LD        A, L:daily_hour_on
   \   000026 B700                  LD        S:?b1, A
   \   000028 35170000              MOV       S:?b0, #0x17
   \   00002C 8D000000              CALLF     ??Subroutine45_0
    663              } while (!key_ok_on());
   \                     ??CrossCallReturnLabel_142:
   \   000030 C70000                LD        L:daily_hour_on, A
   \   000033 8D000000              CALLF     ?Subroutine28
   \                     ??CrossCallReturnLabel_80:
   \   000037 27D2                  JREQ      L:??Set_Delay_Allarm_0
    664          
    665             LCDInstr(0x01);
   \   000039 8D000000              CALLF     ?Subroutine8
    666             Delay1(1000);
    667             line_lcd=0;
    668             printf("\nMin On:");
   \                     ??CrossCallReturnLabel_21:
   \   00003D AE0000                LDW       X, #`?<Constant "\\nMin On:">`
   \   000040 8D000000              CALLF     printf
    669            do
    670              {
    671               line_lcd=1;
   \                     ??Set_Delay_Allarm_1:
   \   000044 35010000              MOV       L:line_lcd, #0x1
    672               printf("\n%02d:%02d",daily_hour_on,daily_minute_on);
   \   000048 C60000                LD        A, L:daily_minute_on
   \   00004B 5F                    CLRW      X
   \   00004C 97                    LD        XL, A
   \   00004D 89                    PUSHW     X
   \   00004E C60000                LD        A, L:daily_hour_on
   \   000051 97                    LD        XL, A
   \   000052 89                    PUSHW     X
   \   000053 AE0000                LDW       X, #`?<Constant "\\n%02d:%02d">`
   \   000056 8D000000              CALLF     printf
   \   00005A 5B04                  ADD       SP, #0x4
    673                 daily_minute_on=adj(0,59,daily_minute_on);
   \   00005C C60000                LD        A, L:daily_minute_on
   \   00005F 8D000000              CALLF     ?Subroutine21
    674              } while (!key_ok_on());
   \                     ??CrossCallReturnLabel_146:
   \   000063 C70000                LD        L:daily_minute_on, A
   \   000066 8D000000              CALLF     ?Subroutine28
   \                     ??CrossCallReturnLabel_81:
   \   00006A 27D8                  JREQ      L:??Set_Delay_Allarm_1
    675          
    676              LCDInstr(0x01);
   \   00006C 8D000000              CALLF     ?Subroutine8
    677              Delay1(1000);
    678              line_lcd=0;
    679              printf("\nH Off:");
   \                     ??CrossCallReturnLabel_22:
   \   000070 AE0000                LDW       X, #`?<Constant "\\nH Off:">`
   \   000073 8D000000              CALLF     printf
    680            do
    681              {
    682               line_lcd=1;
   \                     ??Set_Delay_Allarm_2:
   \   000077 35010000              MOV       L:line_lcd, #0x1
    683               printf("\n%02d:%02d",daily_hour_off,daily_minute_off);
   \   00007B C60000                LD        A, L:daily_minute_off
   \   00007E 5F                    CLRW      X
   \   00007F 97                    LD        XL, A
   \   000080 89                    PUSHW     X
   \   000081 C60000                LD        A, L:daily_hour_off
   \   000084 97                    LD        XL, A
   \   000085 89                    PUSHW     X
   \   000086 AE0000                LDW       X, #`?<Constant "\\n%02d:%02d">`
   \   000089 8D000000              CALLF     printf
   \   00008D 5B04                  ADD       SP, #0x4
    684                 daily_hour_off=adj(0,23,daily_hour_off);
   \   00008F C60000                LD        A, L:daily_hour_off
   \   000092 B700                  LD        S:?b1, A
   \   000094 35170000              MOV       S:?b0, #0x17
   \   000098 8D000000              CALLF     ??Subroutine45_0
    685              } while (!key_ok_on());
   \                     ??CrossCallReturnLabel_141:
   \   00009C C70000                LD        L:daily_hour_off, A
   \   00009F 8D000000              CALLF     ?Subroutine28
   \                     ??CrossCallReturnLabel_82:
   \   0000A3 27D2                  JREQ      L:??Set_Delay_Allarm_2
    686          
    687            LCDInstr(0x01);
   \   0000A5 8D000000              CALLF     ?Subroutine8
    688             Delay1(1000);
    689             line_lcd=0;
    690             printf("\nMin Off:");
   \                     ??CrossCallReturnLabel_23:
   \   0000A9 AE0000                LDW       X, #`?<Constant "\\nMin Off:">`
   \   0000AC 8D000000              CALLF     printf
    691            do
    692              {
    693               line_lcd=1;
   \                     ??Set_Delay_Allarm_3:
   \   0000B0 35010000              MOV       L:line_lcd, #0x1
    694               printf("\n%02d:%02d",daily_hour_off,daily_minute_off);
   \   0000B4 C60000                LD        A, L:daily_minute_off
   \   0000B7 5F                    CLRW      X
   \   0000B8 97                    LD        XL, A
   \   0000B9 89                    PUSHW     X
   \   0000BA C60000                LD        A, L:daily_hour_off
   \   0000BD 97                    LD        XL, A
   \   0000BE 89                    PUSHW     X
   \   0000BF AE0000                LDW       X, #`?<Constant "\\n%02d:%02d">`
   \   0000C2 8D000000              CALLF     printf
   \   0000C6 5B04                  ADD       SP, #0x4
    695                 daily_minute_off=adj(0,59,daily_minute_off);
   \   0000C8 C60000                LD        A, L:daily_minute_off
   \   0000CB 8D000000              CALLF     ?Subroutine21
    696              } while (!key_ok_on());
   \                     ??CrossCallReturnLabel_145:
   \   0000CF C70000                LD        L:daily_minute_off, A
   \   0000D2 8D000000              CALLF     ?Subroutine28
   \                     ??CrossCallReturnLabel_83:
   \   0000D6 27D8                  JREQ      L:??Set_Delay_Allarm_3
    697          
    698               //Computing time_long_on
    699          
    700               u8 hour=daily_hour_on;
   \   0000D8 8D000000              CALLF     ?Subroutine27
    701               u8 minute=daily_minute_on;
    702               daily_long_on=0;
    703               do
    704               {
    705                    daily_long_on++;
   \                     ??CrossCallReturnLabel_79:
   \   0000DC 8D000000              CALLF     ?Subroutine11
    706                    minute++;
    707                    if (minute==60)
   \                     ??CrossCallReturnLabel_38:
   \   0000E0 2607                  JRNE      L:??Set_Delay_Allarm_4
    708                    {
    709                      minute=0;
   \   0000E2 3F00                  CLR       S:?b1
    710                      hour++;
   \   0000E4 B600                  LD        A, S:?b0
   \   0000E6 4C                    INC       A
   \   0000E7 B700                  LD        S:?b0, A
    711                    }
    712                    if(hour==24) hour=0;
   \                     ??Set_Delay_Allarm_4:
   \   0000E9 B600                  LD        A, S:?b0
   \   0000EB A118                  CP        A, #0x18
   \   0000ED 2602                  JRNE      L:??Set_Delay_Allarm_5
   \   0000EF 3F00                  CLR       S:?b0
    713          
    714               } while ( !((hour==daily_hour_off) & (minute==daily_minute_off)));
   \                     ??Set_Delay_Allarm_5:
   \   0000F1 C60000                LD        A, L:daily_hour_off
   \   0000F4 B100                  CP        A, S:?b0
   \   0000F6 26E4                  JRNE      L:??CrossCallReturnLabel_79
   \   0000F8 C60000                LD        A, L:daily_minute_off
   \   0000FB B100                  CP        A, S:?b1
   \   0000FD 26DD                  JRNE      L:??CrossCallReturnLabel_79
    715          
    716                //Display daily_long_on
    717              LCDInstr(0x01);
   \   0000FF 8D000000              CALLF     ?Subroutine8
    718              Delay1(1000);
    719              line_lcd=0;
    720              printf("\nLong :");
   \                     ??CrossCallReturnLabel_24:
   \   000103 AE0000                LDW       X, #`?<Constant "\\nLong :">`
   \   000106 8D000000              CALLF     printf
    721          
    722                do
    723              {
    724               line_lcd=1;
   \                     ??Set_Delay_Allarm_6:
   \   00010A 35010000              MOV       L:line_lcd, #0x1
    725               printf("\n%d",daily_long_on);
   \   00010E 3B0000                PUSH      L:daily_long_on + 1
   \   000111 3B0000                PUSH      L:daily_long_on
   \   000114 AE0000                LDW       X, #`?<Constant "\\n%d">`
   \   000117 8D000000              CALLF     printf
   \   00011B 5B02                  ADD       SP, #0x2
    726                 //daily_long_on=adj(0,1440,daily_long_on);
    727              } while (!key_ok_on());
   \   00011D 8D000000              CALLF     ?Subroutine28
   \                     ??CrossCallReturnLabel_84:
   \   000121 27E7                  JREQ      L:??Set_Delay_Allarm_6
    728          
    729              time_on=daily_hour_on*60+daily_minute_on;
   \   000123 8D000000              CALLF     ?Subroutine1
    730              time_off= daily_hour_off*60+daily_minute_off;
    731              //Save data to eeprom
    732               EEPROM_INIT();
   \                     ??CrossCallReturnLabel_0:
   \   000127 8D000000              CALLF     EEPROM_INIT
    733               FLASH_ProgramByte(EEPROM_ADDR,daily_hour_on);
   \   00012B C60000                LD        A, L:daily_hour_on
   \   00012E AE4000                LDW       X, #0x4000
   \   000131 8D000000              CALLF     ?Subroutine4
    734               FLASH_ProgramByte(EEPROM_ADDR+1,daily_minute_on);
   \                     ??CrossCallReturnLabel_11:
   \   000135 C60000                LD        A, L:daily_minute_on
   \   000138 AE4001                LDW       X, #0x4001
   \   00013B 8D000000              CALLF     ?Subroutine4
    735               FLASH_ProgramByte(EEPROM_ADDR+2,daily_hour_off);
   \                     ??CrossCallReturnLabel_10:
   \   00013F C60000                LD        A, L:daily_hour_off
   \   000142 AE4002                LDW       X, #0x4002
   \   000145 8D000000              CALLF     ?Subroutine4
    736               FLASH_ProgramByte(EEPROM_ADDR+3,daily_minute_off);
   \                     ??CrossCallReturnLabel_9:
   \   000149 C60000                LD        A, L:daily_minute_off
   \   00014C AE4003                LDW       X, #0x4003
   \   00014F 8D000000              CALLF     ?Subroutine4
    737          
    738             return TRUE;
   \                     ??CrossCallReturnLabel_8:
   \   000153 A601                  LD        A, #0x1
   \   000155 87                    RETF
    739          
    740          }

   \                                 In section .far_func.text, align 1, keep-with-next
   \                     ?Subroutine27:
   \   000000 C60000                LD        A, L:daily_hour_on
   \   000003 B700                  LD        S:?b0, A
   \   000005 C60000                LD        A, L:daily_minute_on
   \   000008 B700                  LD        S:?b1, A
   \   00000A 5F                    CLRW      X
   \   00000B CF0000                LDW       L:daily_long_on, X
   \   00000E 87                    RETF

   \                                 In section .far_func.text, align 1, keep-with-next
   \                     ?Subroutine11:
   \   000000 CE0000                LDW       X, L:daily_long_on
   \   000003 5C                    INCW      X
   \   000004 CF0000                LDW       L:daily_long_on, X
   \   000007 B600                  LD        A, S:?b1
   \   000009 4C                    INC       A
   \   00000A B700                  LD        S:?b1, A
   \   00000C A13C                  CP        A, #0x3c
   \   00000E 87                    RETF

   \                                 In section .far_func.text, align 1, keep-with-next
   \                     ?Subroutine4:
   \   000000 BF00                  LDW       S:?w1, X
   \   000002 5F                    CLRW      X
   \   000003 BF00                  LDW       S:?w0, X
   \   000005 AC000000              JPF       FLASH_ProgramByte
    741          

   \                                 In section .far_func.text, align 1, keep-with-next
    742          bool Read_Allarm()
    743          {
    744             daily_hour_on=FLASH_ReadByte(EEPROM_ADDR);
   \                     Read_Allarm:
   \   000000 AE4000                LDW       X, #0x4000
   \   000003 8D000000              CALLF     ?Subroutine3
   \                     ??CrossCallReturnLabel_7:
   \   000007 C70000                LD        L:daily_hour_on, A
    745             daily_minute_on=FLASH_ReadByte(EEPROM_ADDR+1);
   \   00000A AE4001                LDW       X, #0x4001
   \   00000D 8D000000              CALLF     ?Subroutine3
   \                     ??CrossCallReturnLabel_6:
   \   000011 C70000                LD        L:daily_minute_on, A
    746             daily_hour_off=FLASH_ReadByte(EEPROM_ADDR+2);
   \   000014 AE4002                LDW       X, #0x4002
   \   000017 8D000000              CALLF     ?Subroutine3
   \                     ??CrossCallReturnLabel_5:
   \   00001B C70000                LD        L:daily_hour_off, A
    747             daily_minute_off=FLASH_ReadByte(EEPROM_ADDR+3);
   \   00001E AE4003                LDW       X, #0x4003
   \   000021 8D000000              CALLF     ?Subroutine3
   \                     ??CrossCallReturnLabel_4:
   \   000025 C70000                LD        L:daily_minute_off, A
    748               // Computting daily_long_on
    749               u8 hour=daily_hour_on;
   \   000028 8D000000              CALLF     ?Subroutine27
    750               u8 minute=daily_minute_on;
    751               daily_long_on=0;
    752               do
    753               {
    754                    daily_long_on++;
   \                     ??CrossCallReturnLabel_78:
   \   00002C 8D000000              CALLF     ?Subroutine11
    755                    minute++;
    756                    if (minute==60)
   \                     ??CrossCallReturnLabel_37:
   \   000030 2607                  JRNE      L:??Read_Allarm_0
    757                    {
    758                      minute=0;
   \   000032 3F00                  CLR       S:?b1
    759                      hour++;
   \   000034 B600                  LD        A, S:?b0
   \   000036 4C                    INC       A
   \   000037 B700                  LD        S:?b0, A
    760                    }
    761                    if(hour==24) hour=0;
   \                     ??Read_Allarm_0:
   \   000039 B600                  LD        A, S:?b0
   \   00003B A118                  CP        A, #0x18
   \   00003D 2602                  JRNE      L:??Read_Allarm_1
   \   00003F 3F00                  CLR       S:?b0
    762          
    763               } while ( !((hour==daily_hour_off) & (minute==daily_minute_off)));
   \                     ??Read_Allarm_1:
   \   000041 C60000                LD        A, L:daily_hour_off
   \   000044 B100                  CP        A, S:?b0
   \   000046 26E4                  JRNE      L:??CrossCallReturnLabel_78
   \   000048 C60000                LD        A, L:daily_minute_off
   \   00004B B100                  CP        A, S:?b1
   \   00004D 26DD                  JRNE      L:??CrossCallReturnLabel_78
    764          
    765            return TRUE;
   \   00004F A601                  LD        A, #0x1
   \   000051 87                    RETF
    766          }

   \                                 In section .far_func.text, align 1, keep-with-next
   \                     ?Subroutine3:
   \   000000 BF00                  LDW       S:?w1, X
   \   000002 5F                    CLRW      X
   \   000003 BF00                  LDW       S:?w0, X
   \   000005 AC000000              JPF       FLASH_ReadByte
    767          

   \                                 In section .far_func.text, align 1, keep-with-next
    768          void EEPROM_INIT()
    769          {
    770            FLASH_DeInit();
   \                     EEPROM_INIT:
   \   000000 8D000000              CALLF     FLASH_DeInit
    771            FLASH_Unlock(FLASH_MEMTYPE_DATA);
   \   000004 A6F7                  LD        A, #0xf7
   \   000006 8D000000              CALLF     FLASH_Unlock
    772            FLASH_SetProgrammingTime(FLASH_PROGRAMTIME_STANDARD);
   \   00000A 4F                    CLR       A
   \   00000B AC000000              JPF       FLASH_SetProgrammingTime
    773          
    774          
    775          
    776          }
    777          
    778          

   \                                 In section .far_func.text, align 1, keep-with-next
    779          void GpioConfiguration()
    780          {
    781          
    782            GPIO_Init(LCD_PORT,(GPIO_Pin_TypeDef)LCD_GPIO_PIN,GPIO_MODE_OUT_PP_HIGH_FAST);
   \                     GpioConfiguration:
   \   000000 35F00000              MOV       S:?b0, #0xf0
   \   000004 A6FE                  LD        A, #0xfe
   \   000006 AE500A                LDW       X, #0x500a
   \   000009 8D000000              CALLF     GPIO_Init
    783          
    784            // ADC PE6 NEW PB0
    785            GPIO_Init(GPIOB,GPIO_PIN_0,GPIO_MODE_IN_FL_NO_IT);
   \   00000D 3F00                  CLR       S:?b0
   \   00000F A601                  LD        A, #0x1
   \   000011 8D000000              CALLF     ?Subroutine24
    786          
    787            // PD6/UART2_RX   PD5/UART2_TX  No need to init  PD7 485 R/W;
    788            GPIO_Init(GPIOD,GPIO_PIN_7,GPIO_MODE_OUT_PP_HIGH_FAST);
   \                     ??CrossCallReturnLabel_71:
   \   000015 35F00000              MOV       S:?b0, #0xf0
   \   000019 A680                  LD        A, #0x80
   \   00001B AE500F                LDW       X, #0x500f
   \   00001E 8D000000              CALLF     GPIO_Init
    789          
    790            //PD0 Led
    791            GPIO_Init(GPIOD,GPIO_PIN_0,GPIO_MODE_OUT_PP_HIGH_FAST);
   \   000022 35F00000              MOV       S:?b0, #0xf0
   \   000026 A601                  LD        A, #0x1
   \   000028 AE500F                LDW       X, #0x500f
   \   00002B 8D000000              CALLF     GPIO_Init
    792            //I2C
    793            GPIO_Init(GPIOB,GPIO_PIN_4 ,GPIO_MODE_OUT_OD_HIZ_FAST);
   \   00002F 35B00000              MOV       S:?b0, #0xb0
   \   000033 A610                  LD        A, #0x10
   \   000035 8D000000              CALLF     ?Subroutine24
    794            GPIO_Init(GPIOB,GPIO_PIN_5 ,GPIO_MODE_OUT_OD_HIZ_FAST);
   \                     ??CrossCallReturnLabel_70:
   \   000039 35B00000              MOV       S:?b0, #0xb0
   \   00003D A620                  LD        A, #0x20
   \   00003F 8D000000              CALLF     ?Subroutine24
    795            // Remap Pins pb4,pb5  sda,scl ;
    796          
    797             //Init KEY OK,PLUS,MINUS
    798            GPIO_Init(GPIOF,key_ok,GPIO_MODE_IN_PU_NO_IT);
   \                     ??CrossCallReturnLabel_69:
   \   000043 35400000              MOV       S:?b0, #0x40
   \   000047 A610                  LD        A, #0x10
   \   000049 AE5019                LDW       X, #0x5019
   \   00004C 8D000000              CALLF     GPIO_Init
    799            GPIO_Init(GPIOA,key_plus,GPIO_MODE_IN_PU_NO_IT);
   \   000050 35400000              MOV       S:?b0, #0x40
   \   000054 A602                  LD        A, #0x2
   \   000056 8D000000              CALLF     ?Subroutine25
    800            GPIO_Init(GPIOA,key_minus,GPIO_MODE_IN_PU_NO_IT);
   \                     ??CrossCallReturnLabel_72:
   \   00005A 8D000000              CALLF     ?Subroutine25
    801          
    802            //Init DS18b20 data pin
    803            GPIO_Init(GPIOD,ds18_data,GPIO_MODE_IN_PU_NO_IT);
   \                     ??CrossCallReturnLabel_73:
   \   00005E AE500F                LDW       X, #0x500f
   \   000061 AC000000              JPF       GPIO_Init
    804          
    805          }

   \                                 In section .far_func.text, align 1, keep-with-next
   \                     ?Subroutine25:
   \   000000 AE5000                LDW       X, #0x5000
   \   000003 8D000000              CALLF     GPIO_Init
   \   000007 35400000              MOV       S:?b0, #0x40
   \   00000B A604                  LD        A, #0x4
   \   00000D 87                    RETF

   \                                 In section .far_func.text, align 1, keep-with-next
   \                     ?Subroutine24:
   \   000000 AE5005                LDW       X, #0x5005
   \   000003 AC000000              JPF       GPIO_Init
    806          

   \                                 In section .far_func.text, align 1, keep-with-next
    807          void InitClk()
    808          {
    809            CLK_DeInit();
   \                     InitClk:
   \   000000 8D000000              CALLF     CLK_DeInit
    810            CLK_SYSCLKConfig(CLK_PRESCALER_CPUDIV1);    // CPU Prescalar = 1.
   \   000004 A680                  LD        A, #0x80
   \   000006 8D000000              CALLF     CLK_SYSCLKConfig
    811            CLK_SYSCLKConfig(CLK_PRESCALER_HSIDIV1);    // Prescalar = 1, 16 MHz.
   \   00000A 4F                    CLR       A
   \   00000B 8D000000              CALLF     CLK_SYSCLKConfig
    812            CLK_ClockSwitchConfig(CLK_SWITCHMODE_AUTO,  // Automatically switch
    813            CLK_SOURCE_HSI,       // Switch to internal timer.
    814            DISABLE,              // Disable the clock switch interrupt.
    815            CLK_CURRENTCLOCKSTATE_DISABLE);   // Disable the previous clock.
   \   00000F 3F00                  CLR       S:?b2
   \   000011 3F00                  CLR       S:?b1
   \   000013 35E10000              MOV       S:?b0, #0xe1
   \   000017 A601                  LD        A, #0x1
   \   000019 8D000000              CALLF     CLK_ClockSwitchConfig
    816          
    817            CLK_PeripheralClockConfig(CLK_PERIPHERAL_TIMER2 , ENABLE);
   \   00001D 35010000              MOV       S:?b0, #0x1
   \   000021 A605                  LD        A, #0x5
   \   000023 8D000000              CALLF     ?Subroutine23
    818            CLK_PeripheralClockConfig(CLK_PERIPHERAL_UART2,ENABLE);
   \                     ??CrossCallReturnLabel_66:
   \   000027 A603                  LD        A, #0x3
   \   000029 8D000000              CALLF     ?Subroutine23
    819            CLK_PeripheralClockConfig(CLK_PERIPHERAL_ADC,ENABLE);
   \                     ??CrossCallReturnLabel_67:
   \   00002D A613                  LD        A, #0x13
   \   00002F 8D000000              CALLF     ?Subroutine23
    820            CLK_PeripheralClockConfig(CLK_PERIPHERAL_I2C,ENABLE);
   \                     ??CrossCallReturnLabel_68:
   \   000033 4F                    CLR       A
   \   000034 AC000000              JPF       CLK_PeripheralClockConfig
    821          
    822          
    823          }

   \                                 In section .far_func.text, align 1, keep-with-next
   \                     ?Subroutine23:
   \   000000 8D000000              CALLF     CLK_PeripheralClockConfig
   \   000004 35010000              MOV       S:?b0, #0x1
   \   000008 87                    RETF
    824          
    825          

   \                                 In section .far_func.text, align 1, keep-with-next
    826          void InitAdc()
    827          {
    828               ADC1_DeInit();
   \                     InitAdc:
   \   000000 8D000000              CALLF     ADC1_DeInit
    829               ADC1_StartConversion();
   \   000004 8D000000              CALLF     ADC1_StartConversion
    830               /*
    831               ADC1_Init(ADC1_CONVERSIONMODE_SINGLE,
    832                          ADC1_CHANNEL_0,
    833                          ADC1_PRESSEL_FCPU_D4,
    834                           ADC1_EXTTRIG_TIM,
    835          
    836                 */
    837               ADC1_PrescalerConfig(ADC1_PRESSEL_FCPU_D3);
   \   000008 A610                  LD        A, #0x10
   \   00000A 8D000000              CALLF     ADC1_PrescalerConfig
    838               ADC1_ConversionConfig( ADC1_CONVERSIONMODE_SINGLE,
    839                                      ADC1_CHANNEL_0,
    840                                      ADC1_ALIGN_RIGHT
    841                                     );
   \   00000E 35080000              MOV       S:?b1, #0x8
   \   000012 3F00                  CLR       S:?b0
   \   000014 4F                    CLR       A
   \   000015 8D000000              CALLF     ADC1_ConversionConfig
    842          
    843          
    844               ADC1_SchmittTriggerConfig(ADC1_SCHMITTTRIG_CHANNEL0,DISABLE);
   \   000019 3F00                  CLR       S:?b0
   \   00001B 4F                    CLR       A
   \   00001C 8D000000              CALLF     ADC1_SchmittTriggerConfig
    845          
    846          
    847               //ADC1_Cmd (ENABLE);
    848               //ADC1->CR1 |= ADC1_CR1_ADON ;
    849               ADC1_StartConversion();
   \   000020 8D000000              CALLF     ADC1_StartConversion
    850               ADC1_ITConfig (ADC1_IT_EOCIE,ENABLE);
   \   000024 A601                  LD        A, #0x1
   \   000026 AE0020                LDW       X, #0x20
   \   000029 AC000000              JPF       ADC1_ITConfig
    851          
    852          }
    853          
    854          /*
    855          void InitUart()
    856          {
    857             UART2_DeInit();
    858             UART2_Init((u32)9600,
    859                        UART2_WORDLENGTH_8D,
    860                        UART2_STOPBITS_1,
    861                        UART2_PARITY_NO,
    862                        UART2_SYNCMODE_CLOCK_DISABLE,
    863                        UART2_MODE_TXRX_ENABLE
    864                          );
    865          
    866             UART2_ITConfig( UART2_IT_RXNE,ENABLE);
    867             UART2_Cmd(ENABLE);
    868          
    869            // UART2_ITConfig(UART2_IT_RXNE,ENABLE);
    870          }
    871            */
    872          

   \                                 In section .far_func.text, align 1, keep-with-next
    873          void SendChar( u8 Char)
    874          {
    875             UART2->DR = Char;
   \                     SendChar:
   \   000000 C75241                LD        L:0x5241, A
    876            while (UART2_GetFlagStatus(UART2_FLAG_TXE) == RESET);;
   \                     ??SendChar_0:
   \   000003 AE0080                LDW       X, #0x80
   \   000006 8D000000              CALLF     UART2_GetFlagStatus
   \   00000A A100                  CP        A, #0x0
   \   00000C 27F5                  JREQ      L:??SendChar_0
    877          }
   \   00000E 87                    RETF
    878            /*
    879          void Send_Hello()
    880          {
    881            GPIO_WriteHigh(GPIOD,GPIO_PIN_7); //R_W Line
    882             Delay1(10);
    883             sprintf(data,"Hello");
    884              u8 i=0;
    885            do
    886           {
    887            SendChar(data[i++]);
    888           } while (data[i]!=0);
    889            while (UART2_GetFlagStatus(UART2_FLAG_TC) == RESET);;  //Wait to send last byte
    890            GPIO_WriteLow(GPIOD,GPIO_PIN_7); //R_W Line
    891          
    892          
    893          
    894          }
    895              */
    896          
    897          
    898              /*
    899          
    900          void SendData()
    901          {
    902           GPIO_WriteHigh(GPIOD,GPIO_PIN_7); //R_W Line
    903            Delay1(10);
    904            u8 i=0;
    905            sprintf(data,"%d %c",adcdata,0x0d);
    906           do
    907           {
    908             SendChar(data[i++]);
    909          
    910           } while (data[i]!=0);
    911             while (UART2_GetFlagStatus(UART2_FLAG_TC) == RESET);;  //Wait to send last byte
    912            GPIO_WriteLow(GPIOD,GPIO_PIN_7); //R_W Line
    913            rx_data=0;
    914          }
    915          */
    916          

   \                                 In section .far_func.text, align 1, keep-with-next
    917          void LCDDataOut(u8 data)
    918          {
   \                     LCDDataOut:
   \   000000 3B0000                PUSH      S:?b8
   \   000003 B700                  LD        S:?b8, A
    919            (data&0x1)? GPIO_WriteHigh(LCD_PORT,DATA4):GPIO_WriteLow(LCD_PORT,DATA4);
   \   000005 A501                  BCP       A, #0x1
   \   000007 2708                  JREQ      L:??LCDDataOut_0
   \   000009 A610                  LD        A, #0x10
   \   00000B 8D000000              CALLF     ?Subroutine9
   \                     ??CrossCallReturnLabel_34:
   \   00000F 2006                  JRA       L:??CrossCallReturnLabel_128
   \                     ??LCDDataOut_0:
   \   000011 A610                  LD        A, #0x10
   \   000013 8D000000              CALLF     ??Subroutine43_0
    920            (data&0x2)? GPIO_WriteHigh(LCD_PORT,DATA5):GPIO_WriteLow(LCD_PORT,DATA5);
   \                     ??CrossCallReturnLabel_128:
   \   000017 B600                  LD        A, S:?b8
   \   000019 A502                  BCP       A, #0x2
   \   00001B 2708                  JREQ      L:??LCDDataOut_1
   \   00001D A620                  LD        A, #0x20
   \   00001F 8D000000              CALLF     ?Subroutine9
   \                     ??CrossCallReturnLabel_33:
   \   000023 2006                  JRA       L:??CrossCallReturnLabel_129
   \                     ??LCDDataOut_1:
   \   000025 A620                  LD        A, #0x20
   \   000027 8D000000              CALLF     ??Subroutine43_0
    921            (data&0x4)? GPIO_WriteHigh(LCD_PORT,DATA6):GPIO_WriteLow(LCD_PORT,DATA6);
   \                     ??CrossCallReturnLabel_129:
   \   00002B B600                  LD        A, S:?b8
   \   00002D A504                  BCP       A, #0x4
   \   00002F 2708                  JREQ      L:??LCDDataOut_2
   \   000031 A640                  LD        A, #0x40
   \   000033 8D000000              CALLF     ?Subroutine9
   \                     ??CrossCallReturnLabel_32:
   \   000037 2006                  JRA       L:??CrossCallReturnLabel_130
   \                     ??LCDDataOut_2:
   \   000039 A640                  LD        A, #0x40
   \   00003B 8D000000              CALLF     ??Subroutine43_0
    922            (data&0x8)? GPIO_WriteHigh(LCD_PORT,DATA7):GPIO_WriteLow(LCD_PORT,DATA7);
   \                     ??CrossCallReturnLabel_130:
   \   00003F B600                  LD        A, S:?b8
   \   000041 A508                  BCP       A, #0x8
   \   000043 2708                  JREQ      L:??LCDDataOut_3
   \   000045 A680                  LD        A, #0x80
   \   000047 8D000000              CALLF     ?Subroutine9
   \                     ??CrossCallReturnLabel_31:
   \   00004B 2006                  JRA       L:??CrossCallReturnLabel_131
   \                     ??LCDDataOut_3:
   \   00004D A680                  LD        A, #0x80
   \   00004F 8D000000              CALLF     ??Subroutine43_0
    923          }
   \                     ??CrossCallReturnLabel_131:
   \   000053 320000                POP       S:?b8
   \   000056 87                    RETF

   \                                 In section .far_func.text, align 1, keep-with-next
   \                     ?Subroutine9:
   \   000000 AE500A                LDW       X, #0x500a
   \   000003 AC000000              JPF       GPIO_WriteHigh

   \                                 In section .far_func.text, align 1, keep-with-next
   \                     ??Subroutine43_0:
   \   000000 8D000000              CALLF     ??Subroutine44_0
   \                     ??CrossCallReturnLabel_136:
   \   000004 87                    RETF

   \                                 In section .far_func.text, align 1, keep-with-next
   \                     ??Subroutine44_0:
   \   000000 AE500A                LDW       X, #0x500a
   \   000003 AC000000              JPF       GPIO_WriteLow
    924          

   \                                 In section .far_func.text, align 1, keep-with-next
   \                     ??Subroutine42_0:
   \   000000 A604                  LD        A, #0x4
   \   000002                       REQUIRE ??Subroutine43_0
   \   000002                       ;               // Fall through to label ??Subroutine43_0

   \                                 In section .far_func.text, align 1, keep-with-next
    925          void InitLcd()
    926          {
    927           LCD_EN(0);
   \                     InitLcd:
   \   000000 8D000000              CALLF     ?Subroutine6
    928            LCD_RW(0);
   \                     ??CrossCallReturnLabel_19:
   \   000004 A602                  LD        A, #0x2
   \   000006 8D000000              CALLF     ??Subroutine43_0
    929            LCD_RS(0);
   \                     ??CrossCallReturnLabel_135:
   \   00000A 8D000000              CALLF     ??Subroutine42_0
    930            Delay1(4000); // 40ms
   \                     ??CrossCallReturnLabel_127:
   \   00000E AE0FA0                LDW       X, #0xfa0
   \   000011 8D000000              CALLF     ?Subroutine10
    931          
    932            LCDInstrNibble(0x03);
    933             Delay1(10);
    934            LCDInstrNibble(0x03);
   \                     ??CrossCallReturnLabel_36:
   \   000015 A603                  LD        A, #0x3
   \   000017 8D000000              CALLF     LCDInstrNibble
    935             Delay1(10);
   \   00001B AE000A                LDW       X, #0xa
   \   00001E 8D000000              CALLF     ?Subroutine10
    936            LCDInstrNibble(0x03);
    937             Delay1(10);
    938          
    939             //Line 4
    940            LCDInstrNibble(0x02);
   \                     ??CrossCallReturnLabel_35:
   \   000022 A602                  LD        A, #0x2
   \   000024 8D000000              CALLF     LCDInstrNibble
    941            LCDInstrNibble(0x02);
   \   000028 A602                  LD        A, #0x2
   \   00002A 8D000000              CALLF     LCDInstrNibble
    942            LCDInstrNibble(0x08);
   \   00002E A608                  LD        A, #0x8
   \   000030 8D000000              CALLF     LCDInstrNibble
    943            Delay1(100);
   \   000034 AE0064                LDW       X, #0x64
   \   000037 8D000000              CALLF     Delay1
    944          
    945            LCDInstr(0x0C);
   \   00003B A60C                  LD        A, #0xc
   \   00003D 8D000000              CALLF     LCDInstr
    946            Delay1(10);
   \   000041 8D000000              CALLF     ?Subroutine12
    947          
    948            LCDInstr(0x01) ;
   \                     ??CrossCallReturnLabel_39:
   \   000045 8D000000              CALLF     ?Subroutine36
    949            Delay1(250);
   \                     ??CrossCallReturnLabel_106:
   \   000049 AE00FA                LDW       X, #0xfa
   \   00004C 8D000000              CALLF     Delay1
    950          
    951            LCDInstr(0x06);
   \   000050 A606                  LD        A, #0x6
   \   000052 8D000000              CALLF     LCDInstr
    952            Delay1(10);
   \   000056 AE000A                LDW       X, #0xa
   \   000059 AC000000              JPF       Delay1
    953          
    954          
    955          }

   \                                 In section .far_func.text, align 1, keep-with-next
   \                     ?Subroutine12:
   \   000000 AE000A                LDW       X, #0xa
   \   000003 AC000000              JPF       Delay1

   \                                 In section .far_func.text, align 1, keep-with-next
   \                     ?Subroutine10:
   \   000000 8D000000              CALLF     Delay1
   \   000004 A603                  LD        A, #0x3
   \   000006 8D000000              CALLF     LCDInstrNibble
   \   00000A AE000A                LDW       X, #0xa
   \   00000D AC000000              JPF       Delay1

   \                                 In section .far_func.text, align 1, keep-with-next
   \                     ?Subroutine6:
   \   000000 8D000000              CALLF     ?Subroutine35
   \                     ??CrossCallReturnLabel_137:
   \   000004 87                    RETF

   \                                 In section .far_func.text, align 1, keep-with-next
   \                     ?Subroutine35:
   \   000000 A608                  LD        A, #0x8
   \   000002                       REQUIRE ??Subroutine44_0
   \   000002                       ;               // Fall through to label ??Subroutine44_0
    956          

   \                                 In section .far_func.text, align 1, keep-with-next
   \                     ?Subroutine0:
   \   000000 A602                  LD        A, #0x2
   \   000002 8D000000              CALLF     ??Subroutine43_0
   \                     ??CrossCallReturnLabel_132:
   \   000006 B600                  LD        A, S:?b8
   \   000008 4E                    SWAP      A
   \   000009 8D000000              CALLF     ?Subroutine14
   \                     ??CrossCallReturnLabel_118:
   \   00000D                       REQUIRE ??Subroutine40_0
   \   00000D                       ;               // Fall through to label ??Subroutine40_0

   \                                 In section .far_func.text, align 1, keep-with-next
   \                     ??Subroutine40_0:
   \   000000 B600                  LD        A, S:?b8
   \   000002 8D000000              CALLF     ?Subroutine14
   \                     ??CrossCallReturnLabel_117:
   \   000006 320000                POP       S:?b8
   \   000009 87                    RETF

   \                                 In section .far_func.text, align 1, keep-with-next
   \                     ?Subroutine14:
   \   000000 A40F                  AND       A, #0xf
   \   000002 8D000000              CALLF     LCDDataOut
   \   000006 AC000000              JPF       PulseEnable

   \                                 In section .far_func.text, align 1, keep-with-next
    957          void LCDInstr(u8 Instr)
    958          {
   \                     LCDInstr:
   \   000000 3B0000                PUSH      S:?b8
   \   000003 8D000000              CALLF     ?Subroutine7
    959            LCD_RS(0);
    960            LCD_RW(0);
   \                     ??CrossCallReturnLabel_124:
   \   000007 2000                  JRA       ?Subroutine0
    961            LCDDataOut(Instr>>4);
    962            PulseEnable();
    963            LCDDataOut(Instr & 0x0F);
    964            PulseEnable();
    965          }

   \                                 In section .far_func.text, align 1, keep-with-next
   \                     ?Subroutine7:
   \   000000 B700                  LD        S:?b8, A
   \   000002                       REQUIRE ??Subroutine42_0
   \   000002                       ;               // Fall through to label ??Subroutine42_0
    966          

   \                                 In section .far_func.text, align 1, keep-with-next
    967          void LCDData(u8 Data)
    968          {
   \                     LCDData:
   \   000000 3B0000                PUSH      S:?b8
   \   000003 B700                  LD        S:?b8, A
    969            LCD_RS(1);
   \   000005 A604                  LD        A, #0x4
   \   000007 8D000000              CALLF     ?Subroutine9
    970            LCD_RW(0);
   \                     ??CrossCallReturnLabel_30:
   \   00000B                       REQUIRE ?Subroutine0
   \   00000B                       ;               // Fall through to label ?Subroutine0
    971            LCDDataOut(Data>>4);
    972            PulseEnable() ;
    973            LCDDataOut(Data & 0x0F) ;
    974            PulseEnable();
    975          }
    976          

   \                                 In section .far_func.text, align 1, keep-with-next
    977          void LCDInstrNibble(u8 Instr)
    978          {
   \                     LCDInstrNibble:
   \   000000 3B0000                PUSH      S:?b8
   \   000003 8D000000              CALLF     ?Subroutine7
    979            LCD_RS(0);
    980            LCD_RW(0);
   \                     ??CrossCallReturnLabel_125:
   \   000007 A602                  LD        A, #0x2
   \   000009 8D000000              CALLF     ??Subroutine43_0
    981            LCDDataOut(Instr & 0x0F);
   \                     ??CrossCallReturnLabel_134:
   \   00000D AC000000              JPF       ??Subroutine40_0
    982            PulseEnable();
    983          }
    984          

   \                                 In section .far_func.text, align 1, keep-with-next
    985          void PulseEnable(void)
    986          {
    987            LCD_EN(0);
   \                     PulseEnable:
   \   000000 8D000000              CALLF     ?Subroutine2
    988             Delay1(1);
    989            LCD_EN(1);
    990             Delay1(1);
    991            LCD_EN(0);
   \                     ??CrossCallReturnLabel_2:
   \   000004 8D000000              CALLF     ?Subroutine6
    992             Delay1(1);
   \                     ??CrossCallReturnLabel_18:
   \   000008 5F                    CLRW      X
   \   000009 5C                    INCW      X
   \   00000A AC000000              JPF       Delay1
    993          }

   \                                 In section .far_func.text, align 1, keep-with-next
   \                     ?Subroutine2:
   \   000000 8D000000              CALLF     ?Subroutine35
   \                     ??CrossCallReturnLabel_138:
   \   000004 8D000000              CALLF     ??Subroutine41_0
   \                     ??CrossCallReturnLabel_119:
   \   000008 A608                  LD        A, #0x8
   \   00000A AE500A                LDW       X, #0x500a
   \   00000D 8D000000              CALLF     ?Subroutine33
   \                     ??CrossCallReturnLabel_122:
   \   000011 87                    RETF

   \                                 In section .far_func.text, align 1, keep-with-next
   \                     ?Subroutine33:
   \   000000 8D000000              CALLF     GPIO_WriteHigh
   \   000004                       REQUIRE ??Subroutine41_0
   \   000004                       ;               // Fall through to label ??Subroutine41_0

   \                                 In section .far_func.text, align 1, keep-with-next
   \                     ??Subroutine41_0:
   \   000000 5F                    CLRW      X
   \   000001 5C                    INCW      X
   \   000002 AC000000              JPF       Delay1
    994          

   \                                 In section .far_func.text, align 1, keep-with-next
    995          void LCD_Busy(void)
    996          {
    997             //set Port D7 as Input
    998             GPIO_Init(LCD_PORT,DATA7,GPIO_MODE_IN_PU_NO_IT);
   \                     LCD_Busy:
   \   000000 35400000              MOV       S:?b0, #0x40
   \   000004 A680                  LD        A, #0x80
   \   000006 AE500A                LDW       X, #0x500a
   \   000009 8D000000              CALLF     GPIO_Init
    999             //Set Read
   1000             LCD_RW(1);
   \   00000D A602                  LD        A, #0x2
   \   00000F 8D000000              CALLF     ?Subroutine9
   1001             LCD_RS(0);
   \                     ??CrossCallReturnLabel_29:
   \   000013 8D000000              CALLF     ??Subroutine42_0
   1002             // Read Busy Flag
   1003                timer2=0;
   \                     ??CrossCallReturnLabel_126:
   \   000017 5F                    CLRW      X
   \   000018 CF0000                LDW       L:timer2, X
   1004             do
   1005             {
   1006             // Enable set
   1007               LCD_EN(0);
   \                     ??LCD_Busy_0:
   \   00001B 8D000000              CALLF     ?Subroutine2
   1008                Delay1(1);
   1009               LCD_EN(1);
   1010                Delay1(1);
   1011             } while (GPIO_ReadInputPin(LCD_PORT, DATA7));
   \                     ??CrossCallReturnLabel_3:
   \   00001F A680                  LD        A, #0x80
   \   000021 AE500A                LDW       X, #0x500a
   \   000024 8D000000              CALLF     GPIO_ReadInputPin
   \   000028 A100                  CP        A, #0x0
   \   00002A 26EF                  JRNE      L:??LCD_Busy_0
   1012                k=timer2;
   \   00002C CE0000                LDW       X, L:timer2
   \   00002F CF0000                LDW       L:k, X
   1013                //Clear read
   1014              LCD_RW(0);
   \   000032 A602                  LD        A, #0x2
   \   000034 8D000000              CALLF     ??Subroutine43_0
   1015             //set Port D7 as Output
   1016             GPIO_Init(LCD_PORT,DATA7,GPIO_MODE_OUT_PP_HIGH_FAST);
   \                     ??CrossCallReturnLabel_133:
   \   000038 35F00000              MOV       S:?b0, #0xf0
   \   00003C A680                  LD        A, #0x80
   \   00003E AE500A                LDW       X, #0x500a
   \   000041 AC000000              JPF       GPIO_Init
   1017          
   1018          }
   1019          
   1020          

   \                                 In section .far_func.text, align 1, keep-with-next
   1021          void LCD(u8 data)
   1022           {
   \                     LCD:
   \   000000 3B0000                PUSH      S:?b8
   \   000003 B700                  LD        S:?b8, A
   1023             //  static u8 linet=0;
   1024          
   1025          
   1026               if (data =='\n')     //r
   \   000005 A10A                  CP        A, #0xa
   \   000007 265C                  JRNE      L:??CrossCallReturnLabel_121
   1027               {
   1028          
   1029                   switch(line_lcd)
   \   000009 C60000                LD        A, L:line_lcd
   \   00000C 270B                  JREQ      L:??LCD_0
   \   00000E 4A                    DEC       A
   \   00000F 2714                  JREQ      L:??LCD_1
   \   000011 4A                    DEC       A
   \   000012 271D                  JREQ      L:??LCD_2
   \   000014 4A                    DEC       A
   \   000015 2726                  JREQ      L:??LCD_3
   \   000017 202E                  JRA       L:??LCD_4
   1030                   {
   1031                   case 0:
   1032                     LCDInstr(0x80 | 0x00);
   \                     ??LCD_0:
   \   000019 A680                  LD        A, #0x80
   \   00001B 8D000000              CALLF     LCDInstr
   1033                     count=0;
   \   00001F 725F0000              CLR       L:count
   1034                     break;
   \   000023 2022                  JRA       L:??LCD_4
   1035                   case 1:
   1036                     LCDInstr(0x80 | 0x40);
   \                     ??LCD_1:
   \   000025 A6C0                  LD        A, #0xc0
   \   000027 8D000000              CALLF     LCDInstr
   1037                     count=20;
   \   00002B 35140000              MOV       L:count, #0x14
   1038                     break;
   \   00002F 2016                  JRA       L:??LCD_4
   1039                   case 2:
   1040                     LCDInstr(0x80 | 0x14);
   \                     ??LCD_2:
   \   000031 A694                  LD        A, #0x94
   \   000033 8D000000              CALLF     LCDInstr
   1041                     count=40;
   \   000037 35280000              MOV       L:count, #0x28
   1042                     break;
   \   00003B 200A                  JRA       L:??LCD_4
   1043                   case 3:
   1044                     LCDInstr(0x80 | 0x54);
   \                     ??LCD_3:
   \   00003D A6D4                  LD        A, #0xd4
   \   00003F 8D000000              CALLF     LCDInstr
   1045                     count=60;
   \   000043 353C0000              MOV       L:count, #0x3c
   1046                     break;
   1047                   //default:
   1048                    //  LCDInstr(0x80 |0x40);    //Line 1
   1049                    }
   1050                   line_lcd++;
   \                     ??LCD_4:
   \   000047 C60000                LD        A, L:line_lcd
   \   00004A 4C                    INC       A
   \   00004B C70000                LD        L:line_lcd, A
   1051                   if (line_lcd>=5)
   \   00004E A105                  CP        A, #0x5
   \   000050 250F                  JRC       L:??LCD_5
   1052                   {
   1053                    line_lcd=1;   //line >=5
   \   000052 35010000              MOV       L:line_lcd, #0x1
   1054                    LCDInstr(0x01); //Clear LCD
   \   000056 8D000000              CALLF     ?Subroutine36
   1055                    Delay1(2500);
   \                     ??CrossCallReturnLabel_108:
   \   00005A AE09C4                LDW       X, #0x9c4
   \   00005D 8D000000              CALLF     Delay1
   1056                   }
   1057          
   1058                   Delay1(1);
   \                     ??LCD_5:
   \   000061 8D000000              CALLF     ??Subroutine41_0
   1059          
   1060          
   1061               }
   1062          
   1063          
   1064               if (count==20)
   \                     ??CrossCallReturnLabel_121:
   \   000065 C60000                LD        A, L:count
   \   000068 A114                  CP        A, #0x14
   \   00006A 260A                  JRNE      L:??LCD_6
   1065                {
   1066                  LCDInstr(0x80 | 0x40);
   \   00006C A6C0                  LD        A, #0xc0
   \                     ??LCD_7:
   \   00006E 8D000000              CALLF     LCDInstr
   1067                  Delay1(1);
   \                     ??LCD_8:
   \   000072 5F                    CLRW      X
   \   000073 5C                    INCW      X
   \   000074 2027                  JRA       ??LCD_9
   1068                }
   1069                   else if(count==40)
   \                     ??LCD_6:
   \   000076 A128                  CP        A, #0x28
   \   000078 2604                  JRNE      L:??LCD_10
   1070                  {
   1071                    LCDInstr(0x80 | 0x14);
   \   00007A A694                  LD        A, #0x94
   \   00007C 20F0                  JRA       ??LCD_7
   1072                    Delay1(1);
   1073                  }
   1074                    else if(count==60)
   \                     ??LCD_10:
   \   00007E A13C                  CP        A, #0x3c
   \   000080 260C                  JRNE      L:??LCD_11
   1075                    {
   1076                      LCDInstr(0x80 | 0x54);
   \   000082 A6D4                  LD        A, #0xd4
   \   000084 8D000000              CALLF     LCDInstr
   1077                      count=0;
   \   000088 725F0000              CLR       L:count
   1078                      Delay1(1);
   \   00008C 20E4                  JRA       ??LCD_8
   1079                    }
   1080                      else if(count >80)
   \                     ??LCD_11:
   \   00008E A151                  CP        A, #0x51
   \   000090 250F                  JRC       L:??LCD_12
   1081                        {
   1082                          count=0;
   \   000092 725F0000              CLR       L:count
   1083                          LCDInstr(0x01); //Clear LCD
   \   000096 8D000000              CALLF     ?Subroutine36
   1084                          Delay1(250);
   \                     ??CrossCallReturnLabel_107:
   \   00009A AE00FA                LDW       X, #0xfa
   \                     ??LCD_9:
   \   00009D 8D000000              CALLF     Delay1
   1085                        }
   1086          
   1087          
   1088              /*
   1089                   line++;
   1090                   if (line>3)
   1091                   {
   1092                     line=1;  //Line 0 for Time
   1093                   }
   1094                 switch(line)
   1095                   {
   1096                   case 1 :LCDInstr(0x80 | 0x40);break;  //Line 1
   1097                   case 2 :LCDInstr(0x80 | 0x14);break;  //Line 2
   1098                   case 3 :LCDInstr(0x80 | 0x54);break;  //Line 3
   1099                   default : LCDInstr(0x80 | 0x40); // Line 1
   1100                   }
   1101                   Delay(1);
   1102                   count=0;
   1103                }
   1104          
   1105               */
   1106          
   1107               if (data > 0x1b)   //Display only valid data
   \                     ??LCD_12:
   \   0000A1 B600                  LD        A, S:?b8
   \   0000A3 A11C                  CP        A, #0x1c
   \   0000A5 250F                  JRC       L:??LCD_13
   1108               {
   1109                 LCDData(data);
   \   0000A7 8D000000              CALLF     LCDData
   1110                  Delay1(1);
   \   0000AB 8D000000              CALLF     ??Subroutine41_0
   1111                 count++;
   \                     ??CrossCallReturnLabel_120:
   \   0000AF C60000                LD        A, L:count
   \   0000B2 4C                    INC       A
   \   0000B3 C70000                LD        L:count, A
   1112               }
   1113           }
   \                     ??LCD_13:
   \   0000B6 320000                POP       S:?b8
   \   0000B9 87                    RETF
   1114          

   \                                 In section .far_func.text, align 1, keep-with-next
   1115          void InitDelayTimer()
   1116          {
   1117             //Timer 2 use for Delay  long Delay is 40ms for lcd
   1118             //Tclock 16/8=2Mhz  /20 10us
   1119                 TIM2_DeInit();
   \                     InitDelayTimer:
   \   000000 8D000000              CALLF     TIM2_DeInit
   1120                 TIM2_TimeBaseInit(TIM2_PRESCALER_2,0X0050);
   \   000004 AE0050                LDW       X, #0x50
   \   000007 A601                  LD        A, #0x1
   \   000009 8D000000              CALLF     TIM2_TimeBaseInit
   1121                 //TIM2_PrescalerConfig(TIM2_PRESCALER_1, TIM2_PSCRELOADMODE_IMMEDIATE);
   1122                 TIM2_ITConfig(TIM2_IT_UPDATE, ENABLE);
   \   00000D 35010000              MOV       S:?b0, #0x1
   \   000011 A601                  LD        A, #0x1
   \   000013 8D000000              CALLF     TIM2_ITConfig
   1123            //Enable TIM2
   1124                 TIM2_Cmd(ENABLE);
   \   000017 A601                  LD        A, #0x1
   \   000019 AC000000              JPF       TIM2_Cmd
   1125          
   1126          }
   1127          

   \                                 In section .far_func.text, align 1, keep-with-next
   1128          bool Read_DS18()
   1129          {
   1130          
   1131             //Init Reset Pulse
   1132              DS18(0);
   \                     Read_DS18:
   \   000000 A604                  LD        A, #0x4
   \   000002 AE500F                LDW       X, #0x500f
   \   000005 8D000000              CALLF     GPIO_WriteLow
   1133              Delay1(10);
   \   000009 8D000000              CALLF     ?Subroutine12
   1134              DS18(1);
   \                     ??CrossCallReturnLabel_41:
   \   00000D A604                  LD        A, #0x4
   \   00000F AE500F                LDW       X, #0x500f
   \   000012 8D000000              CALLF     ?Subroutine33
   1135              Delay1(1);
   1136              timer2=0;
   \                     ??CrossCallReturnLabel_123:
   \   000016 5F                    CLRW      X
   \   000017 CF0000                LDW       L:timer2, X
   1137              while ((timer2 < 10000) && (GPIO_ReadInputPin(GPIOD, ds18_data)));;   //Wait for ack from DS18B20
   \                     ??Read_DS18_0:
   \   00001A CE0000                LDW       X, L:timer2
   \   00001D A32710                CPW       X, #0x2710
   \   000020 240D                  JRNC      L:??Read_DS18_1
   \   000022 A604                  LD        A, #0x4
   \   000024 AE500F                LDW       X, #0x500f
   \   000027 8D000000              CALLF     GPIO_ReadInputPin
   \   00002B A100                  CP        A, #0x0
   \   00002D 26EB                  JRNE      L:??Read_DS18_0
   1138              if (timer2>=10000) return FALSE;
   \                     ??Read_DS18_1:
   \   00002F CE0000                LDW       X, L:timer2
   \   000032 A32710                CPW       X, #0x2710
   \   000035 2502                  JRC       L:??Read_DS18_2
   \   000037 4F                    CLR       A
   \   000038 87                    RETF
   1139               Delay1(10);
   \                     ??Read_DS18_2:
   \   000039 8D000000              CALLF     ?Subroutine12
   1140             //Skip ROM Command 0xCC
   1141             //Function command  CONVERT T [44h]
   1142             //READ SCRATCHPAD [BEh]
   1143          
   1144          
   1145          
   1146          
   1147          
   1148          
   1149          
   1150          
   1151          
   1152              return TRUE;
   \                     ??CrossCallReturnLabel_40:
   \   00003D A601                  LD        A, #0x1
   \   00003F 87                    RETF
   1153          }
   1154          
   1155           /*
   1156          u16 Average()
   1157          {
   1158           //Find average in measure
   1159            u8 i=0;
   1160            u16 Summa=0;
   1161            do
   1162            {
   1163             Summa+=measure[i++];
   1164            } while ( measure[i]!=0);
   1165             if(i!=0) Summa=Summa/i;
   1166             return Summa;
   1167          }
   1168             */
   1169          

   \                                 In section .far_func.text, align 1, keep-with-next
   1170          PUTCHAR_PROTOTYPE
   1171          {
   \                     fputc:
   \   000000 8D000000              CALLF     L:?push_w4
   \   000004 BF00                  LDW       S:?w4, X
   1172            /* Place your implementation of fputc here */
   1173            /* e.g. write a character to the USART */
   1174                //USART_SendData(USART3, (u8) ch);
   1175               LCD(ch);
   \   000006 B600                  LD        A, S:?b9
   \   000008 8D000000              CALLF     LCD
   1176             /* Loop until the end of transmission */
   1177              //while(USART_GetFlagStatus(USART3, USART_FLAG_TC) == RESET);;
   1178            return ch;
   \   00000C BE00                  LDW       X, S:?w4
   \   00000E AC000000              JPF       L:?epilogue_w4
   1179          }
   1180          
   1181          

   \                                 In section .far_func.text, align 1, keep-with-next
   1182          void Delay1(u16 Delay)
   1183          {
   \                     Delay1:
   \   000000 BF00                  LDW       S:?w0, X
   1184            timer1=0;
   \   000002 5F                    CLRW      X
   \   000003 CF0000                LDW       L:timer1, X
   1185            while ( timer1 < Delay); ;
   \                     ??Delay1_0:
   \   000006 CE0000                LDW       X, L:timer1
   \   000009 B300                  CPW       X, S:?w0
   \   00000B 25F9                  JRC       L:??Delay1_0
   1186          }
   \   00000D 87                    RETF
   1187          

   \                                 In section .far_func.text, align 1, keep-with-next
   1188           void Delay2(u16 Delay)
   1189          {
   \                     Delay2:
   \   000000 BF00                  LDW       S:?w0, X
   1190            timer2=0;
   \   000002 5F                    CLRW      X
   \   000003 CF0000                LDW       L:timer2, X
   1191            while ( timer2 < Delay); ;
   \                     ??Delay2_0:
   \   000006 CE0000                LDW       X, L:timer2
   \   000009 B300                  CPW       X, S:?w0
   \   00000B 25F9                  JRC       L:??Delay2_0
   1192          }
   \   00000D 87                    RETF
   1193          
   1194          
   1195          
   1196          /*
   1197          void Delay12 (u16 Delay)
   1198          {
   1199            timer2=0;
   1200            while ( timer2 < Delay); ;
   1201          }
   1202          */
   1203          
   1204          
   1205          #ifdef USE_FULL_ASSERT
   1206          
   1207          /**
   1208            * @brief  Reports the name of the source file and the source line number
   1209            *   where the assert_param error has occurred.
   1210            * @param file: pointer to the source file name
   1211            * @param line: assert_param error line source number
   1212            * @retval : None
   1213            */

   \                                 In section .far_func.text, align 1
   1214          void assert_failed(u8* file, u32 line)
   1215          {
   1216            /* User can add his own implementation to report the file name and line number,
   1217               ex: printf("Wrong parameters value: file %s on line %d\r\n", file, line) */
   1218          
   1219            /* Infinite loop */
   1220            while (1)
   \                     assert_failed:
   \                     ??assert_failed_0:
   \   000000 20FE                  JRA       L:??assert_failed_0
   1221            {
   1222          
   1223            }
   1224          }

   \                                 In section .near.rodata, align 1
   \                     `?<Constant "\\nDS_Err_I">`:
   \   000000 0A44535F4572          DC8 "\012DS_Err_I"

   \                                 In section .near.rodata, align 1
   \                     `?<Constant "\\n E2:%d">`:
   \   000000 0A2045323A25          DC8 "\012 E2:%d"

   \                                 In section .near.rodata, align 1
   \                     `?<Constant "\\n E:%d">`:
   \   000000 0A20453A2564          DC8 "\012 E:%d"

   \                                 In section .near.rodata, align 1
   \                     `?<Constant "\\nSetClock">`:
   \   000000 0A536574436C          DC8 "\012SetClock"

   \                                 In section .near.rodata, align 1
   \                     `?<Constant "\\n      ">`:
   \   000000 0A2020202020          DC8 "\012      "

   \                                 In section .near.rodata, align 1
   \                     `?<Constant "\\n%02d:%02d:%02d">`:
   \   000000 0A253032643A          DC8 "\012%02d:%02d:%02d"

   \                                 In section .near.rodata, align 1
   \                     `?<Constant "\\n ON">`:
   \   000000 0A204F4E00            DC8 "\012 ON"

   \                                 In section .near.rodata, align 1
   \                     `?<Constant "\\n OFF">`:
   \   000000 0A204F464600          DC8 "\012 OFF"

   \                                 In section .near.rodata, align 1
   \                     `?<Constant "\\nYears:">`:
   \   000000 0A5965617273          DC8 "\012Years:"

   \                                 In section .near.rodata, align 1
   \                     `?<Constant "\\nMounts:">`:
   \   000000 0A4D6F756E74          DC8 "\012Mounts:"

   \                                 In section .near.rodata, align 1
   \                     `?<Constant "\\nDate:">`:
   \   000000 0A446174653A          DC8 "\012Date:"

   \                                 In section .near.rodata, align 1
   \                     `?<Constant "\\nDays:">`:
   \   000000 0A446179733A          DC8 "\012Days:"

   \                                 In section .near.rodata, align 1
   \                     `?<Constant "\\n%02d">`:
   \   000000 0A2530326400          DC8 "\012%02d"

   \                                 In section .near.rodata, align 1
   \                     `?<Constant "\\nHours:">`:
   \   000000 0A486F757273          DC8 "\012Hours:"

   \                                 In section .near.rodata, align 1
   \                     `?<Constant "\\nMinutes:">`:
   \   000000 0A4D696E7574          DC8 "\012Minutes:"

   \                                 In section .near.rodata, align 1
   \                     `?<Constant "\\nSeconds:">`:
   \   000000 0A5365636F6E          DC8 "\012Seconds:"

   \                                 In section .near.rodata, align 1
   \                     `?<Constant "\\nH On:">`:
   \   000000 0A48204F6E3A          DC8 "\012H On:"

   \                                 In section .near.rodata, align 1
   \                     `?<Constant "\\n%02d:%02d">`:
   \   000000 0A253032643A          DC8 "\012%02d:%02d"

   \                                 In section .near.rodata, align 1
   \                     `?<Constant "\\nMin On:">`:
   \   000000 0A4D696E204F          DC8 "\012Min On:"

   \                                 In section .near.rodata, align 1
   \                     `?<Constant "\\nH Off:">`:
   \   000000 0A48204F6666          DC8 "\012H Off:"

   \                                 In section .near.rodata, align 1
   \                     `?<Constant "\\nMin Off:">`:
   \   000000 0A4D696E204F          DC8 "\012Min Off:"

   \                                 In section .near.rodata, align 1
   \                     `?<Constant "\\nLong :">`:
   \   000000 0A4C6F6E6720          DC8 "\012Long :"

   \                                 In section .near.rodata, align 1
   \                     `?<Constant "\\n%d">`:
   \   000000 0A256400              DC8 "\012%d"
   1225          #endif
   1226          
   1227          /******************* (C) COPYRIGHT 2011 STMicroelectronics *****END OF FILE****/

   Section sizes:

     Function/Label                 Bytes
     --------------                 -----
     timer1                            2
     timer2                            2
     timeout                           1
     adcdata                           2
     rx_data                           1
     data                             20
     measure                          40
     line_lcd                          1
     count                             1
     seconds                           1
     minutes                           1
     hours                             1
     days                              1
     date                              1
     mounts                            1
     years                             1
     error                             1
     temp_flag                         1
     temp2                             1
     daily_hour_on                     1
     daily_minute_on                   1
     daily_hour_off                    1
     daily_minute_off                  1
     daily_long_on                     2
     time_on                           2
     time_off                          2
     result                            4
     k                                 2
     ?Subroutine28                     7
     main                            342
     ?Subroutine34                     2
     ??Subroutine47_0                 12
     ?Subroutine17                    16
     ?Subroutine16                    10
     ?Subroutine1                     35
     ?Subroutine39                    10
     InitI2C                          38
     I2C_Start                        38
     ?Subroutine32                     7
     I2C_WA                           38
     I2C_RA                           40
     I2C_WD                           36
     I2C_RD                           35
     ?Subroutine31                     9
     ?Subroutine30                    11
     ??Subroutine46_0                  7
     ReadDS1307                      104
     ?Subroutine22                    11
     ?Subroutine20                     5
     ?Subroutine37                    10
     ?Subroutine19                    13
     ?Subroutine15                     8
     Check_DS1307                     64
     Set_DS1307                      109
     ?Subroutine29                     4
     convert_tobcd                    23
     bcd2hex                          23
     ?Subroutine36                     6
     Set_Clock                       395
     ?Subroutine21                     6
     ??Subroutine45_0                  5
     ?Subroutine18                    10
     ?Subroutine8                     16
     adj                              77
     key_ok_on                        41
     ?Subroutine38                     7
     key_plus_on                      37
     ?Subroutine26                     7
     ?Subroutine5                      7
     key_minus_on                     37
     key_ok_plus                      40
     ?Subroutine13                    26
     Set_Delay_Allarm                342
     ?Subroutine27                    15
     ?Subroutine11                    15
     ?Subroutine4                      9
     Read_Allarm                      82
     ?Subroutine3                      9
     EEPROM_INIT                      15
     GpioConfiguration               101
     ?Subroutine25                    14
     ?Subroutine24                     7
     InitClk                          56
     ?Subroutine23                     9
     InitAdc                          45
     SendChar                         15
     LCDDataOut                       87
     ?Subroutine9                      7
     ??Subroutine43_0                  5
     ??Subroutine44_0                  7
     ??Subroutine42_0                  2
     InitLcd                          93
     ?Subroutine12                     7
     ?Subroutine10                    17
     ?Subroutine6                      5
     ?Subroutine35                     2
     ?Subroutine0                     13
     ??Subroutine40_0                 10
     ?Subroutine14                    10
     LCDInstr                          9
     ?Subroutine7                      2
     LCDData                          11
     LCDInstrNibble                   17
     PulseEnable                      14
     ?Subroutine2                     18
     ?Subroutine33                     4
     ??Subroutine41_0                  6
     LCD_Busy                         69
     LCD                             186
     InitDelayTimer                   29
     Read_DS18                        64
     fputc                            18
     Delay1                           14
     Delay2                           14
     assert_failed                     2
     ?<Constant "\nDS_Err_I">         10
     ?<Constant "\n E2:%d">            8
     ?<Constant "\n E:%d">             7
     ?<Constant "\nSetClock">         10
     ?<Constant "\n      ">            8
     ?<Constant "\n%02d:%02d:%02d">   16
     ?<Constant "\n ON">               5
     ?<Constant "\n OFF">              6
     ?<Constant "\nYears:">            8
     ?<Constant "\nMounts:">           9
     ?<Constant "\nDate:">             7
     ?<Constant "\nDays:">             7
     ?<Constant "\n%02d">              6
     ?<Constant "\nHours:">            8
     ?<Constant "\nMinutes:">         10
     ?<Constant "\nSeconds:">         10
     ?<Constant "\nH On:">             7
     ?<Constant "\n%02d:%02d">        11
     ?<Constant "\nMin On:">           9
     ?<Constant "\nH Off:">            8
     ?<Constant "\nMin Off:">         10
     ?<Constant "\nLong :">            8
     ?<Constant "\n%d">                4

 
 3 260 bytes in section .far_func.text
    93 bytes in section .near.bss
     3 bytes in section .near.data
   192 bytes in section .near.rodata
 
 3 260 bytes of CODE  memory
   192 bytes of CONST memory
    96 bytes of DATA  memory

Errors: none
Warnings: none
