###############################################################################
#                                                                             #
# IAR C/C++ Compiler V1.30.1.50036 for STM8             08/Mar/2013  21:34:47 #
# Copyright 2010-2011 IAR Systems AB.                                         #
#                                                                             #
#    Source file  =  C:\Documents and Settings\Administrator\Desktop\Volt2Ser #
#                    ial\Libraries\STM8S_StdPeriph_Driver\src\stm8s_tim3.c    #
#    Command line =  "C:\Documents and Settings\Administrator\Desktop\Volt2Se #
#                    rial\Libraries\STM8S_StdPeriph_Driver\src\stm8s_tim3.c"  #
#                    -e -Ohz --debug --code_model medium --data_model medium  #
#                    -o "C:\Documents and Settings\Administrator\Desktop\Volt #
#                    2Serial\Project\STM8S_StdPeriph_Template\EWSTM8\STM8S105 #
#                    \Obj\" --dlib_config "C:\Program Files\IAR               #
#                    Systems\Embedded Workbench 6.0\stm8\LIB\dlstm8mmf.h" -D  #
#                    STM8S105 -lC "C:\Documents and                           #
#                    Settings\Administrator\Desktop\Volt2Serial\Project\STM8S #
#                    _StdPeriph_Template\EWSTM8\STM8S105\List\" -lA           #
#                    "C:\Documents and Settings\Administrator\Desktop\Volt2Se #
#                    rial\Project\STM8S_StdPeriph_Template\EWSTM8\STM8S105\Li #
#                    st\" -I "C:\Documents and Settings\Administrator\Desktop #
#                    \Volt2Serial\Project\STM8S_StdPeriph_Template\EWSTM8\..\ #
#                    " -I "C:\Documents and Settings\Administrator\Desktop\Vo #
#                    lt2Serial\Project\STM8S_StdPeriph_Template\EWSTM8\..\..\ #
#                    ..\Libraries\STM8S_StdPeriph_Driver\inc\" --vregs 16     #
#    List file    =  C:\Documents and Settings\Administrator\Desktop\Volt2Ser #
#                    ial\Project\STM8S_StdPeriph_Template\EWSTM8\STM8S105\Lis #
#                    t\stm8s_tim3.lst                                         #
#    Object file  =  C:\Documents and Settings\Administrator\Desktop\Volt2Ser #
#                    ial\Project\STM8S_StdPeriph_Template\EWSTM8\STM8S105\Obj #
#                    \stm8s_tim3.o                                            #
#                                                                             #
#                                                                             #
###############################################################################

C:\Documents and Settings\Administrator\Desktop\Volt2Serial\Libraries\STM8S_StdPeriph_Driver\src\stm8s_tim3.c
      1          /**
      2            ******************************************************************************
      3            * @file    stm8s_tim3.c
      4            * @author  MCD Application Team
      5            * @version V2.1.0
      6            * @date    18-November-2011
      7            * @brief   This file contains all the functions for the TIM3 peripheral.
      8            ******************************************************************************
      9            * @attention
     10            *
     11            * THE PRESENT FIRMWARE WHICH IS FOR GUIDANCE ONLY AIMS AT PROVIDING CUSTOMERS
     12            * WITH CODING INFORMATION REGARDING THEIR PRODUCTS IN ORDER FOR THEM TO SAVE
     13            * TIME. AS A RESULT, STMICROELECTRONICS SHALL NOT BE HELD LIABLE FOR ANY
     14            * DIRECT, INDIRECT OR CONSEQUENTIAL DAMAGES WITH RESPECT TO ANY CLAIMS ARISING
     15            * FROM THE CONTENT OF SUCH FIRMWARE AND/OR THE USE MADE BY CUSTOMERS OF THE
     16            * CODING INFORMATION CONTAINED HEREIN IN CONNECTION WITH THEIR PRODUCTS.
     17            *
     18            * <h2><center>&copy; COPYRIGHT 2011 STMicroelectronics</center></h2>
     19            ******************************************************************************
     20            */
     21          
     22          /* Includes ------------------------------------------------------------------*/
     23          #include "stm8s_tim3.h"
     24          
     25          /** @addtogroup STM8S_StdPeriph_Driver
     26            * @{
     27            */
     28          /* Private typedef -----------------------------------------------------------*/
     29          /* Private define ------------------------------------------------------------*/
     30          /* Private macro -------------------------------------------------------------*/
     31          /* Private variables ---------------------------------------------------------*/
     32          /* Private function prototypes -----------------------------------------------*/
     33          static void TI1_Config(uint8_t TIM3_ICPolarity, uint8_t TIM3_ICSelection, uint8_t TIM3_ICFilter);
     34          static void TI2_Config(uint8_t TIM3_ICPolarity, uint8_t TIM3_ICSelection, uint8_t TIM3_ICFilter);
     35          /**
     36            * @addtogroup TIM3_Public_Functions
     37            * @{
     38            */
     39          
     40          /**
     41            * @brief  Deinitializes the TIM3 peripheral registers to their default reset values.
     42            * @param  None
     43            * @retval None
     44            */

   \                                 In section .far_func.text, align 1
     45          void TIM3_DeInit(void)
     46          {
     47          
     48              TIM3->CR1 = (uint8_t)TIM3_CR1_RESET_VALUE;
   \                     TIM3_DeInit:
   \   000000 725F5320              CLR       L:0x5320
     49              TIM3->IER = (uint8_t)TIM3_IER_RESET_VALUE;
   \   000004 725F5321              CLR       L:0x5321
     50              TIM3->SR2 = (uint8_t)TIM3_SR2_RESET_VALUE;
   \   000008 725F5323              CLR       L:0x5323
     51          
     52              /* Disable channels */
     53              TIM3->CCER1 = (uint8_t)TIM3_CCER1_RESET_VALUE;
   \   00000C 725F5327              CLR       L:0x5327
     54          
     55              /* Then reset channel registers: it also works if lock level is equal to 2 or 3 */
     56              TIM3->CCER1 = (uint8_t)TIM3_CCER1_RESET_VALUE;
   \   000010 725F5327              CLR       L:0x5327
     57              TIM3->CCMR1 = (uint8_t)TIM3_CCMR1_RESET_VALUE;
   \   000014 725F5325              CLR       L:0x5325
     58              TIM3->CCMR2 = (uint8_t)TIM3_CCMR2_RESET_VALUE;
   \   000018 725F5326              CLR       L:0x5326
     59              TIM3->CNTRH = (uint8_t)TIM3_CNTRH_RESET_VALUE;
   \   00001C 725F5328              CLR       L:0x5328
     60              TIM3->CNTRL = (uint8_t)TIM3_CNTRL_RESET_VALUE;
   \   000020 725F5329              CLR       L:0x5329
     61              TIM3->PSCR = (uint8_t)TIM3_PSCR_RESET_VALUE;
   \   000024 725F532A              CLR       L:0x532a
     62              TIM3->ARRH  = (uint8_t)TIM3_ARRH_RESET_VALUE;
   \   000028 35FF532B              MOV       L:0x532b, #0xff
     63              TIM3->ARRL  = (uint8_t)TIM3_ARRL_RESET_VALUE;
   \   00002C 35FF532C              MOV       L:0x532c, #0xff
     64              TIM3->CCR1H = (uint8_t)TIM3_CCR1H_RESET_VALUE;
   \   000030 725F532D              CLR       L:0x532d
     65              TIM3->CCR1L = (uint8_t)TIM3_CCR1L_RESET_VALUE;
   \   000034 725F532E              CLR       L:0x532e
     66              TIM3->CCR2H = (uint8_t)TIM3_CCR2H_RESET_VALUE;
   \   000038 725F532F              CLR       L:0x532f
     67              TIM3->CCR2L = (uint8_t)TIM3_CCR2L_RESET_VALUE;
   \   00003C 725F5330              CLR       L:0x5330
     68              TIM3->SR1 = (uint8_t)TIM3_SR1_RESET_VALUE;
   \   000040 725F5322              CLR       L:0x5322
     69          }
   \   000044 87                    RETF
     70          
     71          
     72          /**
     73            * @brief  Initializes the TIM3 Time Base Unit according to the specified parameters.
     74            * @param    TIM3_Prescaler specifies the Prescaler from TIM3_Prescaler_TypeDef.
     75            * @param    TIM3_Period specifies the Period value.
     76            * @retval None
     77            */

   \                                 In section .far_func.text, align 1
     78          void TIM3_TimeBaseInit( TIM3_Prescaler_TypeDef TIM3_Prescaler,
     79                                  uint16_t TIM3_Period)
     80          {
   \                     TIM3_TimeBaseInit:
   \   000000 9093                  LDW       Y, X
     81              /* Set the Prescaler value */
     82              TIM3->PSCR = (uint8_t)(TIM3_Prescaler);
   \   000002 C7532A                LD        L:0x532a, A
     83              /* Set the Autoreload value */
     84              TIM3->ARRH = (uint8_t)(TIM3_Period >> 8);
   \   000005 8D000000              CALLF     ?Subroutine8
     85              TIM3->ARRL = (uint8_t)(TIM3_Period);
     86          }
   \                     ??CrossCallReturnLabel_56:
   \   000009 87                    RETF

   \                                 In section .far_func.text, align 1
   \                     ?Subroutine8:
   \   000000 4F                    CLR       A
   \   000001 01                    RRWA      X, A
   \   000002 9F                    LD        A, XL
   \   000003 C7532B                LD        L:0x532b, A
   \   000006 909F                  LD        A, YL
   \   000008 C7532C                LD        L:0x532c, A
   \   00000B 87                    RETF
     87          
     88          /**
     89            * @brief  Initializes the TIM3 Channel1 according to the specified parameters.
     90            * @param   TIM3_OCMode specifies the Output Compare mode  from @ref TIM3_OCMode_TypeDef.
     91            * @param   TIM3_OutputState specifies the Output State  from @ref TIM3_OutputState_TypeDef.
     92            * @param   TIM3_Pulse specifies the Pulse width  value.
     93            * @param   TIM3_OCPolarity specifies the Output Compare Polarity  from @ref TIM3_OCPolarity_TypeDef.
     94            * @retval None
     95            */

   \                                 In section .far_func.text, align 1, keep-with-next
   \                     ?Subroutine5:
   \   000000 BF00                  LDW       S:?w1, X
   \   000002 5F                    CLRW      X
   \   000003 BF00                  LDW       S:?w0, X
   \   000005 AE0000                LDW       X, #`?<Constant "C:\\\\Documents and Sett...">`
   \   000008 AC000000              JPF       assert_failed

   \                                 In section .far_func.text, align 1
     96          void TIM3_OC1Init(TIM3_OCMode_TypeDef TIM3_OCMode,
     97                            TIM3_OutputState_TypeDef TIM3_OutputState,
     98                            uint16_t TIM3_Pulse,
     99                            TIM3_OCPolarity_TypeDef TIM3_OCPolarity)
    100          {
   \                     TIM3_OC1Init:
   \   000000 8D000000              CALLF     L:?push_w4
   \   000004 8D000000              CALLF     L:?push_w6
   \   000008 3B0000                PUSH      S:?b10
   \   00000B 8D000000              CALLF     ?Subroutine2
    101              /* Check the parameters */
    102              assert_param(IS_TIM3_OC_MODE_OK(TIM3_OCMode));
   \                     ??CrossCallReturnLabel_5:
   \   00000F 271B                  JREQ      L:??CrossCallReturnLabel_12
   \   000011 A110                  CP        A, #0x10
   \   000013 2717                  JREQ      L:??CrossCallReturnLabel_12
   \   000015 A120                  CP        A, #0x20
   \   000017 2713                  JREQ      L:??CrossCallReturnLabel_12
   \   000019 A130                  CP        A, #0x30
   \   00001B 270F                  JREQ      L:??CrossCallReturnLabel_12
   \   00001D A160                  CP        A, #0x60
   \   00001F 270B                  JREQ      L:??CrossCallReturnLabel_12
   \   000021 A170                  CP        A, #0x70
   \   000023 2707                  JREQ      L:??CrossCallReturnLabel_12
   \   000025 AE0066                LDW       X, #0x66
   \   000028 8D000000              CALLF     ?Subroutine5
    103              assert_param(IS_TIM3_OUTPUT_STATE_OK(TIM3_OutputState));
   \                     ??CrossCallReturnLabel_12:
   \   00002C 3D00                  TNZ       S:?b9
   \   00002E 270D                  JREQ      L:??CrossCallReturnLabel_11
   \   000030 B600                  LD        A, S:?b9
   \   000032 A111                  CP        A, #0x11
   \   000034 2707                  JREQ      L:??CrossCallReturnLabel_11
   \   000036 AE0067                LDW       X, #0x67
   \   000039 8D000000              CALLF     ?Subroutine5
    104              assert_param(IS_TIM3_OC_POLARITY_OK(TIM3_OCPolarity));
   \                     ??CrossCallReturnLabel_11:
   \   00003D 3D00                  TNZ       S:?b10
   \   00003F 270D                  JREQ      L:??CrossCallReturnLabel_10
   \   000041 B600                  LD        A, S:?b10
   \   000043 A122                  CP        A, #0x22
   \   000045 2707                  JREQ      L:??CrossCallReturnLabel_10
   \   000047 AE0068                LDW       X, #0x68
   \   00004A 8D000000              CALLF     ?Subroutine5
    105          
    106              /* Disable the Channel 1: Reset the CCE Bit, Set the Output State , the Output Polarity */
    107              TIM3->CCER1 &= (uint8_t)(~( TIM3_CCER1_CC1E | TIM3_CCER1_CC1P));
   \                     ??CrossCallReturnLabel_10:
   \   00004E C65327                LD        A, L:0x5327
   \   000051 A4FC                  AND       A, #0xfc
   \   000053 C75327                LD        L:0x5327, A
    108              /* Set the Output State &  Set the Output Polarity  */
    109              TIM3->CCER1 |= (uint8_t)((uint8_t)(TIM3_OutputState  & TIM3_CCER1_CC1E   ) | (uint8_t)(TIM3_OCPolarity   & TIM3_CCER1_CC1P   ));
   \   000056 B600                  LD        A, S:?b10
   \   000058 A402                  AND       A, #0x2
   \   00005A 88                    PUSH      A
   \   00005B B600                  LD        A, S:?b9
   \   00005D A401                  AND       A, #0x1
   \   00005F B700                  LD        S:?b1, A
   \   000061 84                    POP       A
   \   000062 BA00                  OR        A, S:?b1
   \   000064 CA5327                OR        A, L:0x5327
   \   000067 C75327                LD        L:0x5327, A
    110          
    111              /* Reset the Output Compare Bits & Set the Output Compare Mode */
    112              TIM3->CCMR1 = (uint8_t)((uint8_t)(TIM3->CCMR1 & (uint8_t)(~TIM3_CCMR_OCM)) | (uint8_t)TIM3_OCMode);
   \   00006A 8D000000              CALLF     ?Subroutine4
    113          
    114              /* Set the Pulse value */
    115              TIM3->CCR1H = (uint8_t)(TIM3_Pulse >> 8);
   \                     ??CrossCallReturnLabel_9:
   \   00006E BE00                  LDW       X, S:?w6
   \   000070 4F                    CLR       A
   \   000071 01                    RRWA      X, A
   \   000072 9F                    LD        A, XL
   \   000073 C7532D                LD        L:0x532d, A
    116              TIM3->CCR1L = (uint8_t)(TIM3_Pulse);
   \   000076 B600                  LD        A, S:?b13
   \   000078 C7532E                LD        L:0x532e, A
    117          }
   \   00007B 320000                POP       S:?b10
   \   00007E 8D000000              CALLF     L:?pop_w6
   \   000082 AC000000              JPF       L:?epilogue_w4

   \                                 In section .far_func.text, align 1
   \                     ?Subroutine4:
   \   000000 C65325                LD        A, L:0x5325
   \   000003 A48F                  AND       A, #0x8f
   \   000005 BA00                  OR        A, S:?b8
   \   000007 C75325                LD        L:0x5325, A
   \   00000A 87                    RETF

   \                                 In section .far_func.text, align 1
   \                     ?Subroutine2:
   \   000000 B700                  LD        S:?b8, A
   \   000002 450000                MOV       S:?b9, S:?b0
   \   000005 BF00                  LDW       S:?w6, X
   \   000007 450000                MOV       S:?b10, S:?b1
   \   00000A 3D00                  TNZ       S:?b8
   \   00000C 87                    RETF
    118          
    119          
    120          /**
    121            * @brief  Initializes the TIM3 Channel2 according to the specified parameters.
    122            * @param   TIM3_OCMode specifies the Output Compare mode  from @ref TIM3_OCMode_TypeDef.
    123            * @param   TIM3_OutputState specifies the Output State  from @ref TIM3_OutputState_TypeDef.
    124            * @param   TIM3_Pulse specifies the Pulse width  value.
    125            * @param   TIM3_OCPolarity specifies the Output Compare Polarity  from @ref TIM3_OCPolarity_TypeDef.
    126            * @retval None
    127            */

   \                                 In section .far_func.text, align 1
    128          void TIM3_OC2Init(TIM3_OCMode_TypeDef TIM3_OCMode,
    129                            TIM3_OutputState_TypeDef TIM3_OutputState,
    130                            uint16_t TIM3_Pulse,
    131                            TIM3_OCPolarity_TypeDef TIM3_OCPolarity)
    132          {
   \                     TIM3_OC2Init:
   \   000000 8D000000              CALLF     L:?push_w4
   \   000004 8D000000              CALLF     L:?push_w6
   \   000008 3B0000                PUSH      S:?b10
   \   00000B 8D000000              CALLF     ?Subroutine2
    133              /* Check the parameters */
    134              assert_param(IS_TIM3_OC_MODE_OK(TIM3_OCMode));
   \                     ??CrossCallReturnLabel_4:
   \   00000F 271B                  JREQ      L:??CrossCallReturnLabel_15
   \   000011 A110                  CP        A, #0x10
   \   000013 2717                  JREQ      L:??CrossCallReturnLabel_15
   \   000015 A120                  CP        A, #0x20
   \   000017 2713                  JREQ      L:??CrossCallReturnLabel_15
   \   000019 A130                  CP        A, #0x30
   \   00001B 270F                  JREQ      L:??CrossCallReturnLabel_15
   \   00001D A160                  CP        A, #0x60
   \   00001F 270B                  JREQ      L:??CrossCallReturnLabel_15
   \   000021 A170                  CP        A, #0x70
   \   000023 2707                  JREQ      L:??CrossCallReturnLabel_15
   \   000025 AE0086                LDW       X, #0x86
   \   000028 8D000000              CALLF     ?Subroutine5
    135              assert_param(IS_TIM3_OUTPUT_STATE_OK(TIM3_OutputState));
   \                     ??CrossCallReturnLabel_15:
   \   00002C 3D00                  TNZ       S:?b9
   \   00002E 270D                  JREQ      L:??CrossCallReturnLabel_14
   \   000030 B600                  LD        A, S:?b9
   \   000032 A111                  CP        A, #0x11
   \   000034 2707                  JREQ      L:??CrossCallReturnLabel_14
   \   000036 AE0087                LDW       X, #0x87
   \   000039 8D000000              CALLF     ?Subroutine5
    136              assert_param(IS_TIM3_OC_POLARITY_OK(TIM3_OCPolarity));
   \                     ??CrossCallReturnLabel_14:
   \   00003D 3D00                  TNZ       S:?b10
   \   00003F 270D                  JREQ      L:??CrossCallReturnLabel_13
   \   000041 B600                  LD        A, S:?b10
   \   000043 A122                  CP        A, #0x22
   \   000045 2707                  JREQ      L:??CrossCallReturnLabel_13
   \   000047 AE0088                LDW       X, #0x88
   \   00004A 8D000000              CALLF     ?Subroutine5
    137          
    138          
    139              /* Disable the Channel 1: Reset the CCE Bit, Set the Output State, the Output Polarity */
    140              TIM3->CCER1 &= (uint8_t)(~( TIM3_CCER1_CC2E |  TIM3_CCER1_CC2P ));
   \                     ??CrossCallReturnLabel_13:
   \   00004E C65327                LD        A, L:0x5327
   \   000051 A4CF                  AND       A, #0xcf
   \   000053 C75327                LD        L:0x5327, A
    141              /* Set the Output State & Set the Output Polarity */
    142              TIM3->CCER1 |= (uint8_t)((uint8_t)(TIM3_OutputState  & TIM3_CCER1_CC2E   ) | (uint8_t)(TIM3_OCPolarity   & TIM3_CCER1_CC2P ));
   \   000056 B600                  LD        A, S:?b10
   \   000058 A420                  AND       A, #0x20
   \   00005A 88                    PUSH      A
   \   00005B B600                  LD        A, S:?b9
   \   00005D A410                  AND       A, #0x10
   \   00005F B700                  LD        S:?b1, A
   \   000061 84                    POP       A
   \   000062 BA00                  OR        A, S:?b1
   \   000064 CA5327                OR        A, L:0x5327
   \   000067 C75327                LD        L:0x5327, A
    143          
    144          
    145              /* Reset the Output Compare Bits & Set the Output Compare Mode */
    146              TIM3->CCMR2 = (uint8_t)((uint8_t)(TIM3->CCMR2 & (uint8_t)(~TIM3_CCMR_OCM)) | (uint8_t)TIM3_OCMode);
   \   00006A 8D000000              CALLF     ?Subroutine3
    147          
    148          
    149              /* Set the Pulse value */
    150              TIM3->CCR2H = (uint8_t)(TIM3_Pulse >> 8);
   \                     ??CrossCallReturnLabel_7:
   \   00006E BE00                  LDW       X, S:?w6
   \   000070 4F                    CLR       A
   \   000071 01                    RRWA      X, A
   \   000072 9F                    LD        A, XL
   \   000073 C7532F                LD        L:0x532f, A
    151              TIM3->CCR2L = (uint8_t)(TIM3_Pulse);
   \   000076 B600                  LD        A, S:?b13
   \   000078 C75330                LD        L:0x5330, A
    152          }
   \   00007B 320000                POP       S:?b10
   \   00007E 8D000000              CALLF     L:?pop_w6
   \   000082 AC000000              JPF       L:?epilogue_w4

   \                                 In section .far_func.text, align 1
   \                     ?Subroutine3:
   \   000000 C65326                LD        A, L:0x5326
   \   000003 A48F                  AND       A, #0x8f
   \   000005 BA00                  OR        A, S:?b8
   \   000007 C75326                LD        L:0x5326, A
   \   00000A 87                    RETF
    153          
    154          /**
    155            * @brief  Initializes the TIM3 peripheral according to the specified parameters.
    156            * @param    TIM3_Channel specifies the Input Capture Channel from @ref TIM3_Channel_TypeDef.
    157            * @param   TIM3_ICPolarity specifies the Input Capture Polarity from @ref TIM3_ICPolarity_TypeDef.
    158            * @param   TIM3_ICSelection specifies the Input Capture Selection from @ref TIM3_ICSelection_TypeDef.
    159            * @param   TIM3_ICPrescaler specifies the Input Capture Prescaler from @ref TIM3_ICPSC_TypeDef.
    160            * @param   TIM3_ICFilter specifies the Input Capture Filter value (value can be an integer from 0x00 to 0x0F).
    161            * @retval None
    162            */

   \                                 In section .far_func.text, align 1, keep-with-next
    163          void TIM3_ICInit(TIM3_Channel_TypeDef TIM3_Channel,
    164                           TIM3_ICPolarity_TypeDef TIM3_ICPolarity,
    165                           TIM3_ICSelection_TypeDef TIM3_ICSelection,
    166                           TIM3_ICPSC_TypeDef TIM3_ICPrescaler,
    167                           uint8_t TIM3_ICFilter)
    168          {
   \                     TIM3_ICInit:
   \   000000 8D000000              CALLF     L:?push_l2
   \   000004 3B0000                PUSH      S:?b12
   \   000007 8D000000              CALLF     ?Subroutine9
    169              /* Check the parameters */
    170              assert_param(IS_TIM3_CHANNEL_OK(TIM3_Channel));
   \                     ??CrossCallReturnLabel_58:
   \   00000B 270B                  JREQ      L:??CrossCallReturnLabel_20
   \   00000D A101                  CP        A, #0x1
   \   00000F 2707                  JREQ      L:??CrossCallReturnLabel_20
   \   000011 AE00AA                LDW       X, #0xaa
   \   000014 8D000000              CALLF     ?Subroutine5
    171              assert_param(IS_TIM3_IC_POLARITY_OK(TIM3_ICPolarity));
   \                     ??CrossCallReturnLabel_20:
   \   000018 3D00                  TNZ       S:?b8
   \   00001A 270D                  JREQ      L:??CrossCallReturnLabel_19
   \   00001C B600                  LD        A, S:?b8
   \   00001E A144                  CP        A, #0x44
   \   000020 2707                  JREQ      L:??CrossCallReturnLabel_19
   \   000022 AE00AB                LDW       X, #0xab
   \   000025 8D000000              CALLF     ?Subroutine5
    172              assert_param(IS_TIM3_IC_SELECTION_OK(TIM3_ICSelection));
   \                     ??CrossCallReturnLabel_19:
   \   000029 B600                  LD        A, S:?b9
   \   00002B A101                  CP        A, #0x1
   \   00002D 270F                  JREQ      L:??CrossCallReturnLabel_18
   \   00002F A102                  CP        A, #0x2
   \   000031 270B                  JREQ      L:??CrossCallReturnLabel_18
   \   000033 A103                  CP        A, #0x3
   \   000035 2707                  JREQ      L:??CrossCallReturnLabel_18
   \   000037 AE00AC                LDW       X, #0xac
   \   00003A 8D000000              CALLF     ?Subroutine5
    173              assert_param(IS_TIM3_IC_PRESCALER_OK(TIM3_ICPrescaler));
   \                     ??CrossCallReturnLabel_18:
   \   00003E 3D00                  TNZ       S:?b10
   \   000040 2715                  JREQ      L:??CrossCallReturnLabel_17
   \   000042 B600                  LD        A, S:?b10
   \   000044 A104                  CP        A, #0x4
   \   000046 270F                  JREQ      L:??CrossCallReturnLabel_17
   \   000048 A108                  CP        A, #0x8
   \   00004A 270B                  JREQ      L:??CrossCallReturnLabel_17
   \   00004C A10C                  CP        A, #0xc
   \   00004E 2707                  JREQ      L:??CrossCallReturnLabel_17
   \   000050 AE00AD                LDW       X, #0xad
   \   000053 8D000000              CALLF     ?Subroutine5
    174              assert_param(IS_TIM3_IC_FILTER_OK(TIM3_ICFilter));
   \                     ??CrossCallReturnLabel_17:
   \   000057 B600                  LD        A, S:?b11
   \   000059 A110                  CP        A, #0x10
   \   00005B 2507                  JRC       L:??CrossCallReturnLabel_16
   \   00005D AE00AE                LDW       X, #0xae
   \   000060 8D000000              CALLF     ?Subroutine5
    175          
    176              if (TIM3_Channel != TIM3_CHANNEL_2)
   \                     ??CrossCallReturnLabel_16:
   \   000064 8D000000              CALLF     ?Subroutine10
   \                     ??CrossCallReturnLabel_60:
   \   000068 2706                  JREQ      L:??TIM3_ICInit_0
    177              {
    178                  /* TI1 Configuration */
    179                  TI1_Config((uint8_t)TIM3_ICPolarity,
    180                             (uint8_t)TIM3_ICSelection,
    181                             (uint8_t)TIM3_ICFilter);
   \   00006A 8D000000              CALLF     ?Subroutine6
    182          
    183                  /* Set the Input Capture Prescaler value */
    184                  TIM3_SetIC1Prescaler(TIM3_ICPrescaler);
    185              }
   \                     ??CrossCallReturnLabel_52:
   \   00006E 2004                  JRA       L:??CrossCallReturnLabel_54
    186              else
    187              {
    188                  /* TI2 Configuration */
    189                  TI2_Config((uint8_t)TIM3_ICPolarity,
    190                             (uint8_t)TIM3_ICSelection,
    191                             (uint8_t)TIM3_ICFilter);
   \                     ??TIM3_ICInit_0:
   \   000070 8D000000              CALLF     ?Subroutine7
    192          
    193                  /* Set the Input Capture Prescaler value */
    194                  TIM3_SetIC2Prescaler(TIM3_ICPrescaler);
    195              }
    196          }
   \                     ??CrossCallReturnLabel_54:
   \   000074 320000                POP       S:?b12
   \   000077 AC000000              JPF       L:?epilogue_l2

   \                                 In section .far_func.text, align 1, keep-with-next
   \                     ?Subroutine10:
   \   000000 B600                  LD        A, S:?b12
   \   000002 A101                  CP        A, #0x1
   \   000004 450000                MOV       S:?b1, S:?b11
   \   000007 450000                MOV       S:?b0, S:?b9
   \   00000A 87                    RETF

   \                                 In section .far_func.text, align 1, keep-with-next
   \                     ?Subroutine9:
   \   000000 B700                  LD        S:?b12, A
   \   000002 450000                MOV       S:?b8, S:?b0
   \   000005 450000                MOV       S:?b9, S:?b1
   \   000008 450000                MOV       S:?b10, S:?b2
   \   00000B 450000                MOV       S:?b11, S:?b3
   \   00000E 87                    RETF

   \                                 In section .far_func.text, align 1, keep-with-next
   \                     ?Subroutine7:
   \   000000 B600                  LD        A, S:?b8
   \   000002 8D000000              CALLF     ?Subroutine11
   \                     ??CrossCallReturnLabel_61:
   \   000006 87                    RETF

   \                                 In section .far_func.text, align 1, keep-with-next
   \                     ?Subroutine11:
   \   000000 8D000000              CALLF     TI2_Config
   \   000004 B600                  LD        A, S:?b10
   \   000006 AC000000              JPF       TIM3_SetIC2Prescaler

   \                                 In section .far_func.text, align 1, keep-with-next
   \                     ?Subroutine6:
   \   000000 B600                  LD        A, S:?b8
   \   000002 8D000000              CALLF     ?Subroutine12
   \                     ??CrossCallReturnLabel_63:
   \   000006 87                    RETF

   \                                 In section .far_func.text, align 1
   \                     ?Subroutine12:
   \   000000 8D000000              CALLF     TI1_Config
   \   000004 B600                  LD        A, S:?b10
   \   000006 AC000000              JPF       TIM3_SetIC1Prescaler
    197          /**
    198            * @brief  Configures the TIM3 peripheral in PWM Input Mode according to the specified parameters.
    199            * @param    TIM3_Channel specifies the Input Capture Channel from @ref TIM3_Channel_TypeDef.
    200            * @param   TIM3_ICPolarity specifies the Input Capture Polarity from @ref TIM3_ICPolarity_TypeDef.
    201            * @param   TIM3_ICSelection specifies the Input Capture Selection from @ref TIM3_ICSelection_TypeDef.
    202            * @param   TIM3_ICPrescaler specifies the Input Capture Prescaler from @ref TIM3_ICPSC_TypeDef.
    203            * @param   TIM3_ICFilter specifies the Input Capture Filter value (value can be an integer from 0x00 to 0x0F).
    204            * @retval None
    205            */

   \                                 In section .far_func.text, align 1, keep-with-next
    206          void TIM3_PWMIConfig(TIM3_Channel_TypeDef TIM3_Channel,
    207                               TIM3_ICPolarity_TypeDef TIM3_ICPolarity,
    208                               TIM3_ICSelection_TypeDef TIM3_ICSelection,
    209                               TIM3_ICPSC_TypeDef TIM3_ICPrescaler,
    210                               uint8_t TIM3_ICFilter)
    211          {
   \                     TIM3_PWMIConfig:
   \   000000 8D000000              CALLF     L:?push_l2
   \   000004 8D000000              CALLF     L:?push_w6
   \   000008 3B0000                PUSH      S:?b14
   \   00000B 8D000000              CALLF     ?Subroutine9
    212              uint8_t icpolarity = (uint8_t)TIM3_ICPOLARITY_RISING;
    213              uint8_t icselection = (uint8_t)TIM3_ICSELECTION_DIRECTTI;
    214          
    215              /* Check the parameters */
    216              assert_param(IS_TIM3_PWMI_CHANNEL_OK(TIM3_Channel));
   \                     ??CrossCallReturnLabel_57:
   \   00000F 270B                  JREQ      L:??CrossCallReturnLabel_24
   \   000011 A101                  CP        A, #0x1
   \   000013 2707                  JREQ      L:??CrossCallReturnLabel_24
   \   000015 AE00D8                LDW       X, #0xd8
   \   000018 8D000000              CALLF     ?Subroutine5
    217              assert_param(IS_TIM3_IC_POLARITY_OK(TIM3_ICPolarity));
   \                     ??CrossCallReturnLabel_24:
   \   00001C 3D00                  TNZ       S:?b8
   \   00001E 270D                  JREQ      L:??CrossCallReturnLabel_23
   \   000020 B600                  LD        A, S:?b8
   \   000022 A144                  CP        A, #0x44
   \   000024 2707                  JREQ      L:??CrossCallReturnLabel_23
   \   000026 AE00D9                LDW       X, #0xd9
   \   000029 8D000000              CALLF     ?Subroutine5
    218              assert_param(IS_TIM3_IC_SELECTION_OK(TIM3_ICSelection));
   \                     ??CrossCallReturnLabel_23:
   \   00002D B600                  LD        A, S:?b9
   \   00002F A101                  CP        A, #0x1
   \   000031 270F                  JREQ      L:??CrossCallReturnLabel_22
   \   000033 A102                  CP        A, #0x2
   \   000035 270B                  JREQ      L:??CrossCallReturnLabel_22
   \   000037 A103                  CP        A, #0x3
   \   000039 2707                  JREQ      L:??CrossCallReturnLabel_22
   \   00003B AE00DA                LDW       X, #0xda
   \   00003E 8D000000              CALLF     ?Subroutine5
    219              assert_param(IS_TIM3_IC_PRESCALER_OK(TIM3_ICPrescaler));
   \                     ??CrossCallReturnLabel_22:
   \   000042 3D00                  TNZ       S:?b10
   \   000044 2715                  JREQ      L:??CrossCallReturnLabel_21
   \   000046 B600                  LD        A, S:?b10
   \   000048 A104                  CP        A, #0x4
   \   00004A 270F                  JREQ      L:??CrossCallReturnLabel_21
   \   00004C A108                  CP        A, #0x8
   \   00004E 270B                  JREQ      L:??CrossCallReturnLabel_21
   \   000050 A10C                  CP        A, #0xc
   \   000052 2707                  JREQ      L:??CrossCallReturnLabel_21
   \   000054 AE00DB                LDW       X, #0xdb
   \   000057 8D000000              CALLF     ?Subroutine5
    220          
    221              /* Select the Opposite Input Polarity */
    222              if (TIM3_ICPolarity != TIM3_ICPOLARITY_FALLING)
   \                     ??CrossCallReturnLabel_21:
   \   00005B B600                  LD        A, S:?b8
   \   00005D A144                  CP        A, #0x44
   \   00005F 2706                  JREQ      L:??TIM3_PWMIConfig_0
    223              {
    224                  icpolarity = (uint8_t)TIM3_ICPOLARITY_FALLING;
   \   000061 35440000              MOV       S:?b14, #0x44
   \   000065 2002                  JRA       L:??TIM3_PWMIConfig_1
    225              }
    226              else
    227              {
    228                  icpolarity = (uint8_t)TIM3_ICPOLARITY_RISING;
   \                     ??TIM3_PWMIConfig_0:
   \   000067 3F00                  CLR       S:?b14
    229              }
    230          
    231              /* Select the Opposite Input */
    232              if (TIM3_ICSelection == TIM3_ICSELECTION_DIRECTTI)
   \                     ??TIM3_PWMIConfig_1:
   \   000069 B600                  LD        A, S:?b9
   \   00006B A101                  CP        A, #0x1
   \   00006D 2606                  JRNE      L:??TIM3_PWMIConfig_2
    233              {
    234                  icselection = (uint8_t)TIM3_ICSELECTION_INDIRECTTI;
   \   00006F 35020000              MOV       S:?b13, #0x2
   \   000073 2004                  JRA       L:??TIM3_PWMIConfig_3
    235              }
    236              else
    237              {
    238                  icselection = (uint8_t)TIM3_ICSELECTION_DIRECTTI;
   \                     ??TIM3_PWMIConfig_2:
   \   000075 35010000              MOV       S:?b13, #0x1
    239              }
    240          
    241              if (TIM3_Channel != TIM3_CHANNEL_2)
   \                     ??TIM3_PWMIConfig_3:
   \   000079 8D000000              CALLF     ?Subroutine10
   \                     ??CrossCallReturnLabel_59:
   \   00007D 2712                  JREQ      L:??TIM3_PWMIConfig_4
    242              {
    243                  /* TI1 Configuration */
    244                  TI1_Config((uint8_t)TIM3_ICPolarity, (uint8_t)TIM3_ICSelection,
    245                             (uint8_t)TIM3_ICFilter);
   \   00007F 8D000000              CALLF     ?Subroutine6
    246          
    247                  /* Set the Input Capture Prescaler value */
    248                  TIM3_SetIC1Prescaler(TIM3_ICPrescaler);
    249          
    250                  /* TI2 Configuration */
    251                  TI2_Config(icpolarity, icselection, TIM3_ICFilter);
   \                     ??CrossCallReturnLabel_51:
   \   000083 450000                MOV       S:?b1, S:?b11
   \   000086 450000                MOV       S:?b0, S:?b13
   \   000089 B600                  LD        A, S:?b14
   \   00008B 8D000000              CALLF     ?Subroutine11
    252          
    253                  /* Set the Input Capture Prescaler value */
    254                  TIM3_SetIC2Prescaler(TIM3_ICPrescaler);
    255              }
   \                     ??CrossCallReturnLabel_62:
   \   00008F 2010                  JRA       L:??CrossCallReturnLabel_64
    256              else
    257              {
    258                  /* TI2 Configuration */
    259                  TI2_Config((uint8_t)TIM3_ICPolarity, (uint8_t)TIM3_ICSelection,
    260                             (uint8_t)TIM3_ICFilter);
   \                     ??TIM3_PWMIConfig_4:
   \   000091 8D000000              CALLF     ?Subroutine7
    261          
    262                  /* Set the Input Capture Prescaler value */
    263                  TIM3_SetIC2Prescaler(TIM3_ICPrescaler);
    264          
    265                  /* TI1 Configuration */
    266                  TI1_Config(icpolarity, icselection, TIM3_ICFilter);
   \                     ??CrossCallReturnLabel_53:
   \   000095 450000                MOV       S:?b1, S:?b11
   \   000098 450000                MOV       S:?b0, S:?b13
   \   00009B B600                  LD        A, S:?b14
   \   00009D 8D000000              CALLF     ?Subroutine12
    267          
    268                  /* Set the Input Capture Prescaler value */
    269                  TIM3_SetIC1Prescaler(TIM3_ICPrescaler);
    270              }
    271          }
   \                     ??CrossCallReturnLabel_64:
   \   0000A1 320000                POP       S:?b14
   \   0000A4 AC000000              JPF       L:?epilogue_l2_w6
    272          
    273          
    274          /**
    275            * @brief  Enables or disables the TIM3 peripheral.
    276            * @param   NewState new state of the TIM3 peripheral. This parameter can
    277            * be ENABLE or DISABLE.
    278            * @retval None
    279            */

   \                                 In section .far_func.text, align 1, keep-with-next
    280          void TIM3_Cmd(FunctionalState NewState)
    281          {
    282              /* Check the parameters */
    283              assert_param(IS_FUNCTIONALSTATE_OK(NewState));
   \                     TIM3_Cmd:
   \   000000 4D                    TNZ       A
   \   000001 2710                  JREQ      L:??TIM3_Cmd_0
   \   000003 A101                  CP        A, #0x1
   \   000005 2707                  JREQ      L:??CrossCallReturnLabel_25
   \   000007 AE011B                LDW       X, #0x11b
   \   00000A 8D000000              CALLF     ?Subroutine5
    284          
    285              /* set or Reset the CEN Bit */
    286              if (NewState != DISABLE)
    287              {
    288                  TIM3->CR1 |= (uint8_t)TIM3_CR1_CEN;
   \                     ??CrossCallReturnLabel_25:
   \   00000E 72105320              BSET      L:0x5320, #0x0
   \   000012 87                    RETF
    289              }
    290              else
    291              {
    292                  TIM3->CR1 &= (uint8_t)(~TIM3_CR1_CEN);
   \                     ??TIM3_Cmd_0:
   \   000013 72115320              BRES      L:0x5320, #0x0
    293              }
    294          }
   \   000017 87                    RETF
    295          
    296          
    297          /**
    298            * @brief  Enables or disables the specified TIM3 interrupts.
    299            * @param   NewState new state of the TIM3 peripheral.
    300            * This parameter can be: ENABLE or DISABLE.
    301            * @param   TIM3_IT specifies the TIM3 interrupts sources to be enabled or disabled.
    302            * This parameter can be any combination of the following values:
    303            *                       - TIM3_IT_UPDATE: TIM3 update Interrupt source
    304            *                       - TIM3_IT_CC1: TIM3 Capture Compare 1 Interrupt source
    305            *                       - TIM3_IT_CC2: TIM3 Capture Compare 2 Interrupt source
    306            *                       - TIM3_IT_CC3: TIM3 Capture Compare 3 Interrupt source
    307            * @param   NewState new state of the TIM3 peripheral.  * @retval None
    308            */

   \                                 In section .far_func.text, align 1, keep-with-next
    309          void TIM3_ITConfig(TIM3_IT_TypeDef TIM3_IT, FunctionalState NewState)
    310          {
   \                     TIM3_ITConfig:
   \   000000 8D000000              CALLF     L:?push_w4
   \   000004 B700                  LD        S:?b8, A
   \   000006 450000                MOV       S:?b9, S:?b0
    311              /* Check the parameters */
    312              assert_param(IS_TIM3_IT_OK(TIM3_IT));
   \   000009 2704                  JREQ      L:??TIM3_ITConfig_0
   \   00000B A108                  CP        A, #0x8
   \   00000D 2507                  JRC       L:??CrossCallReturnLabel_27
   \                     ??TIM3_ITConfig_0:
   \   00000F AE0138                LDW       X, #0x138
   \   000012 8D000000              CALLF     ?Subroutine5
    313              assert_param(IS_FUNCTIONALSTATE_OK(NewState));
   \                     ??CrossCallReturnLabel_27:
   \   000016 3D00                  TNZ       S:?b9
   \   000018 2714                  JREQ      L:??TIM3_ITConfig_1
   \   00001A B600                  LD        A, S:?b9
   \   00001C A101                  CP        A, #0x1
   \   00001E 2707                  JREQ      L:??CrossCallReturnLabel_26
   \   000020 AE0139                LDW       X, #0x139
   \   000023 8D000000              CALLF     ?Subroutine5
    314          
    315              if (NewState != DISABLE)
    316              {
    317                  /* Enable the Interrupt sources */
    318                  TIM3->IER |= (uint8_t)TIM3_IT;
   \                     ??CrossCallReturnLabel_26:
   \   000027 B600                  LD        A, S:?b8
   \   000029 CA5321                OR        A, L:0x5321
   \   00002C 2007                  JRA       ??TIM3_ITConfig_2
    319              }
    320              else
    321              {
    322                  /* Disable the Interrupt sources */
    323                  TIM3->IER &= (uint8_t)(~TIM3_IT);
   \                     ??TIM3_ITConfig_1:
   \   00002E 3300                  CPL       S:?b8
   \   000030 B600                  LD        A, S:?b8
   \   000032 C45321                AND       A, L:0x5321
   \                     ??TIM3_ITConfig_2:
   \   000035 C75321                LD        L:0x5321, A
    324              }
    325          }
   \   000038 AC000000              JPF       L:?epilogue_w4
    326          
    327          
    328          /**
    329            * @brief  Enables or Disables the TIM3 Update event.
    330            * @param   NewState new state of the TIM3 peripheral Preload register. This parameter can
    331            * be ENABLE or DISABLE.
    332            * @retval None
    333            */

   \                                 In section .far_func.text, align 1, keep-with-next
    334          void TIM3_UpdateDisableConfig(FunctionalState NewState)
    335          {
    336              /* Check the parameters */
    337              assert_param(IS_FUNCTIONALSTATE_OK(NewState));
   \                     TIM3_UpdateDisableConfig:
   \   000000 4D                    TNZ       A
   \   000001 2710                  JREQ      L:??TIM3_UpdateDisableConfig_0
   \   000003 A101                  CP        A, #0x1
   \   000005 2707                  JREQ      L:??CrossCallReturnLabel_28
   \   000007 AE0151                LDW       X, #0x151
   \   00000A 8D000000              CALLF     ?Subroutine5
    338          
    339              /* Set or Reset the UDIS Bit */
    340              if (NewState != DISABLE)
    341              {
    342                  TIM3->CR1 |= TIM3_CR1_UDIS;
   \                     ??CrossCallReturnLabel_28:
   \   00000E 72125320              BSET      L:0x5320, #0x1
   \   000012 87                    RETF
    343              }
    344              else
    345              {
    346                  TIM3->CR1 &= (uint8_t)(~TIM3_CR1_UDIS);
   \                     ??TIM3_UpdateDisableConfig_0:
   \   000013 72135320              BRES      L:0x5320, #0x1
    347              }
    348          }
   \   000017 87                    RETF
    349          
    350          /**
    351            * @brief  Selects the TIM3 Update Request Interrupt source.
    352            * @param   TIM3_UpdateSource specifies the Update source.
    353            * This parameter can be one of the following values
    354            *                       - TIM3_UPDATESOURCE_REGULAR
    355            *                       - TIM3_UPDATESOURCE_GLOBAL
    356            * @retval None
    357            */

   \                                 In section .far_func.text, align 1, keep-with-next
    358          void TIM3_UpdateRequestConfig(TIM3_UpdateSource_TypeDef TIM3_UpdateSource)
    359          {
    360              /* Check the parameters */
    361              assert_param(IS_TIM3_UPDATE_SOURCE_OK(TIM3_UpdateSource));
   \                     TIM3_UpdateRequestConfig:
   \   000000 4D                    TNZ       A
   \   000001 2710                  JREQ      L:??TIM3_UpdateRequestConfig_0
   \   000003 A101                  CP        A, #0x1
   \   000005 2707                  JREQ      L:??CrossCallReturnLabel_29
   \   000007 AE0169                LDW       X, #0x169
   \   00000A 8D000000              CALLF     ?Subroutine5
    362          
    363              /* Set or Reset the URS Bit */
    364              if (TIM3_UpdateSource != TIM3_UPDATESOURCE_GLOBAL)
    365              {
    366                  TIM3->CR1 |= TIM3_CR1_URS;
   \                     ??CrossCallReturnLabel_29:
   \   00000E 72145320              BSET      L:0x5320, #0x2
   \   000012 87                    RETF
    367              }
    368              else
    369              {
    370                  TIM3->CR1 &= (uint8_t)(~TIM3_CR1_URS);
   \                     ??TIM3_UpdateRequestConfig_0:
   \   000013 72155320              BRES      L:0x5320, #0x2
    371              }
    372          }
   \   000017 87                    RETF
    373          
    374          
    375          /**
    376            * @brief  Selects the TIM3’s One Pulse Mode.
    377            * @param   TIM3_OPMode specifies the OPM Mode to be used.
    378            * This parameter can be one of the following values
    379            *                    - TIM3_OPMODE_SINGLE
    380            *                    - TIM3_OPMODE_REPETITIVE
    381            * @retval None
    382            */

   \                                 In section .far_func.text, align 1, keep-with-next
    383          void TIM3_SelectOnePulseMode(TIM3_OPMode_TypeDef TIM3_OPMode)
    384          {
    385              /* Check the parameters */
    386              assert_param(IS_TIM3_OPM_MODE_OK(TIM3_OPMode));
   \                     TIM3_SelectOnePulseMode:
   \   000000 A101                  CP        A, #0x1
   \   000002 270A                  JREQ      L:??CrossCallReturnLabel_30
   \   000004 4D                    TNZ       A
   \   000005 270C                  JREQ      L:??TIM3_SelectOnePulseMode_0
   \   000007 AE0182                LDW       X, #0x182
   \   00000A 8D000000              CALLF     ?Subroutine5
    387          
    388              /* Set or Reset the OPM Bit */
    389              if (TIM3_OPMode != TIM3_OPMODE_REPETITIVE)
    390              {
    391                  TIM3->CR1 |= TIM3_CR1_OPM;
   \                     ??CrossCallReturnLabel_30:
   \   00000E 72165320              BSET      L:0x5320, #0x3
   \   000012 87                    RETF
    392              }
    393              else
    394              {
    395                  TIM3->CR1 &= (uint8_t)(~TIM3_CR1_OPM);
   \                     ??TIM3_SelectOnePulseMode_0:
   \   000013 72175320              BRES      L:0x5320, #0x3
    396              }
    397          
    398          }
   \   000017 87                    RETF
    399          
    400          
    401          /**
    402            * @brief  Configures the TIM3 Prescaler.
    403            * @param   Prescaler specifies the Prescaler Register value
    404            * This parameter can be one of the following values
    405            *                       -  TIM3_PRESCALER_1
    406            *                       -  TIM3_PRESCALER_2
    407            *                       -  TIM3_PRESCALER_4
    408            *                       -  TIM3_PRESCALER_8
    409            *                       -  TIM3_PRESCALER_16
    410            *                       -  TIM3_PRESCALER_32
    411            *                       -  TIM3_PRESCALER_64
    412            *                       -  TIM3_PRESCALER_128
    413            *                       -  TIM3_PRESCALER_256
    414            *                       -  TIM3_PRESCALER_512
    415            *                       -  TIM3_PRESCALER_1024
    416            *                       -  TIM3_PRESCALER_2048
    417            *                       -  TIM3_PRESCALER_4096
    418            *                       -  TIM3_PRESCALER_8192
    419            *                       -  TIM3_PRESCALER_16384
    420            *                       -  TIM3_PRESCALER_32768
    421            * @param   TIM3_PSCReloadMode specifies the TIM3 Prescaler Reload mode.
    422            * This parameter can be one of the following values
    423            *                       - TIM3_PSCRELOADMODE_IMMEDIATE: The Prescaler is loaded
    424            *                         immediatly.
    425            *                       - TIM3_PSCRELOADMODE_UPDATE: The Prescaler is loaded at
    426            *                         the update event.
    427            * @retval None
    428            */

   \                                 In section .far_func.text, align 1, keep-with-next
    429          void TIM3_PrescalerConfig(TIM3_Prescaler_TypeDef Prescaler,
    430                                    TIM3_PSCReloadMode_TypeDef TIM3_PSCReloadMode)
    431          {
   \                     TIM3_PrescalerConfig:
   \   000000 8D000000              CALLF     L:?push_w4
   \   000004 B700                  LD        S:?b9, A
   \   000006 450000                MOV       S:?b8, S:?b0
    432              /* Check the parameters */
    433              assert_param(IS_TIM3_PRESCALER_RELOAD_OK(TIM3_PSCReloadMode));
   \   000009 3D00                  TNZ       S:?b8
   \   00000B 270D                  JREQ      L:??CrossCallReturnLabel_32
   \   00000D B600                  LD        A, S:?b8
   \   00000F A101                  CP        A, #0x1
   \   000011 2707                  JREQ      L:??CrossCallReturnLabel_32
   \   000013 AE01B1                LDW       X, #0x1b1
   \   000016 8D000000              CALLF     ?Subroutine5
    434              assert_param(IS_TIM3_PRESCALER_OK(Prescaler));
   \                     ??CrossCallReturnLabel_32:
   \   00001A 3D00                  TNZ       S:?b9
   \   00001C 2745                  JREQ      L:??CrossCallReturnLabel_31
   \   00001E B600                  LD        A, S:?b9
   \   000020 A101                  CP        A, #0x1
   \   000022 273F                  JREQ      L:??CrossCallReturnLabel_31
   \   000024 A102                  CP        A, #0x2
   \   000026 273B                  JREQ      L:??CrossCallReturnLabel_31
   \   000028 A103                  CP        A, #0x3
   \   00002A 2737                  JREQ      L:??CrossCallReturnLabel_31
   \   00002C A104                  CP        A, #0x4
   \   00002E 2733                  JREQ      L:??CrossCallReturnLabel_31
   \   000030 A105                  CP        A, #0x5
   \   000032 272F                  JREQ      L:??CrossCallReturnLabel_31
   \   000034 A106                  CP        A, #0x6
   \   000036 272B                  JREQ      L:??CrossCallReturnLabel_31
   \   000038 A107                  CP        A, #0x7
   \   00003A 2727                  JREQ      L:??CrossCallReturnLabel_31
   \   00003C A108                  CP        A, #0x8
   \   00003E 2723                  JREQ      L:??CrossCallReturnLabel_31
   \   000040 A109                  CP        A, #0x9
   \   000042 271F                  JREQ      L:??CrossCallReturnLabel_31
   \   000044 A10A                  CP        A, #0xa
   \   000046 271B                  JREQ      L:??CrossCallReturnLabel_31
   \   000048 A10B                  CP        A, #0xb
   \   00004A 2717                  JREQ      L:??CrossCallReturnLabel_31
   \   00004C A10C                  CP        A, #0xc
   \   00004E 2713                  JREQ      L:??CrossCallReturnLabel_31
   \   000050 A10D                  CP        A, #0xd
   \   000052 270F                  JREQ      L:??CrossCallReturnLabel_31
   \   000054 A10E                  CP        A, #0xe
   \   000056 270B                  JREQ      L:??CrossCallReturnLabel_31
   \   000058 A10F                  CP        A, #0xf
   \   00005A 2707                  JREQ      L:??CrossCallReturnLabel_31
   \   00005C AE01B2                LDW       X, #0x1b2
   \   00005F 8D000000              CALLF     ?Subroutine5
    435          
    436              /* Set the Prescaler value */
    437              TIM3->PSCR = (uint8_t)Prescaler;
   \                     ??CrossCallReturnLabel_31:
   \   000063 B600                  LD        A, S:?b9
   \   000065 C7532A                LD        L:0x532a, A
    438          
    439              /* Set or reset the UG Bit */
    440              TIM3->EGR = (uint8_t)TIM3_PSCReloadMode;
   \   000068 B600                  LD        A, S:?b8
   \   00006A C75324                LD        L:0x5324, A
    441          }
   \   00006D AC000000              JPF       L:?epilogue_w4
    442          
    443          /**
    444            * @brief  Forces the TIM3 Channel1 output waveform to active or inactive level.
    445            * @param   TIM3_ForcedAction specifies the forced Action to be set to the output waveform.
    446            * This parameter can be one of the following values:
    447            *                       - TIM3_FORCEDACTION_ACTIVE: Force active level on OC1REF
    448            *                       - TIM3_FORCEDACTION_INACTIVE: Force inactive level on
    449            *                         OC1REF.
    450            * @retval None
    451            */

   \                                 In section .far_func.text, align 1, keep-with-next
    452          void TIM3_ForcedOC1Config(TIM3_ForcedAction_TypeDef TIM3_ForcedAction)
    453          {
   \                     TIM3_ForcedOC1Config:
   \   000000 3B0000                PUSH      S:?b8
   \   000003 B700                  LD        S:?b8, A
    454              /* Check the parameters */
    455              assert_param(IS_TIM3_FORCED_ACTION_OK(TIM3_ForcedAction));
   \   000005 A150                  CP        A, #0x50
   \   000007 270B                  JREQ      L:??CrossCallReturnLabel_33
   \   000009 A140                  CP        A, #0x40
   \   00000B 2707                  JREQ      L:??CrossCallReturnLabel_33
   \   00000D AE01C7                LDW       X, #0x1c7
   \   000010 8D000000              CALLF     ?Subroutine5
    456          
    457              /* Reset the OCM Bits & Configure the Forced output Mode */
    458              TIM3->CCMR1 =  (uint8_t)((uint8_t)(TIM3->CCMR1 & (uint8_t)(~TIM3_CCMR_OCM))  | (uint8_t)TIM3_ForcedAction);
   \                     ??CrossCallReturnLabel_33:
   \   000014 8D000000              CALLF     ?Subroutine4
    459          }
   \                     ??CrossCallReturnLabel_8:
   \   000018 320000                POP       S:?b8
   \   00001B 87                    RETF
    460          
    461          /**
    462            * @brief  Forces the TIM3 Channel2 output waveform to active or inactive level.
    463            * @param   TIM3_ForcedAction specifies the forced Action to be set to the output waveform.
    464            * This parameter can be one of the following values:
    465            *                       - TIM3_FORCEDACTION_ACTIVE: Force active level on OC2REF
    466            *                       - TIM3_FORCEDACTION_INACTIVE: Force inactive level on
    467            *                         OC2REF.
    468            * @retval None
    469            */

   \                                 In section .far_func.text, align 1, keep-with-next
    470          void TIM3_ForcedOC2Config(TIM3_ForcedAction_TypeDef TIM3_ForcedAction)
    471          {
   \                     TIM3_ForcedOC2Config:
   \   000000 3B0000                PUSH      S:?b8
   \   000003 B700                  LD        S:?b8, A
    472              /* Check the parameters */
    473              assert_param(IS_TIM3_FORCED_ACTION_OK(TIM3_ForcedAction));
   \   000005 A150                  CP        A, #0x50
   \   000007 270B                  JREQ      L:??CrossCallReturnLabel_34
   \   000009 A140                  CP        A, #0x40
   \   00000B 2707                  JREQ      L:??CrossCallReturnLabel_34
   \   00000D AE01D9                LDW       X, #0x1d9
   \   000010 8D000000              CALLF     ?Subroutine5
    474          
    475              /* Reset the OCM Bits & Configure the Forced output Mode */
    476              TIM3->CCMR2 =  (uint8_t)((uint8_t)(TIM3->CCMR2 & (uint8_t)(~TIM3_CCMR_OCM)) | (uint8_t)TIM3_ForcedAction);
   \                     ??CrossCallReturnLabel_34:
   \   000014 8D000000              CALLF     ?Subroutine3
    477          }
   \                     ??CrossCallReturnLabel_6:
   \   000018 320000                POP       S:?b8
   \   00001B 87                    RETF
    478          
    479          
    480          /**
    481            * @brief  Enables or disables TIM3 peripheral Preload register on ARR.
    482            * @param   NewState new state of the TIM3 peripheral Preload register.
    483            * This parameter can be ENABLE or DISABLE.
    484            * @retval None
    485            */

   \                                 In section .far_func.text, align 1, keep-with-next
    486          void TIM3_ARRPreloadConfig(FunctionalState NewState)
    487          {
    488              /* Check the parameters */
    489              assert_param(IS_FUNCTIONALSTATE_OK(NewState));
   \                     TIM3_ARRPreloadConfig:
   \   000000 4D                    TNZ       A
   \   000001 2710                  JREQ      L:??TIM3_ARRPreloadConfig_0
   \   000003 A101                  CP        A, #0x1
   \   000005 2707                  JREQ      L:??CrossCallReturnLabel_35
   \   000007 AE01E9                LDW       X, #0x1e9
   \   00000A 8D000000              CALLF     ?Subroutine5
    490          
    491              /* Set or Reset the ARPE Bit */
    492              if (NewState != DISABLE)
    493              {
    494                  TIM3->CR1 |= TIM3_CR1_ARPE;
   \                     ??CrossCallReturnLabel_35:
   \   00000E 721E5320              BSET      L:0x5320, #0x7
   \   000012 87                    RETF
    495              }
    496              else
    497              {
    498                  TIM3->CR1 &= (uint8_t)(~TIM3_CR1_ARPE);
   \                     ??TIM3_ARRPreloadConfig_0:
   \   000013 721F5320              BRES      L:0x5320, #0x7
    499              }
    500          }
   \   000017 87                    RETF
    501          
    502          
    503          /**
    504            * @brief  Enables or disables the TIM3 peripheral Preload Register on CCR1.
    505            * @param   NewState new state of the Capture Compare Preload register.
    506            * This parameter can be ENABLE or DISABLE.
    507            * @retval None
    508            */

   \                                 In section .far_func.text, align 1, keep-with-next
    509          void TIM3_OC1PreloadConfig(FunctionalState NewState)
    510          {
    511              /* Check the parameters */
    512              assert_param(IS_FUNCTIONALSTATE_OK(NewState));
   \                     TIM3_OC1PreloadConfig:
   \   000000 4D                    TNZ       A
   \   000001 2710                  JREQ      L:??TIM3_OC1PreloadConfig_0
   \   000003 A101                  CP        A, #0x1
   \   000005 2707                  JREQ      L:??CrossCallReturnLabel_36
   \   000007 AE0200                LDW       X, #0x200
   \   00000A 8D000000              CALLF     ?Subroutine5
    513          
    514              /* Set or Reset the OC1PE Bit */
    515              if (NewState != DISABLE)
    516              {
    517                  TIM3->CCMR1 |= TIM3_CCMR_OCxPE;
   \                     ??CrossCallReturnLabel_36:
   \   00000E 72165325              BSET      L:0x5325, #0x3
   \   000012 87                    RETF
    518              }
    519              else
    520              {
    521                  TIM3->CCMR1 &= (uint8_t)(~TIM3_CCMR_OCxPE);
   \                     ??TIM3_OC1PreloadConfig_0:
   \   000013 72175325              BRES      L:0x5325, #0x3
    522              }
    523          }
   \   000017 87                    RETF
    524          
    525          
    526          /**
    527            * @brief  Enables or disables the TIM3 peripheral Preload Register on CCR2.
    528            * @param   NewState new state of the Capture Compare Preload register.
    529            * This parameter can be ENABLE or DISABLE.
    530            * @retval None
    531            */

   \                                 In section .far_func.text, align 1, keep-with-next
    532          void TIM3_OC2PreloadConfig(FunctionalState NewState)
    533          {
    534              /* Check the parameters */
    535              assert_param(IS_FUNCTIONALSTATE_OK(NewState));
   \                     TIM3_OC2PreloadConfig:
   \   000000 4D                    TNZ       A
   \   000001 2710                  JREQ      L:??TIM3_OC2PreloadConfig_0
   \   000003 A101                  CP        A, #0x1
   \   000005 2707                  JREQ      L:??CrossCallReturnLabel_37
   \   000007 AE0217                LDW       X, #0x217
   \   00000A 8D000000              CALLF     ?Subroutine5
    536          
    537              /* Set or Reset the OC2PE Bit */
    538              if (NewState != DISABLE)
    539              {
    540                  TIM3->CCMR2 |= TIM3_CCMR_OCxPE;
   \                     ??CrossCallReturnLabel_37:
   \   00000E 72165326              BSET      L:0x5326, #0x3
   \   000012 87                    RETF
    541              }
    542              else
    543              {
    544                  TIM3->CCMR2 &= (uint8_t)(~TIM3_CCMR_OCxPE);
   \                     ??TIM3_OC2PreloadConfig_0:
   \   000013 72175326              BRES      L:0x5326, #0x3
    545              }
    546          }
   \   000017 87                    RETF
    547          
    548          /**
    549            * @brief  Configures the TIM3 event to be generated by software.
    550            * @param   TIM3_EventSource specifies the event source.
    551            * This parameter can be one of the following values:
    552            *                       - TIM3_EVENTSOURCE_UPDATE: TIM3 update Event source
    553            *                       - TIM3_EVENTSOURCE_CC1: TIM3 Capture Compare 1 Event source
    554            *                       - TIM3_EVENTSOURCE_CC2: TIM3 Capture Compare 2 Event source
    555            * @retval None
    556            */

   \                                 In section .far_func.text, align 1, keep-with-next
    557          void TIM3_GenerateEvent(TIM3_EventSource_TypeDef TIM3_EventSource)
    558          {
   \                     TIM3_GenerateEvent:
   \   000000 3B0000                PUSH      S:?b8
   \   000003 B700                  LD        S:?b8, A
    559              /* Check the parameters */
    560              assert_param(IS_TIM3_EVENT_SOURCE_OK(TIM3_EventSource));
   \   000005 2607                  JRNE      L:??CrossCallReturnLabel_38
   \   000007 AE0230                LDW       X, #0x230
   \   00000A 8D000000              CALLF     ?Subroutine5
    561          
    562              /* Set the event sources */
    563              TIM3->EGR = (uint8_t)TIM3_EventSource;
   \                     ??CrossCallReturnLabel_38:
   \   00000E B600                  LD        A, S:?b8
   \   000010 C75324                LD        L:0x5324, A
    564          }
   \   000013 320000                POP       S:?b8
   \   000016 87                    RETF
    565          
    566          
    567          /**
    568            * @brief  Configures the TIM3 Channel 1 polarity.
    569            * @param   TIM3_OCPolarity specifies the OC1 Polarity.
    570            * This parameter can be one of the following values:
    571            *                       - TIM3_OCPOLARITY_LOW: Output Compare active low
    572            *                       - TIM3_OCPOLARITY_HIGH: Output Compare active high
    573            * @retval None
    574            */

   \                                 In section .far_func.text, align 1, keep-with-next
    575          void TIM3_OC1PolarityConfig(TIM3_OCPolarity_TypeDef TIM3_OCPolarity)
    576          {
    577              /* Check the parameters */
    578              assert_param(IS_TIM3_OC_POLARITY_OK(TIM3_OCPolarity));
   \                     TIM3_OC1PolarityConfig:
   \   000000 4D                    TNZ       A
   \   000001 2710                  JREQ      L:??TIM3_OC1PolarityConfig_0
   \   000003 A122                  CP        A, #0x22
   \   000005 2707                  JREQ      L:??CrossCallReturnLabel_39
   \   000007 AE0242                LDW       X, #0x242
   \   00000A 8D000000              CALLF     ?Subroutine5
    579          
    580              /* Set or Reset the CC1P Bit */
    581              if (TIM3_OCPolarity != TIM3_OCPOLARITY_HIGH)
    582              {
    583                  TIM3->CCER1 |= TIM3_CCER1_CC1P;
   \                     ??CrossCallReturnLabel_39:
   \   00000E 72125327              BSET      L:0x5327, #0x1
   \   000012 87                    RETF
    584              }
    585              else
    586              {
    587                  TIM3->CCER1 &= (uint8_t)(~TIM3_CCER1_CC1P);
   \                     ??TIM3_OC1PolarityConfig_0:
   \   000013 72135327              BRES      L:0x5327, #0x1
    588              }
    589          }
   \   000017 87                    RETF
    590          
    591          
    592          /**
    593            * @brief  Configures the TIM3 Channel 2 polarity.
    594            * @param   TIM3_OCPolarity specifies the OC2 Polarity.
    595            * This parameter can be one of the following values:
    596            *                       - TIM3_OCPOLARITY_LOW: Output Compare active low
    597            *                       - TIM3_OCPOLARITY_HIGH: Output Compare active high
    598            * @retval None
    599            */

   \                                 In section .far_func.text, align 1, keep-with-next
    600          void TIM3_OC2PolarityConfig(TIM3_OCPolarity_TypeDef TIM3_OCPolarity)
    601          {
    602              /* Check the parameters */
    603              assert_param(IS_TIM3_OC_POLARITY_OK(TIM3_OCPolarity));
   \                     TIM3_OC2PolarityConfig:
   \   000000 4D                    TNZ       A
   \   000001 2710                  JREQ      L:??TIM3_OC2PolarityConfig_0
   \   000003 A122                  CP        A, #0x22
   \   000005 2707                  JREQ      L:??CrossCallReturnLabel_40
   \   000007 AE025B                LDW       X, #0x25b
   \   00000A 8D000000              CALLF     ?Subroutine5
    604          
    605              /* Set or Reset the CC2P Bit */
    606              if (TIM3_OCPolarity != TIM3_OCPOLARITY_HIGH)
    607              {
    608                  TIM3->CCER1 |= TIM3_CCER1_CC2P;
   \                     ??CrossCallReturnLabel_40:
   \   00000E 721A5327              BSET      L:0x5327, #0x5
   \   000012 87                    RETF
    609              }
    610              else
    611              {
    612                  TIM3->CCER1 &= (uint8_t)(~TIM3_CCER1_CC2P);
   \                     ??TIM3_OC2PolarityConfig_0:
   \   000013 721B5327              BRES      L:0x5327, #0x5
    613              }
    614          }
   \   000017 87                    RETF
    615          
    616          
    617          /**
    618            * @brief  Enables or disables the TIM3 Capture Compare Channel x.
    619            * @param   TIM3_Channel specifies the TIM3 Channel.
    620            * This parameter can be one of the following values:
    621            *                       - TIM3_CHANNEL_1: TIM3 Channel1
    622            *                       - TIM3_CHANNEL_2: TIM3 Channel2
    623            * @param   NewState specifies the TIM3 Channel CCxE bit new state.
    624            * This parameter can be: ENABLE or DISABLE.
    625            * @retval None
    626            */

   \                                 In section .far_func.text, align 1, keep-with-next
    627          void TIM3_CCxCmd(TIM3_Channel_TypeDef TIM3_Channel, FunctionalState NewState)
    628          {
   \                     TIM3_CCxCmd:
   \   000000 8D000000              CALLF     L:?push_w4
   \   000004 B700                  LD        S:?b8, A
   \   000006 450000                MOV       S:?b9, S:?b0
    629              /* Check the parameters */
    630              assert_param(IS_TIM3_CHANNEL_OK(TIM3_Channel));
   \   000009 270B                  JREQ      L:??CrossCallReturnLabel_42
   \   00000B A101                  CP        A, #0x1
   \   00000D 2707                  JREQ      L:??CrossCallReturnLabel_42
   \   00000F AE0276                LDW       X, #0x276
   \   000012 8D000000              CALLF     ?Subroutine5
    631              assert_param(IS_FUNCTIONALSTATE_OK(NewState));
   \                     ??CrossCallReturnLabel_42:
   \   000016 3D00                  TNZ       S:?b9
   \   000018 270D                  JREQ      L:??CrossCallReturnLabel_41
   \   00001A B600                  LD        A, S:?b9
   \   00001C A101                  CP        A, #0x1
   \   00001E 2707                  JREQ      L:??CrossCallReturnLabel_41
   \   000020 AE0277                LDW       X, #0x277
   \   000023 8D000000              CALLF     ?Subroutine5
    632          
    633              if (TIM3_Channel == TIM3_CHANNEL_1)
   \                     ??CrossCallReturnLabel_41:
   \   000027 3D00                  TNZ       S:?b8
   \   000029 2614                  JRNE      L:??TIM3_CCxCmd_0
    634              {
    635                  /* Set or Reset the CC1E Bit */
    636                  if (NewState != DISABLE)
   \   00002B 3D00                  TNZ       S:?b9
   \   00002D 2708                  JREQ      L:??TIM3_CCxCmd_1
    637                  {
    638                      TIM3->CCER1 |= TIM3_CCER1_CC1E;
   \   00002F 72105327              BSET      L:0x5327, #0x0
   \   000033 AC000000              JPF       L:?epilogue_w4
    639                  }
    640                  else
    641                  {
    642                      TIM3->CCER1 &= (uint8_t)(~TIM3_CCER1_CC1E);
   \                     ??TIM3_CCxCmd_1:
   \   000037 72115327              BRES      L:0x5327, #0x0
   \   00003B AC000000              JPF       L:?epilogue_w4
    643                  }
    644          
    645              }
    646              else
    647              {
    648                  /* Set or Reset the CC2E Bit */
    649                  if (NewState != DISABLE)
   \                     ??TIM3_CCxCmd_0:
   \   00003F 3D00                  TNZ       S:?b9
   \   000041 2708                  JREQ      L:??TIM3_CCxCmd_2
    650                  {
    651                      TIM3->CCER1 |= TIM3_CCER1_CC2E;
   \   000043 72185327              BSET      L:0x5327, #0x4
   \   000047 AC000000              JPF       L:?epilogue_w4
    652                  }
    653                  else
    654                  {
    655                      TIM3->CCER1 &= (uint8_t)(~TIM3_CCER1_CC2E);
   \                     ??TIM3_CCxCmd_2:
   \   00004B 72195327              BRES      L:0x5327, #0x4
    656                  }
    657              }
    658          
    659          }
   \   00004F AC000000              JPF       L:?epilogue_w4
    660          
    661          /**
    662            * @brief  Selects the TIM3 Output Compare Mode. This function disables the
    663            * selected channel before changing the Output Compare Mode. User has to
    664            * enable this channel using TIM3_CCxCmd and TIM3_CCxNCmd functions.
    665            * @param   TIM3_Channel specifies the TIM3 Channel.
    666            * This parameter can be one of the following values:
    667            *                       - TIM3_CHANNEL_1: TIM3 Channel1
    668            *                       - TIM3_CHANNEL_2: TIM3 Channel2
    669            * @param   TIM3_OCMode specifies the TIM3 Output Compare Mode.
    670            * This paramter can be one of the following values:
    671            *                       - TIM3_OCMODE_TIMING
    672            *                       - TIM3_OCMODE_ACTIVE
    673            *                       - TIM3_OCMODE_TOGGLE
    674            *                       - TIM3_OCMODE_PWM1
    675            *                       - TIM3_OCMODE_PWM2
    676            *                       - TIM3_FORCEDACTION_ACTIVE
    677            *                       - TIM3_FORCEDACTION_INACTIVE
    678            * @retval None
    679            */

   \                                 In section .far_func.text, align 1, keep-with-next
    680          void TIM3_SelectOCxM(TIM3_Channel_TypeDef TIM3_Channel, TIM3_OCMode_TypeDef TIM3_OCMode)
    681          {
   \                     TIM3_SelectOCxM:
   \   000000 8D000000              CALLF     L:?push_w4
   \   000004 B700                  LD        S:?b8, A
   \   000006 450000                MOV       S:?b9, S:?b0
    682              /* Check the parameters */
    683              assert_param(IS_TIM3_CHANNEL_OK(TIM3_Channel));
   \   000009 270B                  JREQ      L:??CrossCallReturnLabel_44
   \   00000B A101                  CP        A, #0x1
   \   00000D 2707                  JREQ      L:??CrossCallReturnLabel_44
   \   00000F AE02AB                LDW       X, #0x2ab
   \   000012 8D000000              CALLF     ?Subroutine5
    684              assert_param(IS_TIM3_OCM_OK(TIM3_OCMode));
   \                     ??CrossCallReturnLabel_44:
   \   000016 3D00                  TNZ       S:?b9
   \   000018 2725                  JREQ      L:??CrossCallReturnLabel_43
   \   00001A B600                  LD        A, S:?b9
   \   00001C A110                  CP        A, #0x10
   \   00001E 271F                  JREQ      L:??CrossCallReturnLabel_43
   \   000020 A120                  CP        A, #0x20
   \   000022 271B                  JREQ      L:??CrossCallReturnLabel_43
   \   000024 A130                  CP        A, #0x30
   \   000026 2717                  JREQ      L:??CrossCallReturnLabel_43
   \   000028 A160                  CP        A, #0x60
   \   00002A 2713                  JREQ      L:??CrossCallReturnLabel_43
   \   00002C A170                  CP        A, #0x70
   \   00002E 270F                  JREQ      L:??CrossCallReturnLabel_43
   \   000030 A150                  CP        A, #0x50
   \   000032 270B                  JREQ      L:??CrossCallReturnLabel_43
   \   000034 A140                  CP        A, #0x40
   \   000036 2707                  JREQ      L:??CrossCallReturnLabel_43
   \   000038 AE02AC                LDW       X, #0x2ac
   \   00003B 8D000000              CALLF     ?Subroutine5
    685          
    686              if (TIM3_Channel == TIM3_CHANNEL_1)
   \                     ??CrossCallReturnLabel_43:
   \   00003F 3D00                  TNZ       S:?b8
   \   000041 2612                  JRNE      L:??TIM3_SelectOCxM_0
    687              {
    688                  /* Disable the Channel 1: Reset the CCE Bit */
    689                  TIM3->CCER1 &= (uint8_t)(~TIM3_CCER1_CC1E);
   \   000043 72115327              BRES      L:0x5327, #0x0
    690          
    691                  /* Reset the Output Compare Bits & Set the Output Compare Mode */
    692                  TIM3->CCMR1 = (uint8_t)((uint8_t)(TIM3->CCMR1 & (uint8_t)(~TIM3_CCMR_OCM)) | (uint8_t)TIM3_OCMode);
   \   000047 C65325                LD        A, L:0x5325
   \   00004A A48F                  AND       A, #0x8f
   \   00004C BA00                  OR        A, S:?b9
   \   00004E C75325                LD        L:0x5325, A
   \   000051 AC000000              JPF       L:?epilogue_w4
    693              }
    694              else
    695              {
    696                  /* Disable the Channel 2: Reset the CCE Bit */
    697                  TIM3->CCER1 &= (uint8_t)(~TIM3_CCER1_CC2E);
   \                     ??TIM3_SelectOCxM_0:
   \   000055 72195327              BRES      L:0x5327, #0x4
    698          
    699                  /* Reset the Output Compare Bits & Set the Output Compare Mode */
    700                  TIM3->CCMR2 = (uint8_t)((uint8_t)(TIM3->CCMR2 & (uint8_t)(~TIM3_CCMR_OCM)) | (uint8_t)TIM3_OCMode);
   \   000059 C65326                LD        A, L:0x5326
   \   00005C A48F                  AND       A, #0x8f
   \   00005E BA00                  OR        A, S:?b9
   \   000060 C75326                LD        L:0x5326, A
    701              }
    702          }
   \   000063 AC000000              JPF       L:?epilogue_w4
    703          
    704          
    705          /**
    706            * @brief  Sets the TIM3 Counter Register value.
    707            * @param   Counter specifies the Counter register new value.
    708            * This parameter is between 0x0000 and 0xFFFF.
    709            * @retval None
    710            */

   \                                 In section .far_func.text, align 1, keep-with-next
    711          void TIM3_SetCounter(uint16_t Counter)
    712          {
   \                     TIM3_SetCounter:
   \   000000 9093                  LDW       Y, X
    713              /* Set the Counter Register value */
    714              TIM3->CNTRH = (uint8_t)(Counter >> 8);
   \   000002 4F                    CLR       A
   \   000003 01                    RRWA      X, A
   \   000004 9F                    LD        A, XL
   \   000005 C75328                LD        L:0x5328, A
    715              TIM3->CNTRL = (uint8_t)(Counter);
   \   000008 909F                  LD        A, YL
   \   00000A C75329                LD        L:0x5329, A
    716          
    717          }
   \   00000D 87                    RETF
    718          
    719          
    720          /**
    721            * @brief  Sets the TIM3 Autoreload Register value.
    722            * @param   Autoreload specifies the Autoreload register new value.
    723            * This parameter is between 0x0000 and 0xFFFF.
    724            * @retval None
    725            */

   \                                 In section .far_func.text, align 1, keep-with-next
    726          void TIM3_SetAutoreload(uint16_t Autoreload)
    727          {
   \                     TIM3_SetAutoreload:
   \   000000 9093                  LDW       Y, X
    728              /* Set the Autoreload Register value */
    729              TIM3->ARRH = (uint8_t)(Autoreload >> 8);
   \   000002 8D000000              CALLF     ?Subroutine8
    730              TIM3->ARRL = (uint8_t)(Autoreload);
    731          }
   \                     ??CrossCallReturnLabel_55:
   \   000006 87                    RETF
    732          
    733          
    734          /**
    735            * @brief  Sets the TIM3 Capture Compare1 Register value.
    736            * @param   Compare1 specifies the Capture Compare1 register new value.
    737            * This parameter is between 0x0000 and 0xFFFF.
    738            * @retval None
    739            */

   \                                 In section .far_func.text, align 1, keep-with-next
    740          void TIM3_SetCompare1(uint16_t Compare1)
    741          {
   \                     TIM3_SetCompare1:
   \   000000 9093                  LDW       Y, X
    742              /* Set the Capture Compare1 Register value */
    743              TIM3->CCR1H = (uint8_t)(Compare1 >> 8);
   \   000002 4F                    CLR       A
   \   000003 01                    RRWA      X, A
   \   000004 9F                    LD        A, XL
   \   000005 C7532D                LD        L:0x532d, A
    744              TIM3->CCR1L = (uint8_t)(Compare1);
   \   000008 909F                  LD        A, YL
   \   00000A C7532E                LD        L:0x532e, A
    745          }
   \   00000D 87                    RETF
    746          
    747          
    748          /**
    749            * @brief  Sets the TIM3 Capture Compare2 Register value.
    750            * @param   Compare2 specifies the Capture Compare2 register new value.
    751            * This parameter is between 0x0000 and 0xFFFF.
    752            * @retval None
    753            */

   \                                 In section .far_func.text, align 1, keep-with-next
    754          void TIM3_SetCompare2(uint16_t Compare2)
    755          {
   \                     TIM3_SetCompare2:
   \   000000 9093                  LDW       Y, X
    756              /* Set the Capture Compare2 Register value */
    757              TIM3->CCR2H = (uint8_t)(Compare2 >> 8);
   \   000002 4F                    CLR       A
   \   000003 01                    RRWA      X, A
   \   000004 9F                    LD        A, XL
   \   000005 C7532F                LD        L:0x532f, A
    758              TIM3->CCR2L = (uint8_t)(Compare2);
   \   000008 909F                  LD        A, YL
   \   00000A C75330                LD        L:0x5330, A
    759          }
   \   00000D 87                    RETF
    760          
    761          
    762          /**
    763            * @brief  Sets the TIM3 Input Capture 1 prescaler.
    764            * @param   TIM3_IC1Prescaler specifies the Input Capture prescaler new value
    765            * This parameter can be one of the following values:
    766            *                       - TIM3_ICPSC_DIV1: no prescaler
    767            *                       - TIM3_ICPSC_DIV2: capture is done once every 2 events
    768            *                       - TIM3_ICPSC_DIV4: capture is done once every 4 events
    769            *                       - TIM3_ICPSC_DIV8: capture is done once every 8 events
    770            * @retval None
    771            */

   \                                 In section .far_func.text, align 1, keep-with-next
    772          void TIM3_SetIC1Prescaler(TIM3_ICPSC_TypeDef TIM3_IC1Prescaler)
    773          {
   \                     TIM3_SetIC1Prescaler:
   \   000000 3B0000                PUSH      S:?b8
   \   000003 B700                  LD        S:?b8, A
    774              /* Check the parameters */
    775              assert_param(IS_TIM3_IC_PRESCALER_OK(TIM3_IC1Prescaler));
   \   000005 2713                  JREQ      L:??CrossCallReturnLabel_45
   \   000007 A104                  CP        A, #0x4
   \   000009 270F                  JREQ      L:??CrossCallReturnLabel_45
   \   00000B A108                  CP        A, #0x8
   \   00000D 270B                  JREQ      L:??CrossCallReturnLabel_45
   \   00000F A10C                  CP        A, #0xc
   \   000011 2707                  JREQ      L:??CrossCallReturnLabel_45
   \   000013 AE0307                LDW       X, #0x307
   \   000016 8D000000              CALLF     ?Subroutine5
    776          
    777              /* Reset the IC1PSC Bits & Set the IC1PSC value */
    778              TIM3->CCMR1 = (uint8_t)((uint8_t)(TIM3->CCMR1 & (uint8_t)(~TIM3_CCMR_ICxPSC)) | (uint8_t)TIM3_IC1Prescaler);
   \                     ??CrossCallReturnLabel_45:
   \   00001A C65325                LD        A, L:0x5325
   \   00001D A4F3                  AND       A, #0xf3
   \   00001F BA00                  OR        A, S:?b8
   \   000021 C75325                LD        L:0x5325, A
    779          }
   \   000024 320000                POP       S:?b8
   \   000027 87                    RETF
    780          
    781          /**
    782            * @brief  Sets the TIM3 Input Capture 2 prescaler.
    783            * @param   TIM3_IC2Prescaler specifies the Input Capture prescaler new value
    784            * This parameter can be one of the following values:
    785            *                       - TIM3_ICPSC_DIV1: no prescaler
    786            *                       - TIM3_ICPSC_DIV2: capture is done once every 2 events
    787            *                       - TIM3_ICPSC_DIV4: capture is done once every 4 events
    788            *                       - TIM3_ICPSC_DIV8: capture is done once every 8 events
    789            * @retval None
    790            */

   \                                 In section .far_func.text, align 1, keep-with-next
    791          void TIM3_SetIC2Prescaler(TIM3_ICPSC_TypeDef TIM3_IC2Prescaler)
    792          {
   \                     TIM3_SetIC2Prescaler:
   \   000000 3B0000                PUSH      S:?b8
   \   000003 B700                  LD        S:?b8, A
    793              /* Check the parameters */
    794              assert_param(IS_TIM3_IC_PRESCALER_OK(TIM3_IC2Prescaler));
   \   000005 2713                  JREQ      L:??CrossCallReturnLabel_46
   \   000007 A104                  CP        A, #0x4
   \   000009 270F                  JREQ      L:??CrossCallReturnLabel_46
   \   00000B A108                  CP        A, #0x8
   \   00000D 270B                  JREQ      L:??CrossCallReturnLabel_46
   \   00000F A10C                  CP        A, #0xc
   \   000011 2707                  JREQ      L:??CrossCallReturnLabel_46
   \   000013 AE031A                LDW       X, #0x31a
   \   000016 8D000000              CALLF     ?Subroutine5
    795          
    796              /* Reset the IC1PSC Bits & Set the IC1PSC value */
    797              TIM3->CCMR2 = (uint8_t)((uint8_t)(TIM3->CCMR2 & (uint8_t)(~TIM3_CCMR_ICxPSC)) | (uint8_t)TIM3_IC2Prescaler);
   \                     ??CrossCallReturnLabel_46:
   \   00001A C65326                LD        A, L:0x5326
   \   00001D A4F3                  AND       A, #0xf3
   \   00001F BA00                  OR        A, S:?b8
   \   000021 C75326                LD        L:0x5326, A
    798          }
   \   000024 320000                POP       S:?b8
   \   000027 87                    RETF
    799          /**
    800            * @brief  Gets the TIM3 Input Capture 1 value.
    801            * @param  None
    802            * @retval Capture Compare 1 Register value.
    803            */

   \                                 In section .far_func.text, align 1
    804          uint16_t TIM3_GetCapture1(void)
    805          {
    806              /* Get the Capture 1 Register value */
    807              uint16_t tmpccr1 = 0;
    808              uint8_t tmpccr1l=0, tmpccr1h=0;
    809          
    810              tmpccr1h = TIM3->CCR1H;
   \                     TIM3_GetCapture1:
   \   000000 C6532D                LD        A, L:0x532d
   \   000003 B700                  LD        S:?b1, A
    811              tmpccr1l = TIM3->CCR1L;
   \   000005 C6532E                LD        A, L:0x532e
   \   000008 8D000000              CALLF     ?Subroutine0
    812          
    813              tmpccr1 = (uint16_t)(tmpccr1l);
    814              tmpccr1 |= (uint16_t)((uint16_t)tmpccr1h << 8);
    815              /* Get the Capture 1 Register value */
    816              return (uint16_t)tmpccr1;
   \                     ??CrossCallReturnLabel_1:
   \   00000C 87                    RETF
    817          }

   \                                 In section .far_func.text, align 1
   \                     ?Subroutine0:
   \   000000 B700                  LD        S:?b0, A
   \   000002 5F                    CLRW      X
   \   000003 41                    EXG       A, XL
   \   000004 B600                  LD        A, S:?b1
   \   000006 41                    EXG       A, XL
   \   000007 4F                    CLR       A
   \   000008 02                    RLWA      X, A
   \   000009 905F                  CLRW      Y
   \   00000B B600                  LD        A, S:?b0
   \   00000D 61                    EXG       A, YL
   \   00000E BF00                  LDW       S:?w0, X
   \   000010 93                    LDW       X, Y
   \   000011 02                    RLWA      X, A
   \   000012 BA00                  OR        A, S:?b0
   \   000014 01                    RRWA      X, A
   \   000015 87                    RETF
    818          
    819          /**
    820            * @brief  Gets the TIM3 Input Capture 2 value.
    821            * @param  None
    822            * @retval Capture Compare 2 Register value.
    823            */

   \                                 In section .far_func.text, align 1
    824          uint16_t TIM3_GetCapture2(void)
    825          {
    826              /* Get the Capture 2 Register value */
    827              uint16_t tmpccr2 = 0;
    828              uint8_t tmpccr2l=0, tmpccr2h=0;
    829          
    830              tmpccr2h = TIM3->CCR2H;
   \                     TIM3_GetCapture2:
   \   000000 C6532F                LD        A, L:0x532f
   \   000003 B700                  LD        S:?b1, A
    831              tmpccr2l = TIM3->CCR2L;
   \   000005 C65330                LD        A, L:0x5330
   \   000008 8D000000              CALLF     ?Subroutine0
    832          
    833              tmpccr2 = (uint16_t)(tmpccr2l);
    834              tmpccr2 |= (uint16_t)((uint16_t)tmpccr2h << 8);
    835              /* Get the Capture 2 Register value */
    836              return (uint16_t)tmpccr2;
   \                     ??CrossCallReturnLabel_0:
   \   00000C 87                    RETF
    837          }
    838          
    839          /**
    840            * @brief  Gets the TIM3 Counter value.
    841            * @param  None
    842            * @retval Counter Register value.
    843            */

   \                                 In section .far_func.text, align 1
    844          uint16_t TIM3_GetCounter(void)
    845          {
    846             uint16_t tmpcntr = 0;
    847            
    848             tmpcntr = ((uint16_t)TIM3->CNTRH << 8);
   \                     TIM3_GetCounter:
   \   000000 C65328                LD        A, L:0x5328
    849             /* Get the Counter Register value */
    850              return (uint16_t)( tmpcntr| (uint16_t)(TIM3->CNTRL));
   \   000003 5F                    CLRW      X
   \   000004 97                    LD        XL, A
   \   000005 4F                    CLR       A
   \   000006 02                    RLWA      X, A
   \   000007 C65329                LD        A, L:0x5329
   \   00000A 905F                  CLRW      Y
   \   00000C 9097                  LD        YL, A
   \   00000E 90BF00                LDW       S:?w0, Y
   \   000011 01                    RRWA      X, A
   \   000012 BA00                  OR        A, S:?b1
   \   000014 02                    RLWA      X, A
   \   000015 87                    RETF
    851          }
    852          
    853          
    854          /**
    855            * @brief  Gets the TIM3 Prescaler value.
    856            * @param  None
    857            * @retval Prescaler Register configuration value @ref TIM3_Prescaler_TypeDef.
    858            */

   \                                 In section .far_func.text, align 1
    859          TIM3_Prescaler_TypeDef TIM3_GetPrescaler(void)
    860          {
    861              /* Get the Prescaler Register value */
    862              return (TIM3_Prescaler_TypeDef)(TIM3->PSCR);
   \                     TIM3_GetPrescaler:
   \   000000 C6532A                LD        A, L:0x532a
   \   000003 87                    RETF
    863          }
    864          
    865          
    866          /**
    867            * @brief  Checks whether the specified TIM3 flag is set or not.
    868            * @param   TIM3_FLAG specifies the flag to check.
    869            * This parameter can be one of the following values:
    870            *                       - TIM3_FLAG_UPDATE: TIM3 update Flag
    871            *                       - TIM3_FLAG_CC1: TIM3 Capture Compare 1 Flag
    872            *                       - TIM3_FLAG_CC2: TIM3 Capture Compare 2 Flag
    873            *                       - TIM3_FLAG_CC1OF: TIM3 Capture Compare 1 over capture Flag
    874            *                       - TIM3_FLAG_CC2OF: TIM3 Capture Compare 2 over capture Flag
    875            * @retval FlagStatus The new state of TIM3_FLAG (SET or RESET).
    876            */

   \                                 In section .far_func.text, align 1
    877          FlagStatus TIM3_GetFlagStatus(TIM3_FLAG_TypeDef TIM3_FLAG)
    878          {
   \                     TIM3_GetFlagStatus:
   \   000000 8D000000              CALLF     L:?push_w4
   \   000004 BF00                  LDW       S:?w4, X
    879             FlagStatus bitstatus = RESET;
    880             uint8_t tim3_flag_l = 0, tim3_flag_h = 0;
    881          
    882              /* Check the parameters */
    883              assert_param(IS_TIM3_GET_FLAG_OK(TIM3_FLAG));
   \   000006 A30001                CPW       X, #0x1
   \   000009 271B                  JREQ      L:??CrossCallReturnLabel_47
   \   00000B A30002                CPW       X, #0x2
   \   00000E 2716                  JREQ      L:??CrossCallReturnLabel_47
   \   000010 A30004                CPW       X, #0x4
   \   000013 2711                  JREQ      L:??CrossCallReturnLabel_47
   \   000015 A30200                CPW       X, #0x200
   \   000018 270C                  JREQ      L:??CrossCallReturnLabel_47
   \   00001A A30400                CPW       X, #0x400
   \   00001D 2707                  JREQ      L:??CrossCallReturnLabel_47
   \   00001F AE0373                LDW       X, #0x373
   \   000022 8D000000              CALLF     ?Subroutine5
    884          
    885              tim3_flag_l = (uint8_t)(TIM3->SR1 & (uint8_t)TIM3_FLAG);
   \                     ??CrossCallReturnLabel_47:
   \   000026 C65322                LD        A, L:0x5322
   \   000029 B700                  LD        S:?b1, A
    886              tim3_flag_h = (uint8_t)((uint16_t)TIM3_FLAG >> 8);
    887          
    888              if (((tim3_flag_l) | (uint8_t)(TIM3->SR2 & tim3_flag_h)) != (uint8_t)RESET )
   \   00002B BE00                  LDW       X, S:?w4
   \   00002D 4F                    CLR       A
   \   00002E 01                    RRWA      X, A
   \   00002F 9F                    LD        A, XL
   \   000030 C45323                AND       A, L:0x5323
   \   000033 88                    PUSH      A
   \   000034 B600                  LD        A, S:?b9
   \   000036 B400                  AND       A, S:?b1
   \   000038 B700                  LD        S:?b1, A
   \   00003A 84                    POP       A
   \   00003B BA00                  OR        A, S:?b1
   \   00003D 2706                  JREQ      L:??TIM3_GetFlagStatus_0
    889              {
    890                  bitstatus = SET;
   \   00003F A601                  LD        A, #0x1
   \   000041 AC000000              JPF       L:?epilogue_w4
    891              }
    892              else
    893              {
    894                  bitstatus = RESET;
   \                     ??TIM3_GetFlagStatus_0:
   \   000045 4F                    CLR       A
    895              }
    896              return (FlagStatus)bitstatus;
   \   000046 AC000000              JPF       L:?epilogue_w4
    897          }
    898          
    899          
    900          /**
    901            * @brief  Clears the TIM3’s pending flags.
    902            * @param   TIM3_FLAG specifies the flag to clear.
    903            * This parameter can be one of the following values:
    904            *                       - TIM3_FLAG_UPDATE: TIM3 update Flag
    905            *                       - TIM3_FLAG_CC1: TIM3 Capture Compare 1 Flag
    906            *                       - TIM3_FLAG_CC2: TIM3 Capture Compare 2 Flag
    907            *                       - TIM3_FLAG_CC1OF: TIM3 Capture Compare 1 over capture Flag
    908            *                       - TIM3_FLAG_CC2OF: TIM3 Capture Compare 2 over capture Flag
    909            * @retval None.
    910            */

   \                                 In section .far_func.text, align 1
    911          void TIM3_ClearFlag(TIM3_FLAG_TypeDef TIM3_FLAG)
    912          {
   \                     TIM3_ClearFlag:
   \   000000 8D000000              CALLF     L:?push_w4
   \   000004 BF00                  LDW       S:?w4, X
    913              /* Check the parameters */
    914              assert_param(IS_TIM3_CLEAR_FLAG_OK(TIM3_FLAG));
   \   000006 02                    RLWA      X, A
   \   000007 A4F9                  AND       A, #0xf9
   \   000009 02                    RLWA      X, A
   \   00000A A4F8                  AND       A, #0xf8
   \   00000C 02                    RLWA      X, A
   \   00000D 5D                    TNZW      X
   \   00000E 2604                  JRNE      L:??TIM3_ClearFlag_0
   \   000010 BE00                  LDW       X, S:?w4
   \   000012 2607                  JRNE      L:??CrossCallReturnLabel_48
   \                     ??TIM3_ClearFlag_0:
   \   000014 AE0392                LDW       X, #0x392
   \   000017 8D000000              CALLF     ?Subroutine5
    915          
    916              /* Clear the flags (rc_w0) clear this bit by writing 0. Writing ‘1’ has no effect*/
    917              TIM3->SR1 = (uint8_t)(~((uint8_t)(TIM3_FLAG)));
   \                     ??CrossCallReturnLabel_48:
   \   00001B B600                  LD        A, S:?b9
   \   00001D 43                    CPL       A
   \   00001E C75322                LD        L:0x5322, A
    918              TIM3->SR2 = (uint8_t)(~((uint8_t)((uint16_t)TIM3_FLAG >> 8)));
   \   000021 BE00                  LDW       X, S:?w4
   \   000023 4F                    CLR       A
   \   000024 01                    RRWA      X, A
   \   000025 9F                    LD        A, XL
   \   000026 43                    CPL       A
   \   000027 C75323                LD        L:0x5323, A
    919          }
   \   00002A AC000000              JPF       L:?epilogue_w4
    920          
    921          
    922          /**
    923            * @brief  Checks whether the TIM3 interrupt has occurred or not.
    924            * @param   TIM3_IT specifies the TIM3 interrupt source to check.
    925            * This parameter can be one of the following values:
    926            *                       - TIM3_IT_UPDATE: TIM3 update Interrupt source
    927            *                       - TIM3_IT_CC1: TIM3 Capture Compare 1 Interrupt source
    928            *                       - TIM3_IT_CC2: TIM3 Capture Compare 2 Interrupt source
    929            * @retval ITStatus The new state of the TIM3_IT(SET or RESET).
    930            */
    931          

   \                                 In section .far_func.text, align 1
    932          ITStatus TIM3_GetITStatus(TIM3_IT_TypeDef TIM3_IT)
    933          {
   \                     TIM3_GetITStatus:
   \   000000 3B0000                PUSH      S:?b8
   \   000003 B700                  LD        S:?b8, A
    934              ITStatus bitstatus = RESET;
    935              uint8_t TIM3_itStatus = 0, TIM3_itEnable = 0;
    936          
    937              /* Check the parameters */
    938              assert_param(IS_TIM3_GET_IT_OK(TIM3_IT));
   \   000005 A101                  CP        A, #0x1
   \   000007 270F                  JREQ      L:??CrossCallReturnLabel_49
   \   000009 A102                  CP        A, #0x2
   \   00000B 270B                  JREQ      L:??CrossCallReturnLabel_49
   \   00000D A104                  CP        A, #0x4
   \   00000F 2707                  JREQ      L:??CrossCallReturnLabel_49
   \   000011 AE03AA                LDW       X, #0x3aa
   \   000014 8D000000              CALLF     ?Subroutine5
    939          
    940              TIM3_itStatus = (uint8_t)(TIM3->SR1 & TIM3_IT);
   \                     ??CrossCallReturnLabel_49:
   \   000018 C65322                LD        A, L:0x5322
   \   00001B B700                  LD        S:?b1, A
    941          
    942              TIM3_itEnable = (uint8_t)(TIM3->IER & TIM3_IT);
   \   00001D B600                  LD        A, S:?b8
   \   00001F C45321                AND       A, L:0x5321
   \   000022 B700                  LD        S:?b0, A
    943          
    944              if ((TIM3_itStatus != (uint8_t)RESET ) && (TIM3_itEnable != (uint8_t)RESET ))
   \   000024 B600                  LD        A, S:?b8
   \   000026 B500                  BCP       A, S:?b1
   \   000028 2708                  JREQ      L:??TIM3_GetITStatus_0
   \   00002A 3D00                  TNZ       S:?b0
   \   00002C 2704                  JREQ      L:??TIM3_GetITStatus_0
    945              {
    946                  bitstatus = SET;
   \   00002E A601                  LD        A, #0x1
   \   000030 2001                  JRA       L:??TIM3_GetITStatus_1
    947              }
    948              else
    949              {
    950                  bitstatus = RESET;
   \                     ??TIM3_GetITStatus_0:
   \   000032 4F                    CLR       A
    951              }
    952              return (ITStatus)(bitstatus);
   \                     ??TIM3_GetITStatus_1:
   \   000033 320000                POP       S:?b8
   \   000036 87                    RETF
    953          }
    954          
    955          
    956          /**
    957            * @brief  Clears the TIM3's interrupt pending bits.
    958            * @param   TIM3_IT specifies the pending bit to clear.
    959            * This parameter can be one of the following values:
    960            *                       - TIM3_IT_UPDATE: TIM3 update Interrupt source
    961            *                       - TIM3_IT_CC1: TIM3 Capture Compare 1 Interrupt source
    962            *                       - TIM3_IT_CC2: TIM3 Capture Compare 2 Interrupt source
    963            * @retval None.
    964            */

   \                                 In section .far_func.text, align 1
    965          void TIM3_ClearITPendingBit(TIM3_IT_TypeDef TIM3_IT)
    966          {
   \                     TIM3_ClearITPendingBit:
   \   000000 3B0000                PUSH      S:?b8
   \   000003 B700                  LD        S:?b8, A
    967              /* Check the parameters */
    968              assert_param(IS_TIM3_IT_OK(TIM3_IT));
   \   000005 2704                  JREQ      L:??TIM3_ClearITPendingBit_0
   \   000007 A108                  CP        A, #0x8
   \   000009 2507                  JRC       L:??CrossCallReturnLabel_50
   \                     ??TIM3_ClearITPendingBit_0:
   \   00000B AE03C8                LDW       X, #0x3c8
   \   00000E 8D000000              CALLF     ?Subroutine5
    969          
    970              /* Clear the IT pending Bit */
    971              TIM3->SR1 = (uint8_t)(~TIM3_IT);
   \                     ??CrossCallReturnLabel_50:
   \   000012 3300                  CPL       S:?b8
   \   000014 B600                  LD        A, S:?b8
   \   000016 C75322                LD        L:0x5322, A
    972          }
   \   000019 320000                POP       S:?b8
   \   00001C 87                    RETF
    973          
    974          
    975          /**
    976            * @brief  Configure the TI1 as Input.
    977            * @param   TIM3_ICPolarity  The Input Polarity.
    978            * This parameter can be one of the following values:
    979            *                       - TIM3_ICPOLARITY_FALLING
    980            *                       - TIM3_ICPOLARITY_RISING
    981            * @param   TIM3_ICSelection specifies the input to be used.
    982            * This parameter can be one of the following values:
    983            *                       - TIM3_ICSELECTION_DIRECTTI: TIM3 Input 1 is selected to
    984            *                         be connected to IC1.
    985            *                       - TIM3_ICSELECTION_INDIRECTTI: TIM3 Input 1 is selected to
    986            *                         be connected to IC2.
    987            * @param   TIM3_ICFilter Specifies the Input Capture Filter.
    988            * This parameter must be a value between 0x00 and 0x0F.
    989            * @retval None
    990            */

   \                                 In section .far_func.text, align 1
    991          static void TI1_Config(uint8_t TIM3_ICPolarity,
    992                                 uint8_t TIM3_ICSelection,
    993                                 uint8_t TIM3_ICFilter)
    994          {
   \                     TI1_Config:
   \   000000 B700                  LD        S:?b2, A
    995              /* Disable the Channel 1: Reset the CCE Bit */
    996              TIM3->CCER1 &= (uint8_t)(~TIM3_CCER1_CC1E);
   \   000002 72115327              BRES      L:0x5327, #0x0
    997          
    998              /* Select the Input and set the filter */
    999              TIM3->CCMR1 = (uint8_t)((uint8_t)(TIM3->CCMR1 & (uint8_t)(~( TIM3_CCMR_CCxS | TIM3_CCMR_ICxF))) | (uint8_t)(( (TIM3_ICSelection)) | ((uint8_t)( TIM3_ICFilter << 4))));
   \   000006 C65325                LD        A, L:0x5325
   \   000009 8D000000              CALLF     ?Subroutine1
   \                     ??CrossCallReturnLabel_3:
   \   00000D C75325                LD        L:0x5325, A
   1000          
   1001              /* Select the Polarity */
   1002              if (TIM3_ICPolarity != TIM3_ICPOLARITY_RISING)
   \   000010 3D00                  TNZ       S:?b2
   \   000012 2706                  JREQ      L:??TI1_Config_0
   1003              {
   1004                  TIM3->CCER1 |= TIM3_CCER1_CC1P;
   \   000014 72125327              BSET      L:0x5327, #0x1
   \   000018 2004                  JRA       L:??TI1_Config_1
   1005              }
   1006              else
   1007              {
   1008                  TIM3->CCER1 &= (uint8_t)(~TIM3_CCER1_CC1P);
   \                     ??TI1_Config_0:
   \   00001A 72135327              BRES      L:0x5327, #0x1
   1009              }
   1010              /* Set the CCE Bit */
   1011              TIM3->CCER1 |= TIM3_CCER1_CC1E;
   \                     ??TI1_Config_1:
   \   00001E 72105327              BSET      L:0x5327, #0x0
   1012          }
   \   000022 87                    RETF

   \                                 In section .far_func.text, align 1
   \                     ?Subroutine1:
   \   000000 A40C                  AND       A, #0xc
   \   000002 BA00                  OR        A, S:?b0
   \   000004 B700                  LD        S:?b0, A
   \   000006 B600                  LD        A, S:?b1
   \   000008 4E                    SWAP      A
   \   000009 A4F0                  AND       A, #0xf0
   \   00000B BA00                  OR        A, S:?b0
   \   00000D 87                    RETF
   1013          
   1014          
   1015          /**
   1016            * @brief  Configure the TI2 as Input.
   1017            * @param   TIM3_ICPolarity  The Input Polarity.
   1018            * This parameter can be one of the following values:
   1019            *                       - TIM3_ICPOLARITY_FALLING
   1020            *                       - TIM3_ICPOLARITY_RISING
   1021            * @param   TIM3_ICSelection specifies the input to be used.
   1022            * This parameter can be one of the following values:
   1023            *                       - TIM3_ICSELECTION_DIRECTTI: TIM3 Input 2 is selected to
   1024            *                         be connected to IC2.
   1025            *                       - TIM3_ICSELECTION_INDIRECTTI: TIM3 Input 2 is selected to
   1026            *                         be connected to IC1.
   1027            * @param   TIM3_ICFilter Specifies the Input Capture Filter.
   1028            * This parameter must be a value between 0x00 and 0x0F.
   1029            * @retval None
   1030            */

   \                                 In section .far_func.text, align 1
   1031          static void TI2_Config(uint8_t TIM3_ICPolarity,
   1032                                 uint8_t TIM3_ICSelection,
   1033                                 uint8_t TIM3_ICFilter)
   1034          {
   \                     TI2_Config:
   \   000000 B700                  LD        S:?b2, A
   1035              /* Disable the Channel 2: Reset the CCE Bit */
   1036              TIM3->CCER1 &=  (uint8_t)(~TIM3_CCER1_CC2E);
   \   000002 72195327              BRES      L:0x5327, #0x4
   1037          
   1038              /* Select the Input and set the filter */
   1039              TIM3->CCMR2 = (uint8_t)((uint8_t)(TIM3->CCMR2 & (uint8_t)(~( TIM3_CCMR_CCxS |
   1040                            TIM3_CCMR_ICxF    ))) | (uint8_t)(( (TIM3_ICSelection)) | 
   1041                            ((uint8_t)( TIM3_ICFilter << 4))));
   \   000006 C65326                LD        A, L:0x5326
   \   000009 8D000000              CALLF     ?Subroutine1
   \                     ??CrossCallReturnLabel_2:
   \   00000D C75326                LD        L:0x5326, A
   1042          
   1043              /* Select the Polarity */
   1044              if (TIM3_ICPolarity != TIM3_ICPOLARITY_RISING)
   \   000010 3D00                  TNZ       S:?b2
   \   000012 2706                  JREQ      L:??TI2_Config_0
   1045              {
   1046                  TIM3->CCER1 |= TIM3_CCER1_CC2P;
   \   000014 721A5327              BSET      L:0x5327, #0x5
   \   000018 2004                  JRA       L:??TI2_Config_1
   1047              }
   1048              else
   1049              {
   1050                  TIM3->CCER1 &= (uint8_t)(~TIM3_CCER1_CC2P);
   \                     ??TI2_Config_0:
   \   00001A 721B5327              BRES      L:0x5327, #0x5
   1051              }
   1052          
   1053              /* Set the CCE Bit */
   1054              TIM3->CCER1 |= TIM3_CCER1_CC2E;
   \                     ??TI2_Config_1:
   \   00001E 72185327              BSET      L:0x5327, #0x4
   1055          
   1056          }
   \   000022 87                    RETF

   \                                 In section .near.rodata, align 1
   \                     `?<Constant "C:\\\\Documents and Sett...">`:
   \   000000 433A5C446F63          DC8 43H, 3AH, 5CH, 44H, 6FH, 63H, 75H, 6DH
   \   000008 656E74732061          DC8 65H, 6EH, 74H, 73H, 20H, 61H, 6EH, 64H
   \   000010 205365747469          DC8 20H, 53H, 65H, 74H, 74H, 69H, 6EH, 67H
   \   000018 735C41646D69          DC8 73H, 5CH, 41H, 64H, 6DH, 69H, 6EH, 69H
   \   000020 73747261746F          DC8 73H, 74H, 72H, 61H, 74H, 6FH, 72H, 5CH
   \   000028 4465736B746F          DC8 44H, 65H, 73H, 6BH, 74H, 6FH, 70H, 5CH
   \   000030 566F6C743253          DC8 56H, 6FH, 6CH, 74H, 32H, 53H, 65H, 72H
   \   000038 69616C5C4C69          DC8 69H, 61H, 6CH, 5CH, 4CH, 69H, 62H, 72H
   \   000040 61726965735C          DC8 61H, 72H, 69H, 65H, 73H, 5CH, 53H, 54H
   \   000048 4D38535F5374          DC8 4DH, 38H, 53H, 5FH, 53H, 74H, 64H, 50H
   \   000050 65726970685F          DC8 65H, 72H, 69H, 70H, 68H, 5FH, 44H, 72H
   \   000058 697665725C73          DC8 69H, 76H, 65H, 72H, 5CH, 73H, 72H, 63H
   \   000060 5C73746D3873          DC8 5CH, 73H, 74H, 6DH, 38H, 73H, 5FH, 74H
   \   000068 696D332E6300          DC8 69H, 6DH, 33H, 2EH, 63H, 0
   1057          /**
   1058            * @}
   1059            */
   1060            
   1061            /**
   1062            * @}
   1063            */
   1064            
   1065          /******************* (C) COPYRIGHT 2011 STMicroelectronics *****END OF FILE****/

   Section sizes:

     Function/Label                          Bytes
     --------------                          -----
     TIM3_DeInit                               69
     TIM3_TimeBaseInit                         10
     ?Subroutine8                              12
     ?Subroutine5                              12
     TIM3_OC1Init                             134
     ?Subroutine4                              11
     ?Subroutine2                              13
     TIM3_OC2Init                             134
     ?Subroutine3                              11
     TIM3_ICInit                              123
     ?Subroutine10                             11
     ?Subroutine9                              15
     ?Subroutine7                               7
     ?Subroutine11                             10
     ?Subroutine6                               7
     ?Subroutine12                             10
     TIM3_PWMIConfig                          168
     TIM3_Cmd                                  24
     TIM3_ITConfig                             60
     TIM3_UpdateDisableConfig                  24
     TIM3_UpdateRequestConfig                  24
     TIM3_SelectOnePulseMode                   24
     TIM3_PrescalerConfig                     113
     TIM3_ForcedOC1Config                      28
     TIM3_ForcedOC2Config                      28
     TIM3_ARRPreloadConfig                     24
     TIM3_OC1PreloadConfig                     24
     TIM3_OC2PreloadConfig                     24
     TIM3_GenerateEvent                        23
     TIM3_OC1PolarityConfig                    24
     TIM3_OC2PolarityConfig                    24
     TIM3_CCxCmd                               83
     TIM3_SelectOCxM                          103
     TIM3_SetCounter                           14
     TIM3_SetAutoreload                         7
     TIM3_SetCompare1                          14
     TIM3_SetCompare2                          14
     TIM3_SetIC1Prescaler                      40
     TIM3_SetIC2Prescaler                      40
     TIM3_GetCapture1                          13
     ?Subroutine0                              22
     TIM3_GetCapture2                          13
     TIM3_GetCounter                           22
     TIM3_GetPrescaler                          4
     TIM3_GetFlagStatus                        74
     TIM3_ClearFlag                            46
     TIM3_GetITStatus                          55
     TIM3_ClearITPendingBit                    29
     TI1_Config                                35
     ?Subroutine1                              14
     TI2_Config                                35
     ?<Constant "C:\\Documents and Sett...">  110

 
 1 902 bytes in section .far_func.text
   110 bytes in section .near.rodata
 
 1 902 bytes of CODE  memory
   110 bytes of CONST memory

Errors: none
Warnings: none
