###############################################################################
#                                                                             #
# IAR C/C++ Compiler V1.30.1.50036 for STM8             15/Aug/2013  16:42:13 #
# Copyright 2010-2011 IAR Systems AB.                                         #
#                                                                             #
#    Source file  =  C:\Documents and Settings\Administrator\Desktop\stm8s105 #
#                    k-controller\Libraries\STM8S_StdPeriph_Driver\src\stm8s_ #
#                    wwdg.c                                                   #
#    Command line =  "C:\Documents and Settings\Administrator\Desktop\stm8s10 #
#                    5k-controller\Libraries\STM8S_StdPeriph_Driver\src\stm8s #
#                    _wwdg.c" -e -Ohz --debug --code_model medium             #
#                    --data_model medium -o "C:\Documents and                 #
#                    Settings\Administrator\Desktop\stm8s105k-controller\Proj #
#                    ect\STM8S_StdPeriph_Template\EWSTM8\STM8S105\Obj\"       #
#                    --dlib_config "C:\Program Files\IAR Systems\Embedded     #
#                    Workbench 6.0\stm8\LIB\dlstm8mmf.h" -D STM8S105 -lC      #
#                    "C:\Documents and Settings\Administrator\Desktop\stm8s10 #
#                    5k-controller\Project\STM8S_StdPeriph_Template\EWSTM8\ST #
#                    M8S105\List\" -lA "C:\Documents and                      #
#                    Settings\Administrator\Desktop\stm8s105k-controller\Proj #
#                    ect\STM8S_StdPeriph_Template\EWSTM8\STM8S105\List\" -I   #
#                    "C:\Documents and Settings\Administrator\Desktop\stm8s10 #
#                    5k-controller\Project\STM8S_StdPeriph_Template\EWSTM8\.. #
#                    \" -I "C:\Documents and Settings\Administrator\Desktop\s #
#                    tm8s105k-controller\Project\STM8S_StdPeriph_Template\EWS #
#                    TM8\..\..\..\Libraries\STM8S_StdPeriph_Driver\inc\"      #
#                    --vregs 16                                               #
#    List file    =  C:\Documents and Settings\Administrator\Desktop\stm8s105 #
#                    k-controller\Project\STM8S_StdPeriph_Template\EWSTM8\STM #
#                    8S105\List\stm8s_wwdg.lst                                #
#    Object file  =  C:\Documents and Settings\Administrator\Desktop\stm8s105 #
#                    k-controller\Project\STM8S_StdPeriph_Template\EWSTM8\STM #
#                    8S105\Obj\stm8s_wwdg.o                                   #
#                                                                             #
#                                                                             #
###############################################################################

C:\Documents and Settings\Administrator\Desktop\stm8s105k-controller\Libraries\STM8S_StdPeriph_Driver\src\stm8s_wwdg.c
      1          /**
      2            ********************************************************************************
      3            * @file    stm8s_wwdg.c
      4            * @author  MCD Application Team
      5            * @version V2.1.0
      6            * @date    18-November-2011
      7            * @brief   This file contains all the functions for the WWDG peripheral.
      8            ******************************************************************************
      9            * @attention
     10            *
     11            * THE PRESENT FIRMWARE WHICH IS FOR GUIDANCE ONLY AIMS AT PROVIDING CUSTOMERS
     12            * WITH CODING INFORMATION REGARDING THEIR PRODUCTS IN ORDER FOR THEM TO SAVE
     13            * TIME. AS A RESULT, STMICROELECTRONICS SHALL NOT BE HELD LIABLE FOR ANY
     14            * DIRECT, INDIRECT OR CONSEQUENTIAL DAMAGES WITH RESPECT TO ANY CLAIMS ARISING
     15            * FROM THE CONTENT OF SUCH FIRMWARE AND/OR THE USE MADE BY CUSTOMERS OF THE
     16            * CODING INFORMATION CONTAINED HEREIN IN CONNECTION WITH THEIR PRODUCTS.
     17            *
     18            * <h2><center>&copy; COPYRIGHT 2011 STMicroelectronics</center></h2>
     19            ******************************************************************************
     20            */
     21          
     22          /* Includes ------------------------------------------------------------------*/
     23          #include "stm8s_wwdg.h"
     24          
     25          /** @addtogroup STM8S_StdPeriph_Driver
     26            * @{
     27            */
     28          /* Private define ------------------------------------------------------------*/
     29          #define BIT_MASK          ((uint8_t)0x7F)
     30          /* Private macro -------------------------------------------------------------*/
     31          /* Private variables ---------------------------------------------------------*/
     32          /* Private function prototypes -----------------------------------------------*/
     33          /* Private functions ---------------------------------------------------------*/
     34          
     35          /** @addtogroup WWDG_Public_Functions
     36            * @{
     37            */
     38          
     39          /**
     40            * @brief  Initializes the WWDG peripheral.
     41            *         This function set Window Register = WindowValue, Counter Register
     42            *         according to Counter and \b ENABLE \b WWDG
     43            * @param  Counter : WWDG counter value
     44            * @param  WindowValue : specifies the WWDG Window Register, range is 0x00 to 0x7F.
     45            * @retval None
     46            */

   \                                 In section .far_func.text, align 1
   \                     ?Subroutine0:
   \   000000 BF00                  LDW       S:?w1, X
   \   000002 5F                    CLRW      X
   \   000003 BF00                  LDW       S:?w0, X
   \   000005 AE0000                LDW       X, #`?<Constant "C:\\\\Documents and Sett...">`
   \   000008 AC000000              JPF       assert_failed

   \                                 In section .far_func.text, align 1
     47          void WWDG_Init(uint8_t Counter, uint8_t WindowValue)
     48          {
   \                     WWDG_Init:
   \   000000 8D000000              CALLF     L:?push_w4
   \   000004 B700                  LD        S:?b8, A
   \   000006 450000                MOV       S:?b9, S:?b0
     49              /* Check the parameters */
     50              assert_param(IS_WWDG_WINDOWLIMITVALUE_OK(WindowValue));
   \   000009 B600                  LD        A, S:?b9
   \   00000B A180                  CP        A, #0x80
   \   00000D 2507                  JRC       L:??CrossCallReturnLabel_0
   \   00000F AE0032                LDW       X, #0x32
   \   000012 8D000000              CALLF     ?Subroutine0
     51              
     52              WWDG->WR = WWDG_WR_RESET_VALUE;
   \                     ??CrossCallReturnLabel_0:
   \   000016 357F50D2              MOV       L:0x50d2, #0x7f
     53              WWDG->CR = (uint8_t)((uint8_t)(WWDG_CR_WDGA | WWDG_CR_T6) | (uint8_t)Counter);
   \   00001A B600                  LD        A, S:?b8
   \   00001C AAC0                  OR        A, #0xc0
   \   00001E C750D1                LD        L:0x50d1, A
     54              WWDG->WR = (uint8_t)((uint8_t)(~WWDG_CR_WDGA) & (uint8_t)(WWDG_CR_T6 | WindowValue));
   \   000021 B600                  LD        A, S:?b9
   \   000023 A47F                  AND       A, #0x7f
   \   000025 AA40                  OR        A, #0x40
   \   000027 C750D2                LD        L:0x50d2, A
     55          }
   \   00002A AC000000              JPF       L:?epilogue_w4
     56          
     57          /**
     58            * @brief  Refreshes the WWDG peripheral.
     59            * @param  Counter :  WWDG Counter Value
     60            *         This parameter must be a number between 0x40 and 0x7F.
     61            * @retval None
     62            */

   \                                 In section .far_func.text, align 1
     63          void WWDG_SetCounter(uint8_t Counter)
     64          {
   \                     WWDG_SetCounter:
   \   000000 3B0000                PUSH      S:?b8
   \   000003 B700                  LD        S:?b8, A
     65          
     66              /* Check the parameters */
     67              assert_param(IS_WWDG_COUNTERVALUE_OK(Counter));
   \   000005 A180                  CP        A, #0x80
   \   000007 2507                  JRC       L:??CrossCallReturnLabel_1
   \   000009 AE0043                LDW       X, #0x43
   \   00000C 8D000000              CALLF     ?Subroutine0
     68          
     69             /* Write to T[6:0] bits to configure the counter value, no need to do
     70               a read-modify-write; writing a 0 to WDGA bit does nothing */
     71            WWDG->CR = (uint8_t)(Counter & (uint8_t)BIT_MASK);
   \                     ??CrossCallReturnLabel_1:
   \   000010 B600                  LD        A, S:?b8
   \   000012 A47F                  AND       A, #0x7f
   \   000014 C750D1                LD        L:0x50d1, A
     72          
     73          }
   \   000017 320000                POP       S:?b8
   \   00001A 87                    RETF
     74          
     75          /**
     76            * @brief Gets the WWDG Counter Value.
     77            *        This value could be used to check if WWDG is in the window, where
     78            *        refresh is allowed.
     79            * @param  None
     80            * @retval WWDG Counter Value
     81            */

   \                                 In section .far_func.text, align 1
     82          uint8_t WWDG_GetCounter(void)
     83          {
     84              return(WWDG->CR);
   \                     WWDG_GetCounter:
   \   000000 C650D1                LD        A, L:0x50d1
   \   000003 87                    RETF
     85          }
     86          
     87          /**
     88            * @brief  Generates immediate WWDG RESET.
     89            * @param  None
     90            * @retval None
     91            */

   \                                 In section .far_func.text, align 1
     92          void WWDG_SWReset(void)
     93          {
     94              WWDG->CR = WWDG_CR_WDGA; /* Activate WWDG, with clearing T6 */
   \                     WWDG_SWReset:
   \   000000 358050D1              MOV       L:0x50d1, #0x80
     95          }
   \   000004 87                    RETF
     96          
     97          /**
     98            * @brief  Sets the WWDG window value.
     99            * @param  WindowValue: specifies the window value to be compared to the
    100            *         downcounter.
    101            *         This parameter value must be lower than 0x80.
    102            * @retval None
    103            */

   \                                 In section .far_func.text, align 1
    104          void WWDG_SetWindowValue(uint8_t WindowValue)
    105          {
   \                     WWDG_SetWindowValue:
   \   000000 3B0000                PUSH      S:?b8
   \   000003 B700                  LD        S:?b8, A
    106              /* Check the parameters */
    107              assert_param(IS_WWDG_WINDOWLIMITVALUE_OK(WindowValue));
   \   000005 A180                  CP        A, #0x80
   \   000007 2507                  JRC       L:??CrossCallReturnLabel_2
   \   000009 AE006B                LDW       X, #0x6b
   \   00000C 8D000000              CALLF     ?Subroutine0
    108              
    109              WWDG->WR = (uint8_t)((uint8_t)(~WWDG_CR_WDGA) & (uint8_t)(WWDG_CR_T6 | WindowValue));
   \                     ??CrossCallReturnLabel_2:
   \   000010 B600                  LD        A, S:?b8
   \   000012 A47F                  AND       A, #0x7f
   \   000014 AA40                  OR        A, #0x40
   \   000016 C750D2                LD        L:0x50d2, A
    110          }
   \   000019 320000                POP       S:?b8
   \   00001C 87                    RETF

   \                                 In section .near.rodata, align 1
   \                     `?<Constant "C:\\\\Documents and Sett...">`:
   \   000000 433A5C446F63          DC8 43H, 3AH, 5CH, 44H, 6FH, 63H, 75H, 6DH
   \   000008 656E74732061          DC8 65H, 6EH, 74H, 73H, 20H, 61H, 6EH, 64H
   \   000010 205365747469          DC8 20H, 53H, 65H, 74H, 74H, 69H, 6EH, 67H
   \   000018 735C41646D69          DC8 73H, 5CH, 41H, 64H, 6DH, 69H, 6EH, 69H
   \   000020 73747261746F          DC8 73H, 74H, 72H, 61H, 74H, 6FH, 72H, 5CH
   \   000028 4465736B746F          DC8 44H, 65H, 73H, 6BH, 74H, 6FH, 70H, 5CH
   \   000030 73746D387331          DC8 73H, 74H, 6DH, 38H, 73H, 31H, 30H, 35H
   \   000038 6B2D636F6E74          DC8 6BH, 2DH, 63H, 6FH, 6EH, 74H, 72H, 6FH
   \   000040 6C6C65725C4C          DC8 6CH, 6CH, 65H, 72H, 5CH, 4CH, 69H, 62H
   \   000048 726172696573          DC8 72H, 61H, 72H, 69H, 65H, 73H, 5CH, 53H
   \   000050 544D38535F53          DC8 54H, 4DH, 38H, 53H, 5FH, 53H, 74H, 64H
   \   000058 506572697068          DC8 50H, 65H, 72H, 69H, 70H, 68H, 5FH, 44H
   \   000060 72697665725C          DC8 72H, 69H, 76H, 65H, 72H, 5CH, 73H, 72H
   \   000068 635C73746D38          DC8 63H, 5CH, 73H, 74H, 6DH, 38H, 73H, 5FH
   \   000070 777764672E63          DC8 77H, 77H, 64H, 67H, 2EH, 63H, 0
    111          /**
    112            * @}
    113            */
    114            
    115          /**
    116            * @}
    117            */
    118            
    119          /******************* (C) COPYRIGHT 2011 STMicroelectronics *****END OF FILE****/

   Section sizes:

     Function/Label                          Bytes
     --------------                          -----
     ?Subroutine0                              12
     WWDG_Init                                 46
     WWDG_SetCounter                           27
     WWDG_GetCounter                            4
     WWDG_SWReset                               5
     WWDG_SetWindowValue                       29
     ?<Constant "C:\\Documents and Sett...">  119

 
 123 bytes in section .far_func.text
 119 bytes in section .near.rodata
 
 123 bytes of CODE  memory
 119 bytes of CONST memory

Errors: none
Warnings: none
