###############################################################################
#                                                                             #
# IAR C/C++ Compiler V1.30.1.50036 for STM8             05/Aug/2013  15:39:53 #
# Copyright 2010-2011 IAR Systems AB.                                         #
#                                                                             #
#    Source file  =  C:\Documents and Settings\Administrator\Desktop\stm8s105 #
#                    k-controller\Project\STM8S_StdPeriph_Template\main.c     #
#    Command line =  "C:\Documents and Settings\Administrator\Desktop\stm8s10 #
#                    5k-controller\Project\STM8S_StdPeriph_Template\main.c"   #
#                    -e -Ohz --debug --code_model medium --data_model medium  #
#                    -o "C:\Documents and Settings\Administrator\Desktop\stm8 #
#                    s105k-controller\Project\STM8S_StdPeriph_Template\EWSTM8 #
#                    \STM8S105\Obj\" --dlib_config "C:\Program Files\IAR      #
#                    Systems\Embedded Workbench 6.0\stm8\LIB\dlstm8mmf.h" -D  #
#                    STM8S105 -lC "C:\Documents and                           #
#                    Settings\Administrator\Desktop\stm8s105k-controller\Proj #
#                    ect\STM8S_StdPeriph_Template\EWSTM8\STM8S105\List\" -lA  #
#                    "C:\Documents and Settings\Administrator\Desktop\stm8s10 #
#                    5k-controller\Project\STM8S_StdPeriph_Template\EWSTM8\ST #
#                    M8S105\List\" -I "C:\Documents and                       #
#                    Settings\Administrator\Desktop\stm8s105k-controller\Proj #
#                    ect\STM8S_StdPeriph_Template\EWSTM8\..\" -I              #
#                    "C:\Documents and Settings\Administrator\Desktop\stm8s10 #
#                    5k-controller\Project\STM8S_StdPeriph_Template\EWSTM8\.. #
#                    \..\..\Libraries\STM8S_StdPeriph_Driver\inc\" --vregs 16 #
#    List file    =  C:\Documents and Settings\Administrator\Desktop\stm8s105 #
#                    k-controller\Project\STM8S_StdPeriph_Template\EWSTM8\STM #
#                    8S105\List\main.lst                                      #
#    Object file  =  C:\Documents and Settings\Administrator\Desktop\stm8s105 #
#                    k-controller\Project\STM8S_StdPeriph_Template\EWSTM8\STM #
#                    8S105\Obj\main.o                                         #
#                                                                             #
#                                                                             #
###############################################################################

C:\Documents and Settings\Administrator\Desktop\stm8s105k-controller\Project\STM8S_StdPeriph_Template\main.c
      1          /**
      2             LCD PINOUT
      3             PINS  1    2    3   4   5   6   7   8   9   10   11   12   13   14    15    16
      4                  VSS  VDD  VO  RS  R/W  E  DB0 DB1 DB2  DB3  DB4  DB5 DB6  DB7  LED_A LED_K
      5                  GND
      6                                20   22  24                   18    19   21   23
      7                                3    5   7                    1     2    4    6
      8             */
      9          
     10          /** New Device STM8S105K4  */
     11          /* Controller LCD DS1307,DS18B20 */
     12          
     13          /* Daily Allarm ON OFF
     14                                  ON
     15                                  |
     16            First bit set ON      100H:HHHH MMMM:MMMM
     17                                     OFF
     18                                      |
     19            Second bit set OFF       010H:HHHH MMMM:MMMM
     20          
     21          
     22            Daily Allarm ON TimeLong(in minute for 24h 1440 minute 0x5A0)
     23          
     24          
     25          
     26          
     27          */
     28          
     29          
     30          
     31          /* Includes ------------------------------------------------------------------*/
     32          #include "stm8s.h"
     33          #include "stdio.h"
     34          #include "string.h"
     35          /* Private defines -----------------------------------------------------------*/
     36          
     37          /* ================ LCD ======================= */
     38          
     39          #define LCD_GPIO_PIN (GPIO_PIN_1|GPIO_PIN_2|GPIO_PIN_3|GPIO_PIN_4|GPIO_PIN_5|GPIO_PIN_6|GPIO_PIN_7)
     40          #define LCD_PORT (GPIOC)
     41          #define LCD_GPIO_COTROL_PIN (GPIO_PIN_3 | GPIO_PIN_1 |GPIO_PIN_2)
     42          #define DATA4 GPIO_PIN_4
     43          #define DATA5 GPIO_PIN_5
     44          #define DATA6 GPIO_PIN_6
     45          #define DATA7 GPIO_PIN_7
     46          #define EN  GPIO_PIN_3
     47          #define RW  GPIO_PIN_1
     48          #define RS  GPIO_PIN_2
     49          #define LCD_EN(x)  x ? GPIO_WriteHigh(LCD_PORT, EN): GPIO_WriteLow(LCD_PORT,EN); //GPIOB->ODR =(GPIOB->ODR &~PIN_EN)|(x ? PIN_EN :0);
     50          #define LCD_RW(x)  x ? GPIO_WriteHigh(LCD_PORT, RW): GPIO_WriteLow(LCD_PORT,RW);
     51          #define LCD_RS(x)  x ? GPIO_WriteHigh(LCD_PORT, RS): GPIO_WriteLow(LCD_PORT,RS);
     52          
     53          #define key_ok    GPIO_PIN_4
     54          #define key_plus  GPIO_PIN_1
     55          #define key_minus GPIO_PIN_2
     56            //DS18B20  Temp Sensor
     57          #define ds18_data GPIO_PIN_2 //2
     58          #define DS18(x)   x ? GPIO_WriteHigh(GPIOD,ds18_data):GPIO_WriteLow(GPIOD,ds18_data);
     59          
     60          #ifdef __GNUC__
     61            /* With GCC/RAISONANCE, small printf (option LD Linker->Libraries->Small printf
     62               set to 'Yes') calls __io_putchar() */
     63            #define PUTCHAR_PROTOTYPE int __io_putchar(int ch)
     64          #else
     65            #define PUTCHAR_PROTOTYPE int fputc(int ch, FILE *f)
     66          #endif /* __GNUC__ */
     67          
     68          
     69          
     70          
     71          #define SpecialSymbol 0x1b //Esc to start message
     72          #define data_size 20
     73          #define key_time 8000
     74          #define key_time_ok 15000
     75          #define DS_Control  0x10  // Out 1s
     76          #define EEPROM_ADDR 0x4000
     77          
     78          
     79          
     80          /* Private variables ---------------------------------------------------------*/

   \                                 In section .near.bss, align 1
     81          volatile u16 timer1;
   \                     timer1:
   \   000000                       DS8 2

   \                                 In section .near.bss, align 1
     82          volatile u16 timer2;
   \                     timer2:
   \   000000                       DS8 2

   \                                 In section .near.bss, align 1
     83          volatile u8 timeout;
   \                     timeout:
   \   000000                       DS8 1

   \                                 In section .near.bss, align 1
     84          volatile u16 adcdata;
   \                     adcdata:
   \   000000                       DS8 2

   \                                 In section .near.bss, align 1
     85          volatile u8 rx_data;
   \                     rx_data:
   \   000000                       DS8 1

   \                                 In section .near.bss, align 1
     86          char data[data_size];
   \                     data:
   \   000000                       DS8 20

   \                                 In section .near.bss, align 1
     87          u16  measure[data_size];
   \                     measure:
   \   000000                       DS8 40

   \                                 In section .near.bss, align 1
     88          u8 line_lcd;
   \                     line_lcd:
   \   000000                       DS8 1

   \                                 In section .near.bss, align 1
     89          u8 count;
   \                     count:
   \   000000                       DS8 1

   \                                 In section .near.bss, align 1
     90          u8 seconds;
   \                     seconds:
   \   000000                       DS8 1

   \                                 In section .near.bss, align 1
     91          u8 minutes;
   \                     minutes:
   \   000000                       DS8 1

   \                                 In section .near.bss, align 1
     92          u8 hours;
   \                     hours:
   \   000000                       DS8 1

   \                                 In section .near.data, align 1
     93          u8 days=1;
   \                     days:
   \   000000 01                    DC8 1

   \                                 In section .near.data, align 1
     94          u8 date=1;
   \                     `date`:
   \   000000 01                    DC8 1

   \                                 In section .near.data, align 1
     95          u8 mounts=1;
   \                     mounts:
   \   000000 01                    DC8 1

   \                                 In section .near.bss, align 1
     96          u8 years;
   \                     years:
   \   000000                       DS8 1

   \                                 In section .near.bss, align 1
     97          u8 error;
   \                     error:
   \   000000                       DS8 1

   \                                 In section .near.bss, align 1
     98          u8 temp_flag;
   \                     temp_flag:
   \   000000                       DS8 1

   \                                 In section .near.bss, align 1
     99          u8 temp2;
   \                     temp2:
   \   000000                       DS8 1

   \                                 In section .near.bss, align 1
    100          u8 daily_hour_on;
   \                     daily_hour_on:
   \   000000                       DS8 1

   \                                 In section .near.bss, align 1
    101          u8 daily_minute_on;
   \                     daily_minute_on:
   \   000000                       DS8 1

   \                                 In section .near.bss, align 1
    102          u8 daily_hour_off;
   \                     daily_hour_off:
   \   000000                       DS8 1

   \                                 In section .near.bss, align 1
    103          u8 daily_minute_off;
   \                     daily_minute_off:
   \   000000                       DS8 1

   \                                 In section .near.bss, align 1
    104          u16 daily_long_on;
   \                     daily_long_on:
   \   000000                       DS8 2

   \                                 In section .near.bss, align 1
    105          u16 time_on;
   \                     time_on:
   \   000000                       DS8 2

   \                                 In section .near.bss, align 1
    106          u16 time_off;
   \                     time_off:
   \   000000                       DS8 2

   \                                 In section .near.bss, align 1
    107          u8 l=0;
   \                     l:
   \   000000                       DS8 1
    108          //u8 index=0;

   \                                 In section .near.bss, align 1
    109          float  result;
   \                     result:
   \   000000                       DS8 4

   \                                 In section .near.bss, align 1
    110          int volatile k=0;
   \                     k:
   \   000000                       DS8 2
    111          
    112          
    113          
    114          
    115          
    116          
    117          
    118          
    119          /* Private function prototypes -----------------------------------------------*/
    120          void InitHardware();
    121          void GpioConfiguration();
    122          void InitClk();
    123          void InitAdc();
    124          void InitI2C();
    125          void EEPROM_INIT();
    126          bool ReadDS1307();
    127          //void InitUart();
    128          void InitLcd();
    129          void InitDelayTimer();
    130          void Delay1( u16 Delay);
    131          void Delay2( u16 Delay);
    132          void Delay_us(u16 Delay);
    133          void LCDInstrNibble (u8 Instr);
    134          void LCDInstr(u8 Instr);
    135          void LCDDataOut(u8 data);
    136          void LCD_Busy();
    137          void PulseEnable();
    138          //void SendData();
    139          void SendChar(u8 Char);
    140          //void Send_Hello();
    141          bool Set_Clock();
    142          bool key_ok_on();
    143          bool key_plus_on();
    144          bool key_minus_on();
    145          bool key_ok_plus();
    146          bool Init_DS1307(void);
    147          bool Check_DS1307(void);
    148          bool I2C_Start(void);
    149          bool I2C_WA(u8 address);
    150          bool I2C_WD(u8 data);
    151          bool I2C_RA(u8 address);
    152          bool Set_DS1307();
    153          bool Set_Delay_Allarm();
    154          bool Read_Allarm();
    155          bool Read_DS18();
    156          bool DS18_Write( u8 data);
    157          bool DS18_Reset();
    158          bool DS18Set();
    159          u8 temperature();
    160          u8 DS18_Read();
    161          u8 convert_tobcd(u8 data);
    162          u8 I2C_RD(void);
    163          u8 adj(u8 min,u8 max,u8 now);
    164          u8 bcd2hex(u8 bcd);
    165          
    166          u16  Average();
    167          
    168          
    169          /* Private functions ---------------------------------------------------------*/
    170          

   \                                 In section .far_func.text, align 1, keep-with-next
   \                     ?Subroutine31:
   \   000000 8D000000              CALLF     key_ok_on
   \   000004 A100                  CP        A, #0x0
   \   000006 87                    RETF

   \                                 In section .far_func.text, align 1, keep-with-next
    171          void main(void)
    172          {
   \                     main:
   \   000000 3B0000                PUSH      S:?b8
    173              /*High speed internal clock prescaler: 1*/
    174              //CLK_HSIPrescalerConfig(CLK_PRESCALER_HSIDIV1);
    175          
    176              InitClk();
   \   000003 8D000000              CALLF     InitClk
    177              InitDelayTimer();
   \   000007 8D000000              CALLF     InitDelayTimer
    178              GpioConfiguration();
   \   00000B 8D000000              CALLF     GpioConfiguration
    179          
    180              /*
    181               for(;;)
    182              {
    183          
    184                DS18(1);
    185                Delay_us(1);
    186                DS18(0);
    187                Delay_us(160);
    188          
    189          
    190          
    191          
    192              }
    193          
    194                */
    195          
    196          
    197              //InitUart();
    198              enableInterrupts();
   \   00000F 9A                    RIM
    199              GPIO_WriteLow(GPIOD,GPIO_PIN_7); //R/W Line Read Mode
   \   000010 A680                  LD        A, #0x80
   \   000012 AE500F                LDW       X, #0x500f
   \   000015 8D000000              CALLF     GPIO_WriteLow
    200              InitLcd();
   \   000019 8D000000              CALLF     InitLcd
    201              //InitAdc();
    202              InitI2C();
   \   00001D 8D000000              CALLF     InitI2C
    203              //Init DS18B20
    204              //DS18Set();
    205              line_lcd=0;
   \   000021 725F0000              CLR       L:line_lcd
    206              if (!Read_DS18())
   \   000025 8D000000              CALLF     Read_DS18
   \   000029 A100                  CP        A, #0x0
   \   00002B 260D                  JRNE      L:??main_0
    207              {
    208               printf("\nDS_Err_I");
   \   00002D AE0000                LDW       X, #`?<Constant "\\nDS_Err_I">`
   \   000030 8D000000              CALLF     printf
    209                while (!key_ok_on());
   \                     ??main_1:
   \   000034 8D000000              CALLF     ?Subroutine31
    210              }
   \                     ??CrossCallReturnLabel_103:
   \   000038 27FA                  JREQ      L:??main_1
    211          
    212          
    213          
    214          
    215          
    216              //years=bcd2hex(13);
    217              Delay1(1000);
   \                     ??main_0:
   \   00003A AE03E8                LDW       X, #0x3e8
   \   00003D 8D000000              CALLF     Delay1
    218               if (!ReadDS1307())
   \   000041 8D000000              CALLF     ReadDS1307
   \   000045 A100                  CP        A, #0x0
   \   000047 2615                  JRNE      L:??main_2
    219               {
    220                 printf("\n E2:%d",error);
   \   000049 C60000                LD        A, L:error
   \   00004C 5F                    CLRW      X
   \   00004D 97                    LD        XL, A
   \   00004E 89                    PUSHW     X
   \   00004F AE0000                LDW       X, #`?<Constant "\\n E2:%d">`
   \   000052 8D000000              CALLF     printf
   \   000056 5B02                  ADD       SP, #0x2
    221                 // Reset the CPU: Enable the watchdog and wait until it expires
    222                 IWDG->KR = IWDG_KEY_ENABLE;
   \   000058 35CC50E0              MOV       L:0x50e0, #0xcc
    223                 while ( 1 );    // Wait until reset occurs from IWDG
   \                     ??main_3:
   \   00005C 20FE                  JRA       L:??main_3
    224               }
    225               //Send_Hello();
    226              //line_lcd=0;
    227              //printf("\nHello");
    228          
    229          
    230              if (!Check_DS1307())
   \                     ??main_2:
   \   00005E 8D000000              CALLF     Check_DS1307
   \   000062 A100                  CP        A, #0x0
   \   000064 2626                  JRNE      L:??main_4
    231              {
    232                 if (error!=0)
   \   000066 C60000                LD        A, L:error
   \   000069 2712                  JREQ      L:??main_5
    233                 {
    234                  printf("\n E:%d",error);
   \   00006B 5F                    CLRW      X
   \   00006C 97                    LD        XL, A
   \   00006D 89                    PUSHW     X
   \   00006E AE0000                LDW       X, #`?<Constant "\\n E:%d">`
   \   000071 8D000000              CALLF     printf
   \   000075 5B02                  ADD       SP, #0x2
    235                   while (!key_ok_on());
   \                     ??main_6:
   \   000077 8D000000              CALLF     ?Subroutine31
    236          
    237                 }
   \                     ??CrossCallReturnLabel_104:
   \   00007B 27FA                  JREQ      L:??main_6
    238               line_lcd=0;
   \                     ??main_5:
   \   00007D 725F0000              CLR       L:line_lcd
    239               printf("\nSetClock");
   \   000081 AE0000                LDW       X, #`?<Constant "\\nSetClock">`
   \   000084 8D000000              CALLF     printf
    240                Set_Clock();
   \   000088 8D000000              CALLF     Set_Clock
    241          
    242              }
    243          
    244          
    245              //When Start Check for Allarm and computing Daily_long_on
    246                Read_Allarm();
   \                     ??main_4:
   \   00008C 8D000000              CALLF     Read_Allarm
    247                 time_on=daily_hour_on*60+daily_minute_on;
   \   000090 8D000000              CALLF     ?Subroutine1
    248                 time_off= daily_hour_off*60+daily_minute_off;
   \                     ??CrossCallReturnLabel_1:
   \   000094 2009                  JRA       L:??main_7
    249          
    250          
    251               //UART2_Cmd(DISABLE);  // Disable UART for the moment
    252          
    253               // Working fuction
    254              //Set_DS1307(13,7,13,34,0);//u8 year ,u8 mounts,u8 hours,u8 minutes,u8 seconds)
    255          
    256              while(1)
    257              {
    258                ADC1_Cmd (ENABLE);
    259          
    260                 GPIO_WriteReverse(GPIOD, (GPIO_Pin_TypeDef)GPIO_PIN_0 );
    261                   Delay2(10000);
    262                 GPIO_WriteReverse(GPIOD, (GPIO_Pin_TypeDef)GPIO_PIN_0 );
    263                   Delay2(10000);
    264          
    265                line_lcd=0;
    266               if (!ReadDS1307())
    267               {
    268                 printf("\n E2:%d",error);
    269                  //restart i2c
    270                // Reset the CPU: Enable the watchdog and wait until it expires
    271                 IWDG->KR = IWDG_KEY_ENABLE;
    272                 while ( 1 );    // Wait until reset occurs from IWDG
    273          
    274          
    275               }
    276                 else
    277                   //printf("\n      ");
    278               line_lcd=1;
    279               printf("\n%02d:%02d:%02d",hours,minutes,seconds);
    280               //line_lcd=2;
    281               //printf("\n Just Test:%X", timer2);
    282                   //if (rx_data==SpecialSymbol) SendData();
    283                //SendData();
    284          
    285                if (key_ok_on())
    286                {
    287                  line_lcd=0;
    288                  printf("\n%02d:%02d:%02d",years,mounts,date);
    289                  Delay2(50000);
    290                  //Delay2(10000);
    291                  //Delay2(10000);
    292                }
    293          
    294                if(key_ok_plus())
    295                {
    296                 //Set Daily Allarm
    297                  Set_Delay_Allarm();
    298                }
    299          
    300          
    301                //Check for Allarm
    302          
    303                u16 time_now=hours*60+minutes;
    304                bool allarm=FALSE;
    305          
    306          
    307                     u16 time=time_on;
    308                     do
    309                    {
    310                       if(time==time_now)
    311                       {
    312                         allarm=TRUE;
    313                          break ;
    314                       }
    315                        time++;
    316                         if( time==1441) time=0;
    317                    } while(!(time==time_off));
    318          
    319          
    320          
    321          
    322          
    323                      u8 result1=temperature();
    324                      u8 result2=0;
    325                      if(result1%2!=0) result2=5;
    326                      result1/=2;
    327          
    328                   //printf("\n%d.%d",result1,result2);
    329          
    330          
    331          
    332          
    333                      if(allarm)
    334                   {
    335                     // Allarm ON
    336                     line_lcd=0;
   \                     ??main_8:
   \   000096 AE0000                LDW       X, #`?<Constant "\\n1 %d.%d   ">`
   \                     ??main_9:
   \   000099 8D000000              CALLF     printf
   \   00009D 5B04                  ADD       SP, #0x4
    337                     printf("\n1 %d.%d   ",result1,result2);
    338                   }
   \                     ??main_7:
   \   00009F A601                  LD        A, #0x1
   \   0000A1 8D000000              CALLF     ADC1_Cmd
   \   0000A5 8D000000              CALLF     ?Subroutine21
   \                     ??CrossCallReturnLabel_68:
   \   0000A9 8D000000              CALLF     ?Subroutine21
   \                     ??CrossCallReturnLabel_67:
   \   0000AD 725F0000              CLR       L:line_lcd
   \   0000B1 8D000000              CALLF     ReadDS1307
   \   0000B5 A100                  CP        A, #0x0
   \   0000B7 2615                  JRNE      L:??main_10
   \   0000B9 C60000                LD        A, L:error
   \   0000BC 5F                    CLRW      X
   \   0000BD 97                    LD        XL, A
   \   0000BE 89                    PUSHW     X
   \   0000BF AE0000                LDW       X, #`?<Constant "\\n E2:%d">`
   \   0000C2 8D000000              CALLF     printf
   \   0000C6 5B02                  ADD       SP, #0x2
   \   0000C8 35CC50E0              MOV       L:0x50e0, #0xcc
   \                     ??main_11:
   \   0000CC 20FE                  JRA       L:??main_11
   \                     ??main_10:
   \   0000CE 8D000000              CALLF     ?Subroutine16
   \                     ??CrossCallReturnLabel_54:
   \   0000D2 89                    PUSHW     X
   \   0000D3 C60000                LD        A, L:minutes
   \   0000D6 97                    LD        XL, A
   \   0000D7 89                    PUSHW     X
   \   0000D8 C60000                LD        A, L:hours
   \   0000DB 97                    LD        XL, A
   \   0000DC 89                    PUSHW     X
   \   0000DD AE0000                LDW       X, #`?<Constant "\\n%02d:%02d:%02d">`
   \   0000E0 8D000000              CALLF     printf
   \   0000E4 5B06                  ADD       SP, #0x6
   \   0000E6 8D000000              CALLF     ?Subroutine31
   \                     ??CrossCallReturnLabel_105:
   \   0000EA 2724                  JREQ      L:??main_12
   \   0000EC 725F0000              CLR       L:line_lcd
   \   0000F0 C60000                LD        A, L:`date`
   \   0000F3 5F                    CLRW      X
   \   0000F4 97                    LD        XL, A
   \   0000F5 89                    PUSHW     X
   \   0000F6 C60000                LD        A, L:mounts
   \   0000F9 97                    LD        XL, A
   \   0000FA 89                    PUSHW     X
   \   0000FB C60000                LD        A, L:years
   \   0000FE 97                    LD        XL, A
   \   0000FF 89                    PUSHW     X
   \   000100 AE0000                LDW       X, #`?<Constant "\\n%02d:%02d:%02d">`
   \   000103 8D000000              CALLF     printf
   \   000107 5B06                  ADD       SP, #0x6
   \   000109 AEC350                LDW       X, #0xc350
   \   00010C 8D000000              CALLF     Delay2
   \                     ??main_12:
   \   000110 8D000000              CALLF     key_ok_plus
   \   000114 A100                  CP        A, #0x0
   \   000116 2704                  JREQ      L:??main_13
   \   000118 8D000000              CALLF     Set_Delay_Allarm
   \                     ??main_13:
   \   00011C C60000                LD        A, L:hours
   \   00011F 8D000000              CALLF     ?Subroutine41
   \                     ??CrossCallReturnLabel_182:
   \   000123 C60000                LD        A, L:minutes
   \   000126 8D000000              CALLF     ?Subroutine48
   \                     ??CrossCallReturnLabel_149:
   \   00012A 3F00                  CLR       S:?b8
   \   00012C 90CE0000              LDW       Y, L:time_on
   \                     ??main_14:
   \   000130 BF00                  LDW       S:?w0, X
   \   000132 90B300                CPW       Y, S:?w0
   \   000135 2606                  JRNE      L:??main_15
   \   000137 35010000              MOV       S:?b8, #0x1
   \   00013B 2010                  JRA       L:??main_16
   \                     ??main_15:
   \   00013D 905C                  INCW      Y
   \   00013F 90A305A1              CPW       Y, #0x5a1
   \   000143 2602                  JRNE      L:??main_17
   \   000145 905F                  CLRW      Y
   \                     ??main_17:
   \   000147 90C30000              CPW       Y, L:time_off
   \   00014B 26E3                  JRNE      L:??main_14
   \                     ??main_16:
   \   00014D 8D000000              CALLF     temperature
   \   000151 B700                  LD        S:?b1, A
   \   000153 3F00                  CLR       S:?b0
   \   000155 A501                  BCP       A, #0x1
   \   000157 2704                  JREQ      L:??main_18
   \   000159 35050000              MOV       S:?b0, #0x5
   \                     ??main_18:
   \   00015D B600                  LD        A, S:?b1
   \   00015F 44                    SRL       A
   \   000160 905F                  CLRW      Y
   \   000162 9097                  LD        YL, A
   \   000164 5F                    CLRW      X
   \   000165 41                    EXG       A, XL
   \   000166 B600                  LD        A, S:?b0
   \   000168 41                    EXG       A, XL
   \   000169 3D00                  TNZ       S:?b8
   \   00016B 35000000              MOV       L:line_lcd, #0x0
   \   00016F 89                    PUSHW     X
   \   000170 9089                  PUSHW     Y
   \   000172 2703                  JREQ      ??lb_0
   \   000174 CC0000                JP        L:??main_8
    339          
    340                    else
    341                    {
    342                      line_lcd=0;
   \                     ??lb_0:
   \   000177 AE0000                LDW       X, #`?<Constant "\\n0 %d.%d   ">`
   \   00017A AC000000              JPF       ??main_9
    343                      printf("\n0 %d.%d   ",result1,result2);
    344                    }
    345          
    346          
    347              }
    348          
    349          
    350          
    351          }

   \                                 In section .far_func.text, align 1, keep-with-next
   \                     ?Subroutine41:
   \   000000 905F                  CLRW      Y
   \   000002                       REQUIRE ??Subroutine53_0
   \   000002                       ;               // Fall through to label ??Subroutine53_0

   \                                 In section .far_func.text, align 1, keep-with-next
   \                     ??Subroutine53_0:
   \   000000 9097                  LD        YL, A
   \   000002 AE003C                LDW       X, #0x3c
   \   000005 BF00                  LDW       S:?w0, X
   \   000007 93                    LDW       X, Y
   \   000008 AC000000              JPF       L:?mul16_x_x_w0

   \                                 In section .far_func.text, align 1
   \                     ?Subroutine21:
   \   000000 A601                  LD        A, #0x1
   \   000002 AE500F                LDW       X, #0x500f
   \   000005 8D000000              CALLF     GPIO_WriteReverse
   \   000009 AE2710                LDW       X, #0x2710
   \   00000C AC000000              JPF       Delay2

   \                                 In section .far_func.text, align 1
   \                     ?Subroutine16:
   \   000000 35010000              MOV       L:line_lcd, #0x1
   \   000004 C60000                LD        A, L:seconds
   \   000007 5F                    CLRW      X
   \   000008 97                    LD        XL, A
   \   000009 87                    RETF

   \                                 In section .far_func.text, align 1
   \                     ?Subroutine1:
   \   000000 C60000                LD        A, L:daily_hour_on
   \   000003 8D000000              CALLF     ?Subroutine41
   \                     ??CrossCallReturnLabel_183:
   \   000007 C60000                LD        A, L:daily_minute_on
   \   00000A 8D000000              CALLF     ?Subroutine48
   \                     ??CrossCallReturnLabel_150:
   \   00000E CF0000                LDW       L:time_on, X
   \   000011 C60000                LD        A, L:daily_hour_off
   \   000014 8D000000              CALLF     ??Subroutine53_0
   \                     ??CrossCallReturnLabel_181:
   \   000018 C60000                LD        A, L:daily_minute_off
   \   00001B 8D000000              CALLF     ?Subroutine48
   \                     ??CrossCallReturnLabel_151:
   \   00001F CF0000                LDW       L:time_off, X
   \   000022 87                    RETF

   \                                 In section .far_func.text, align 1
   \                     ?Subroutine48:
   \   000000 9097                  LD        YL, A
   \   000002 90BF00                LDW       S:?w0, Y
   \   000005 72BB0000              ADDW      X, S:?w0
   \   000009 87                    RETF
    352          

   \                                 In section .far_func.text, align 1, keep-with-next
    353          void InitI2C(void)
    354          {
    355             I2C_DeInit();
   \                     InitI2C:
   \   000000 8D000000              CALLF     I2C_DeInit
    356             I2C_Init(10000, 0xA2, I2C_DUTYCYCLE_2, I2C_ACK_CURR, I2C_ADDMODE_7BIT, 2);
   \   000004 35020000              MOV       S:?b6, #0x2
   \   000008 3F00                  CLR       S:?b5
   \   00000A 35010000              MOV       S:?b4, #0x1
   \   00000E 4F                    CLR       A
   \   00000F AE00A2                LDW       X, #0xa2
   \   000012 89                    PUSHW     X
   \   000013 AE2710                LDW       X, #0x2710
   \   000016 BF00                  LDW       S:?w1, X
   \   000018 5F                    CLRW      X
   \   000019 BF00                  LDW       S:?w0, X
   \   00001B 85                    POPW      X
   \   00001C 8D000000              CALLF     I2C_Init
    357             I2C_Cmd(ENABLE);
   \   000020 A601                  LD        A, #0x1
   \   000022 AC000000              JPF       I2C_Cmd
    358          }
    359          

   \                                 In section .far_func.text, align 1, keep-with-next
    360          bool I2C_Start(void)
    361          {
    362             I2C_GenerateSTART(ENABLE);
   \                     I2C_Start:
   \   000000 A601                  LD        A, #0x1
   \   000002 8D000000              CALLF     I2C_GenerateSTART
    363                 timeout=100;
   \   000006 35640000              MOV       L:timeout, #0x64
    364              	while(!(I2C_CheckEvent(I2C_EVENT_MASTER_MODE_SELECT))&&timeout);
   \                     ??I2C_Start_0:
   \   00000A AE0301                LDW       X, #0x301
   \   00000D 8D000000              CALLF     ?Subroutine40
   \                     ??CrossCallReturnLabel_132:
   \   000011 2605                  JRNE      L:??I2C_Start_1
   \   000013 C60000                LD        A, L:timeout
   \   000016 26F2                  JRNE      L:??I2C_Start_0
    365                  if (!timeout)
   \                     ??I2C_Start_1:
   \   000018 C60000                LD        A, L:timeout
   \   00001B 2606                  JRNE      L:??I2C_Start_2
    366                  {
    367                      error=1;
   \   00001D 35010000              MOV       L:error, #0x1
    368                     return FALSE;
   \   000021 4F                    CLR       A
   \   000022 87                    RETF
    369                  }
    370                    else return TRUE;
   \                     ??I2C_Start_2:
   \   000023 A601                  LD        A, #0x1
   \   000025 87                    RETF
    371          }

   \                                 In section .far_func.text, align 1, keep-with-next
   \                     ?Subroutine40:
   \   000000 8D000000              CALLF     I2C_CheckEvent
   \   000004 A100                  CP        A, #0x0
   \   000006 87                    RETF
    372          

   \                                 In section .far_func.text, align 1, keep-with-next
    373          bool I2C_WA(u8 address)
    374          {
    375            I2C_Send7bitAddress(address, I2C_DIRECTION_TX);
   \                     I2C_WA:
   \   000000 3F00                  CLR       S:?b0
   \   000002 8D000000              CALLF     I2C_Send7bitAddress
    376                 timeout=255;
   \   000006 35FF0000              MOV       L:timeout, #0xff
    377                  while(!(I2C_CheckEvent(I2C_EVENT_MASTER_TRANSMITTER_MODE_SELECTED))&&timeout);
   \                     ??I2C_WA_0:
   \   00000A AE0782                LDW       X, #0x782
   \   00000D 8D000000              CALLF     ?Subroutine40
   \                     ??CrossCallReturnLabel_131:
   \   000011 2605                  JRNE      L:??I2C_WA_1
   \   000013 C60000                LD        A, L:timeout
   \   000016 26F2                  JRNE      L:??I2C_WA_0
    378                   if (!timeout)
   \                     ??I2C_WA_1:
   \   000018 C60000                LD        A, L:timeout
   \   00001B 2606                  JRNE      L:??I2C_WA_2
    379                   {
    380                    error=2;
   \   00001D 35020000              MOV       L:error, #0x2
    381                     return FALSE ;
   \   000021 4F                    CLR       A
   \   000022 87                    RETF
    382                   }
    383                    else return TRUE;
   \                     ??I2C_WA_2:
   \   000023 A601                  LD        A, #0x1
   \   000025 87                    RETF
    384          }
    385          

   \                                 In section .far_func.text, align 1, keep-with-next
    386          bool I2C_RA(u8 address)
    387          {
    388            I2C_Send7bitAddress(address, I2C_DIRECTION_RX);
   \                     I2C_RA:
   \   000000 35010000              MOV       S:?b0, #0x1
   \   000004 8D000000              CALLF     I2C_Send7bitAddress
    389                 timeout=255;
   \   000008 35FF0000              MOV       L:timeout, #0xff
    390                  while(!(I2C_CheckEvent(I2C_EVENT_MASTER_RECEIVER_MODE_SELECTED))&&timeout);
   \                     ??I2C_RA_0:
   \   00000C AE0302                LDW       X, #0x302
   \   00000F 8D000000              CALLF     ?Subroutine40
   \                     ??CrossCallReturnLabel_133:
   \   000013 2605                  JRNE      L:??I2C_RA_1
   \   000015 C60000                LD        A, L:timeout
   \   000018 26F2                  JRNE      L:??I2C_RA_0
    391                   if (!timeout)
   \                     ??I2C_RA_1:
   \   00001A C60000                LD        A, L:timeout
   \   00001D 2606                  JRNE      L:??I2C_RA_2
    392                   {
    393                     error=3;
   \   00001F 35030000              MOV       L:error, #0x3
    394                     return FALSE ;
   \   000023 4F                    CLR       A
   \   000024 87                    RETF
    395                   }
    396                    else return TRUE;
   \                     ??I2C_RA_2:
   \   000025 A601                  LD        A, #0x1
   \   000027 87                    RETF
    397          }
    398          
    399          

   \                                 In section .far_func.text, align 1, keep-with-next
    400          bool I2C_WD(u8 data)
    401          {
    402           I2C_SendData(data);   // set register pointer 00h
   \                     I2C_WD:
   \   000000 8D000000              CALLF     I2C_SendData
    403             timeout=255;
   \   000004 35FF0000              MOV       L:timeout, #0xff
    404             while(!(I2C_CheckEvent(I2C_EVENT_MASTER_BYTE_TRANSMITTED))&&timeout);
   \                     ??I2C_WD_0:
   \   000008 AE0784                LDW       X, #0x784
   \   00000B 8D000000              CALLF     ?Subroutine40
   \                     ??CrossCallReturnLabel_130:
   \   00000F 2605                  JRNE      L:??I2C_WD_1
   \   000011 C60000                LD        A, L:timeout
   \   000014 26F2                  JRNE      L:??I2C_WD_0
    405              if (!timeout)
   \                     ??I2C_WD_1:
   \   000016 C60000                LD        A, L:timeout
   \   000019 2606                  JRNE      L:??I2C_WD_2
    406              {
    407                error=4;
   \   00001B 35040000              MOV       L:error, #0x4
    408                 return FALSE ;
   \   00001F 4F                    CLR       A
   \   000020 87                    RETF
    409              }
    410               else return TRUE;
   \                     ??I2C_WD_2:
   \   000021 A601                  LD        A, #0x1
   \   000023 87                    RETF
    411          }
    412          

   \                                 In section .far_func.text, align 1, keep-with-next
    413          u8 I2C_RD(void)
    414          {
    415           timeout=255;
   \                     I2C_RD:
   \   000000 35FF0000              MOV       L:timeout, #0xff
    416            while( !I2C_GetFlagStatus(I2C_FLAG_TRANSFERFINISHED)&& timeout);
   \                     ??I2C_RD_0:
   \   000004 AE0104                LDW       X, #0x104
   \   000007 8D000000              CALLF     I2C_GetFlagStatus
   \   00000B A100                  CP        A, #0x0
   \   00000D 2605                  JRNE      L:??I2C_RD_1
   \   00000F C60000                LD        A, L:timeout
   \   000012 26F0                  JRNE      L:??I2C_RD_0
    417           //while((!(I2C->SR1 & 0x40))&&timeout);
    418           if (!timeout)
   \                     ??I2C_RD_1:
   \   000014 C60000                LD        A, L:timeout
   \   000017 2606                  JRNE      L:??I2C_RD_2
    419           {
    420             error=5;
   \   000019 35050000              MOV       L:error, #0x5
    421             return FALSE;
   \   00001D 4F                    CLR       A
   \   00001E 87                    RETF
    422           }
    423           u8 data=I2C_ReceiveData();
    424           return data;
   \                     ??I2C_RD_2:
   \   00001F AC000000              JPF       I2C_ReceiveData
    425          }
    426          
    427            /*
    428          bool Init_DS1307(void)
    429          {
    430             // Test DS1307
    431              error=0;
    432              if (!I2C_Start()) return FALSE;
    433              if(!I2C_WA(0xD0)) return FALSE;
    434              if(!I2C_WD(0x00)) return FALSE;
    435              if(!I2C_WD(0x00)) return FALSE;
    436              I2C_GenerateSTOP(ENABLE);
    437          
    438              // timeout=100;  error=4;
    439              ///   while(!(I2C_CheckEvent(I2C_EVENT_MASTER_BYTE_TRANSMITTED))&&timeout);
    440              //    if (!timeout)return FALSE ;
    441               return TRUE;
    442          }
    443             */
    444          

   \                                 In section .far_func.text, align 1, keep-with-next
   \                     ?Subroutine39:
   \   000000 4F                    CLR       A
   \   000001                       REQUIRE ??Subroutine52_0
   \   000001                       ;               // Fall through to label ??Subroutine52_0

   \                                 In section .far_func.text, align 1, keep-with-next
   \                     ??Subroutine52_0:
   \   000000 8D000000              CALLF     I2C_WD
   \   000004 A100                  CP        A, #0x0
   \   000006 87                    RETF

   \                                 In section .far_func.text, align 1, keep-with-next
   \                     ?Subroutine38:
   \   000000 A6D0                  LD        A, #0xd0
   \   000002 8D000000              CALLF     I2C_WA
   \   000006 A100                  CP        A, #0x0
   \   000008 87                    RETF

   \                                 In section .far_func.text, align 1, keep-with-next
   \                     ?Subroutine37:
   \   000000 725F0000              CLR       L:error
   \   000004 8D000000              CALLF     I2C_Start
   \   000008 A100                  CP        A, #0x0
   \   00000A 87                    RETF

   \                                 In section .far_func.text, align 1, keep-with-next
    445          bool  ReadDS1307(void)
    446          {
    447                 error=0;
   \                     ReadDS1307:
   \   000000 8D000000              CALLF     ?Subroutine37
    448                 if (!I2C_Start()) return FALSE;
   \                     ??CrossCallReturnLabel_126:
   \   000004 2602                  JRNE      L:??ReadDS1307_0
   \                     ??ReadDS1307_1:
   \   000006 4F                    CLR       A
   \   000007 87                    RETF
    449                 if(!I2C_WA(0xD0))return FALSE;
   \                     ??ReadDS1307_0:
   \   000008 8D000000              CALLF     ?Subroutine38
   \                     ??CrossCallReturnLabel_129:
   \   00000C 27F8                  JREQ      L:??ReadDS1307_1
    450                 if(!I2C_WD(0x00)) return FALSE;
   \   00000E 8D000000              CALLF     ?Subroutine39
   \                     ??CrossCallReturnLabel_177:
   \   000012 27F2                  JREQ      L:??ReadDS1307_1
    451                 I2C_GenerateSTOP(ENABLE);
   \   000014 8D000000              CALLF     ?Subroutine22
    452                 if (!I2C_Start()) return FALSE;
   \                     ??CrossCallReturnLabel_70:
   \   000018 27EC                  JREQ      L:??ReadDS1307_1
    453                 if(!I2C_RA(0xD0))return FALSE;
   \   00001A A6D0                  LD        A, #0xd0
   \   00001C 8D000000              CALLF     I2C_RA
   \   000020 A100                  CP        A, #0x0
   \   000022 27E2                  JREQ      L:??ReadDS1307_1
    454                 I2C_AcknowledgeConfig(I2C_ACK_CURR);
   \   000024 8D000000              CALLF     ?Subroutine20
    455                 seconds = bcd2hex(I2C_RD());
   \                     ??CrossCallReturnLabel_66:
   \   000028 C70000                LD        L:seconds, A
    456                 I2C_AcknowledgeConfig(I2C_ACK_CURR);
   \   00002B 8D000000              CALLF     ?Subroutine20
    457                 minutes = bcd2hex(I2C_RD());
   \                     ??CrossCallReturnLabel_65:
   \   00002F C70000                LD        L:minutes, A
    458                 I2C_AcknowledgeConfig(I2C_ACK_CURR);
   \   000032 8D000000              CALLF     ?Subroutine20
    459                 hours = bcd2hex(I2C_RD());
   \                     ??CrossCallReturnLabel_64:
   \   000036 C70000                LD        L:hours, A
    460                 I2C_AcknowledgeConfig(I2C_ACK_CURR);
   \   000039 8D000000              CALLF     ?Subroutine20
    461                 days = bcd2hex(I2C_RD());
   \                     ??CrossCallReturnLabel_63:
   \   00003D C70000                LD        L:days, A
    462                 I2C_AcknowledgeConfig(I2C_ACK_CURR);
   \   000040 8D000000              CALLF     ?Subroutine20
    463                 date = bcd2hex(I2C_RD());
   \                     ??CrossCallReturnLabel_62:
   \   000044 C70000                LD        L:`date`, A
    464                 I2C_AcknowledgeConfig(I2C_ACK_CURR);
   \   000047 8D000000              CALLF     ?Subroutine20
    465                 mounts = bcd2hex(I2C_RD());
   \                     ??CrossCallReturnLabel_61:
   \   00004B C70000                LD        L:mounts, A
    466                 I2C_AcknowledgeConfig(I2C_ACK_CURR);
   \   00004E 8D000000              CALLF     ?Subroutine20
    467                  years= bcd2hex(I2C_RD());
   \                     ??CrossCallReturnLabel_60:
   \   000052 C70000                LD        L:years, A
    468                 I2C_AcknowledgeConfig(I2C_ACK_CURR);
   \   000055 8D000000              CALLF     ?Subroutine23
    469                  u8 data1 = I2C_RD();
    470                //Last read byte by I2C slave
    471                 I2C_AcknowledgeConfig(I2C_ACK_NONE);
   \                     ??CrossCallReturnLabel_72:
   \   000059 8D000000              CALLF     ?Subroutine27
    472                 I2C_GenerateSTOP(ENABLE);
    473                 temp2= I2C_RD();
   \                     ??CrossCallReturnLabel_77:
   \   00005D 8D000000              CALLF     I2C_RD
   \   000061 C70000                LD        L:temp2, A
    474                 return TRUE;
   \   000064 A601                  LD        A, #0x1
   \   000066 87                    RETF
    475          }

   \                                 In section .far_func.text, align 1, keep-with-next
   \                     ?Subroutine27:
   \   000000 4F                    CLR       A
   \   000001 8D000000              CALLF     I2C_AcknowledgeConfig
   \   000005 A601                  LD        A, #0x1
   \   000007 AC000000              JPF       I2C_GenerateSTOP

   \                                 In section .far_func.text, align 1, keep-with-next
   \                     ?Subroutine23:
   \   000000 8D000000              CALLF     ?Subroutine46
   \                     ??CrossCallReturnLabel_145:
   \   000004 87                    RETF

   \                                 In section .far_func.text, align 1, keep-with-next
   \                     ?Subroutine46:
   \   000000 A601                  LD        A, #0x1
   \   000002 8D000000              CALLF     I2C_AcknowledgeConfig
   \   000006 AC000000              JPF       I2C_RD

   \                                 In section .far_func.text, align 1, keep-with-next
   \                     ?Subroutine22:
   \   000000 A601                  LD        A, #0x1
   \   000002 8D000000              CALLF     I2C_GenerateSTOP
   \   000006 8D000000              CALLF     I2C_Start
   \   00000A A100                  CP        A, #0x0
   \   00000C 87                    RETF

   \                                 In section .far_func.text, align 1, keep-with-next
   \                     ?Subroutine20:
   \   000000 8D000000              CALLF     ?Subroutine46
   \                     ??CrossCallReturnLabel_144:
   \   000004 AC000000              JPF       bcd2hex
    476          

   \                                 In section .far_func.text, align 1, keep-with-next
    477          bool Check_DS1307(void)
    478          {
   \                     Check_DS1307:
   \   000000 3B0000                PUSH      S:?b8
    479             // Read  address 0x08 from DS1307 if not 0XAA clock is not set
    480                 error=0;
   \   000003 8D000000              CALLF     ?Subroutine37
    481                 if (!I2C_Start()) return FALSE;
   \                     ??CrossCallReturnLabel_125:
   \   000007 2603                  JRNE      L:??Check_DS1307_0
   \                     ??Check_DS1307_1:
   \   000009 4F                    CLR       A
   \   00000A 2030                  JRA       L:??Check_DS1307_2
    482                 if(!I2C_WA(0xD0)) return FALSE;
   \                     ??Check_DS1307_0:
   \   00000C 8D000000              CALLF     ?Subroutine38
   \                     ??CrossCallReturnLabel_128:
   \   000010 27F7                  JREQ      L:??Check_DS1307_1
    483                 if(!I2C_WD(0x08)) return FALSE;
   \   000012 A608                  LD        A, #0x8
   \   000014 8D000000              CALLF     ??Subroutine52_0
   \                     ??CrossCallReturnLabel_180:
   \   000018 27EF                  JREQ      L:??Check_DS1307_1
    484                 I2C_GenerateSTOP(ENABLE);
   \   00001A 8D000000              CALLF     ?Subroutine22
    485                  //Last read byte by I2C slave
    486                 if (!I2C_Start()) return FALSE;
   \                     ??CrossCallReturnLabel_69:
   \   00001E 27E9                  JREQ      L:??Check_DS1307_1
    487                 if(!I2C_RA(0xD0))return FALSE;
   \   000020 A6D0                  LD        A, #0xd0
   \   000022 8D000000              CALLF     I2C_RA
   \   000026 A100                  CP        A, #0x0
   \   000028 27DF                  JREQ      L:??Check_DS1307_1
    488                 I2C_AcknowledgeConfig(I2C_ACK_CURR);
   \   00002A 8D000000              CALLF     ?Subroutine23
    489                 u8 data = I2C_RD();
   \                     ??CrossCallReturnLabel_71:
   \   00002E B700                  LD        S:?b8, A
    490                 I2C_AcknowledgeConfig(I2C_ACK_NONE);
   \   000030 8D000000              CALLF     ?Subroutine27
    491                 I2C_GenerateSTOP(ENABLE);
    492                 if (data != 0xAA) return FALSE;
   \                     ??CrossCallReturnLabel_78:
   \   000034 B600                  LD        A, S:?b8
   \   000036 A1AA                  CP        A, #0xaa
   \   000038 26CF                  JRNE      L:??Check_DS1307_1
    493                 else return TRUE;
   \   00003A A601                  LD        A, #0x1
   \                     ??Check_DS1307_2:
   \   00003C 320000                POP       S:?b8
   \   00003F 87                    RETF
    494          }
    495          

   \                                 In section .far_func.text, align 1, keep-with-next
    496          bool Set_DS1307()
    497          {
    498                 // convert hex or decimal to bcd format
    499          
    500          
    501                 error=0;
   \                     Set_DS1307:
   \   000000 8D000000              CALLF     ?Subroutine37
    502                 if (!I2C_Start()) return FALSE;
   \                     ??CrossCallReturnLabel_124:
   \   000004 2602                  JRNE      L:??Set_DS1307_0
   \                     ??Set_DS1307_1:
   \   000006 4F                    CLR       A
   \   000007 87                    RETF
    503                 if(!I2C_WA(0xD0)) return FALSE;
   \                     ??Set_DS1307_0:
   \   000008 8D000000              CALLF     ?Subroutine38
   \                     ??CrossCallReturnLabel_127:
   \   00000C 27F8                  JREQ      L:??Set_DS1307_1
    504                 if(!I2C_WD(0x00)) return FALSE;
   \   00000E 8D000000              CALLF     ?Subroutine39
   \                     ??CrossCallReturnLabel_176:
   \   000012 27F2                  JREQ      L:??Set_DS1307_1
    505                 if(!I2C_WD(convert_tobcd(seconds))) return FALSE;
   \   000014 C60000                LD        A, L:seconds
   \   000017 8D000000              CALLF     ?Subroutine36
   \                     ??CrossCallReturnLabel_117:
   \   00001B 27E9                  JREQ      L:??Set_DS1307_1
    506                 if(!I2C_WD(convert_tobcd(minutes))) return FALSE;
   \   00001D C60000                LD        A, L:minutes
   \   000020 8D000000              CALLF     ?Subroutine36
   \                     ??CrossCallReturnLabel_118:
   \   000024 27E0                  JREQ      L:??Set_DS1307_1
    507                 if(!I2C_WD(convert_tobcd(hours))) return FALSE;
   \   000026 C60000                LD        A, L:hours
   \   000029 8D000000              CALLF     ?Subroutine36
   \                     ??CrossCallReturnLabel_119:
   \   00002D 27D7                  JREQ      L:??Set_DS1307_1
    508                 if(!I2C_WD(convert_tobcd(days))) return FALSE;
   \   00002F C60000                LD        A, L:days
   \   000032 8D000000              CALLF     ?Subroutine36
   \                     ??CrossCallReturnLabel_120:
   \   000036 27CE                  JREQ      L:??Set_DS1307_1
    509                 if(!I2C_WD(convert_tobcd(date))) return FALSE;
   \   000038 C60000                LD        A, L:`date`
   \   00003B 8D000000              CALLF     ?Subroutine36
   \                     ??CrossCallReturnLabel_121:
   \   00003F 27C5                  JREQ      L:??Set_DS1307_1
    510                 if(!I2C_WD(convert_tobcd(mounts))) return FALSE;
   \   000041 C60000                LD        A, L:mounts
   \   000044 8D000000              CALLF     ?Subroutine36
   \                     ??CrossCallReturnLabel_122:
   \   000048 27BC                  JREQ      L:??Set_DS1307_1
    511                 if(!I2C_WD(convert_tobcd(years)))return FALSE;
   \   00004A C60000                LD        A, L:years
   \   00004D 8D000000              CALLF     ?Subroutine36
   \                     ??CrossCallReturnLabel_123:
   \   000051 27B3                  JREQ      L:??Set_DS1307_1
    512                 if(!I2C_WD(DS_Control))return FALSE;
   \   000053 A610                  LD        A, #0x10
   \   000055 8D000000              CALLF     ??Subroutine52_0
   \                     ??CrossCallReturnLabel_178:
   \   000059 27AB                  JREQ      L:??Set_DS1307_1
    513                 if(!I2C_WD(0XAA)) return FALSE;  // Byte --> time is set by program
   \   00005B A6AA                  LD        A, #0xaa
   \   00005D 8D000000              CALLF     ??Subroutine52_0
   \                     ??CrossCallReturnLabel_179:
   \   000061 27A3                  JREQ      L:??Set_DS1307_1
    514                 I2C_GenerateSTOP(ENABLE);
   \   000063 A601                  LD        A, #0x1
   \   000065 8D000000              CALLF     I2C_GenerateSTOP
    515          
    516          
    517             return TRUE;
   \   000069 A601                  LD        A, #0x1
   \   00006B 87                    RETF
    518          }

   \                                 In section .far_func.text, align 1, keep-with-next
   \                     ?Subroutine36:
   \   000000 8D000000              CALLF     convert_tobcd
   \   000004 8D000000              CALLF     I2C_WD
   \   000008 A100                  CP        A, #0x0
   \   00000A 87                    RETF
    519          
    520          

   \                                 In section .far_func.text, align 1, keep-with-next
    521          u8 convert_tobcd(u8 data)
    522          {
   \                     convert_tobcd:
   \   000000 B700                  LD        S:?b1, A
    523             u8 data_second_decimal=data/10;
    524             u8 data_first_decimal=data - 10*data_second_decimal;
    525             data=16*data_second_decimal + data_first_decimal;
    526            return data;
   \   000002 A60A                  LD        A, #0xa
   \   000004 5F                    CLRW      X
   \   000005 01                    RRWA      X, A
   \   000006 B600                  LD        A, S:?b1
   \   000008 02                    RLWA      X, A
   \   000009 62                    DIV       X, A
   \   00000A 41                    EXG       A, XL
   \   00000B B700                  LD        S:?b0, A
   \   00000D A606                  LD        A, #0x6
   \   00000F 97                    LD        XL, A
   \   000010 B600                  LD        A, S:?b0
   \   000012 42                    MUL       X, A
   \   000013 9F                    LD        A, XL
   \   000014 BB00                  ADD       A, S:?b1
   \   000016 87                    RETF
    527          }
    528          

   \                                 In section .far_func.text, align 1, keep-with-next
    529          u8 bcd2hex(u8 bcd)
    530          {
   \                     bcd2hex:
   \   000000 B700                  LD        S:?b1, A
    531            u8 hex=0;
    532            hex=(bcd>>4)*10 +(bcd&0x0f);
    533            bcd=0;
    534            return hex ;
   \   000002 4E                    SWAP      A
   \   000003 A40F                  AND       A, #0xf
   \   000005 350A0000              MOV       S:?b0, #0xa
   \   000009 97                    LD        XL, A
   \   00000A B600                  LD        A, S:?b0
   \   00000C 42                    MUL       X, A
   \   00000D 41                    EXG       A, XL
   \   00000E B700                  LD        S:?b0, A
   \   000010 B600                  LD        A, S:?b1
   \   000012 A40F                  AND       A, #0xf
   \   000014 BB00                  ADD       A, S:?b0
   \   000016 87                    RETF
    535          }
    536          
    537          

   \                                 In section .far_func.text, align 1, keep-with-next
   \                     ?Subroutine45:
   \   000000 A601                  LD        A, #0x1
   \   000002 AC000000              JPF       LCDInstr

   \                                 In section .far_func.text, align 1, keep-with-next
    538          bool Set_Clock()
    539          {
    540              //Clear Display
    541             LCDInstr(0x01);
   \                     Set_Clock:
   \   000000 8D000000              CALLF     ?Subroutine12
    542             Delay1(1000);
    543             line_lcd=0;
    544              printf("\nYears:");
   \                     ??CrossCallReturnLabel_39:
   \   000004 AE0000                LDW       X, #`?<Constant "\\nYears:">`
   \   000007 8D000000              CALLF     printf
    545                do
    546              {
    547               line_lcd=1;
   \                     ??Set_Clock_0:
   \   00000B 8D000000              CALLF     ?Subroutine17
    548               printf("\n%02d:%02d:%02d",years,mounts,date);
   \                     ??CrossCallReturnLabel_55:
   \   00000F 89                    PUSHW     X
   \   000010 C60000                LD        A, L:mounts
   \   000013 97                    LD        XL, A
   \   000014 89                    PUSHW     X
   \   000015 C60000                LD        A, L:years
   \   000018 97                    LD        XL, A
   \   000019 89                    PUSHW     X
   \   00001A AE0000                LDW       X, #`?<Constant "\\n%02d:%02d:%02d">`
   \   00001D 8D000000              CALLF     printf
   \   000021 5B06                  ADD       SP, #0x6
    549                 years=adj(0,99,years);
   \   000023 C60000                LD        A, L:years
   \   000026 B700                  LD        S:?b1, A
   \   000028 35630000              MOV       S:?b0, #0x63
   \   00002C 8D000000              CALLF     ??Subroutine51_0
    550              } while (!key_ok_on());
   \                     ??CrossCallReturnLabel_169:
   \   000030 C70000                LD        L:years, A
   \   000033 8D000000              CALLF     ?Subroutine31
   \                     ??CrossCallReturnLabel_96:
   \   000037 27D2                  JREQ      L:??Set_Clock_0
    551          
    552               line_lcd=0;
   \   000039 725F0000              CLR       L:line_lcd
    553              printf("\nMounts:");
   \   00003D AE0000                LDW       X, #`?<Constant "\\nMounts:">`
   \   000040 8D000000              CALLF     printf
    554                do
    555              {
    556               line_lcd=1;
   \                     ??Set_Clock_1:
   \   000044 8D000000              CALLF     ?Subroutine17
    557               printf("\n%02d:%02d:%02d",years,mounts,date);
   \                     ??CrossCallReturnLabel_56:
   \   000048 89                    PUSHW     X
   \   000049 C60000                LD        A, L:mounts
   \   00004C 97                    LD        XL, A
   \   00004D 89                    PUSHW     X
   \   00004E C60000                LD        A, L:years
   \   000051 97                    LD        XL, A
   \   000052 89                    PUSHW     X
   \   000053 AE0000                LDW       X, #`?<Constant "\\n%02d:%02d:%02d">`
   \   000056 8D000000              CALLF     printf
   \   00005A 5B06                  ADD       SP, #0x6
    558                 mounts=adj(1,12,mounts);
   \   00005C C60000                LD        A, L:mounts
   \   00005F B700                  LD        S:?b1, A
   \   000061 350C0000              MOV       S:?b0, #0xc
   \   000065 A601                  LD        A, #0x1
   \   000067 8D000000              CALLF     adj
   \   00006B C70000                LD        L:mounts, A
    559              } while (!key_ok_on());
   \   00006E 8D000000              CALLF     ?Subroutine31
   \                     ??CrossCallReturnLabel_97:
   \   000072 27D0                  JREQ      L:??Set_Clock_1
    560          
    561              LCDInstr(0x01);
   \   000074 8D000000              CALLF     ?Subroutine12
    562               Delay1(1000);
    563                line_lcd=0;
    564              printf("\nDate:");
   \                     ??CrossCallReturnLabel_40:
   \   000078 AE0000                LDW       X, #`?<Constant "\\nDate:">`
   \   00007B 8D000000              CALLF     printf
    565                do
    566              {
    567               line_lcd=1;
   \                     ??Set_Clock_2:
   \   00007F 8D000000              CALLF     ?Subroutine17
    568               printf("\n%02d:%02d:%02d",years,mounts,date);
   \                     ??CrossCallReturnLabel_57:
   \   000083 89                    PUSHW     X
   \   000084 C60000                LD        A, L:mounts
   \   000087 97                    LD        XL, A
   \   000088 89                    PUSHW     X
   \   000089 C60000                LD        A, L:years
   \   00008C 97                    LD        XL, A
   \   00008D 89                    PUSHW     X
   \   00008E AE0000                LDW       X, #`?<Constant "\\n%02d:%02d:%02d">`
   \   000091 8D000000              CALLF     printf
   \   000095 5B06                  ADD       SP, #0x6
    569                 date=adj(1,31,date);
   \   000097 C60000                LD        A, L:`date`
   \   00009A B700                  LD        S:?b1, A
   \   00009C 351F0000              MOV       S:?b0, #0x1f
   \   0000A0 A601                  LD        A, #0x1
   \   0000A2 8D000000              CALLF     adj
   \   0000A6 C70000                LD        L:`date`, A
    570              } while (!key_ok_on());
   \   0000A9 8D000000              CALLF     ?Subroutine31
   \                     ??CrossCallReturnLabel_98:
   \   0000AD 27D0                  JREQ      L:??Set_Clock_2
    571          
    572          
    573              //Clear Display
    574             LCDInstr(0x01);
   \   0000AF 8D000000              CALLF     ?Subroutine12
    575             Delay1(1000);
    576             line_lcd=0;
    577              printf("\nDays:");
   \                     ??CrossCallReturnLabel_41:
   \   0000B3 AE0000                LDW       X, #`?<Constant "\\nDays:">`
   \   0000B6 8D000000              CALLF     printf
    578                do
    579              {
    580                line_lcd=1;
   \                     ??Set_Clock_3:
   \   0000BA 35010000              MOV       L:line_lcd, #0x1
    581               printf("\n%02d",days);
   \   0000BE C60000                LD        A, L:days
   \   0000C1 5F                    CLRW      X
   \   0000C2 97                    LD        XL, A
   \   0000C3 89                    PUSHW     X
   \   0000C4 AE0000                LDW       X, #`?<Constant "\\n%02d">`
   \   0000C7 8D000000              CALLF     printf
   \   0000CB 5B02                  ADD       SP, #0x2
    582                 days=adj(1,7,days);
   \   0000CD C60000                LD        A, L:days
   \   0000D0 B700                  LD        S:?b1, A
   \   0000D2 35070000              MOV       S:?b0, #0x7
   \   0000D6 A601                  LD        A, #0x1
   \   0000D8 8D000000              CALLF     adj
   \   0000DC C70000                LD        L:days, A
    583              } while (!key_ok_on());
   \   0000DF 8D000000              CALLF     ?Subroutine31
   \                     ??CrossCallReturnLabel_99:
   \   0000E3 27D5                  JREQ      L:??Set_Clock_3
    584          
    585          
    586          
    587             //Clear Display
    588             LCDInstr(0x01);
   \   0000E5 8D000000              CALLF     ?Subroutine12
    589             Delay1(1000);
    590             line_lcd=0;
    591              printf("\nHours:");
   \                     ??CrossCallReturnLabel_42:
   \   0000E9 AE0000                LDW       X, #`?<Constant "\\nHours:">`
   \   0000EC 8D000000              CALLF     printf
    592                do
    593              {
    594                line_lcd=1;
   \                     ??Set_Clock_4:
   \   0000F0 8D000000              CALLF     ?Subroutine16
    595               printf("\n%02d:%02d:%02d",hours,minutes,seconds);
   \                     ??CrossCallReturnLabel_51:
   \   0000F4 89                    PUSHW     X
   \   0000F5 C60000                LD        A, L:minutes
   \   0000F8 97                    LD        XL, A
   \   0000F9 89                    PUSHW     X
   \   0000FA C60000                LD        A, L:hours
   \   0000FD 97                    LD        XL, A
   \   0000FE 89                    PUSHW     X
   \   0000FF AE0000                LDW       X, #`?<Constant "\\n%02d:%02d:%02d">`
   \   000102 8D000000              CALLF     printf
   \   000106 5B06                  ADD       SP, #0x6
    596                 hours=adj(0,23,hours);
   \   000108 C60000                LD        A, L:hours
   \   00010B B700                  LD        S:?b1, A
   \   00010D 35170000              MOV       S:?b0, #0x17
   \   000111 8D000000              CALLF     ??Subroutine51_0
    597              } while (!key_ok_on());
   \                     ??CrossCallReturnLabel_168:
   \   000115 C70000                LD        L:hours, A
   \   000118 8D000000              CALLF     ?Subroutine31
   \                     ??CrossCallReturnLabel_100:
   \   00011C 27D2                  JREQ      L:??Set_Clock_4
    598          
    599               line_lcd=0;
   \   00011E 725F0000              CLR       L:line_lcd
    600               printf("\nMinutes:");
   \   000122 AE0000                LDW       X, #`?<Constant "\\nMinutes:">`
   \   000125 8D000000              CALLF     printf
    601                do
    602              {
    603                line_lcd=1;
   \                     ??Set_Clock_5:
   \   000129 8D000000              CALLF     ?Subroutine16
    604               printf("\n%02d:%02d:%02d",hours,minutes,seconds);
   \                     ??CrossCallReturnLabel_52:
   \   00012D 89                    PUSHW     X
   \   00012E C60000                LD        A, L:minutes
   \   000131 97                    LD        XL, A
   \   000132 89                    PUSHW     X
   \   000133 C60000                LD        A, L:hours
   \   000136 97                    LD        XL, A
   \   000137 89                    PUSHW     X
   \   000138 AE0000                LDW       X, #`?<Constant "\\n%02d:%02d:%02d">`
   \   00013B 8D000000              CALLF     printf
   \   00013F 5B06                  ADD       SP, #0x6
    605                 minutes=adj(0,59,minutes);
   \   000141 C60000                LD        A, L:minutes
   \   000144 8D000000              CALLF     ?Subroutine26
    606              } while (!key_ok_on());
   \                     ??CrossCallReturnLabel_173:
   \   000148 C70000                LD        L:minutes, A
   \   00014B 8D000000              CALLF     ?Subroutine31
   \                     ??CrossCallReturnLabel_101:
   \   00014F 27D8                  JREQ      L:??Set_Clock_5
    607          
    608              line_lcd=0;
   \   000151 725F0000              CLR       L:line_lcd
    609              printf("\nSeconds:");
   \   000155 AE0000                LDW       X, #`?<Constant "\\nSeconds:">`
   \   000158 8D000000              CALLF     printf
    610              do
    611              {
    612                line_lcd=1;
   \                     ??Set_Clock_6:
   \   00015C 8D000000              CALLF     ?Subroutine16
    613               printf("\n%02d:%02d:%02d",hours,minutes,seconds);
   \                     ??CrossCallReturnLabel_53:
   \   000160 89                    PUSHW     X
   \   000161 C60000                LD        A, L:minutes
   \   000164 97                    LD        XL, A
   \   000165 89                    PUSHW     X
   \   000166 C60000                LD        A, L:hours
   \   000169 97                    LD        XL, A
   \   00016A 89                    PUSHW     X
   \   00016B AE0000                LDW       X, #`?<Constant "\\n%02d:%02d:%02d">`
   \   00016E 8D000000              CALLF     printf
   \   000172 5B06                  ADD       SP, #0x6
    614                 seconds=adj(0,59,seconds);
   \   000174 C60000                LD        A, L:seconds
   \   000177 8D000000              CALLF     ?Subroutine26
    615              } while (!key_ok_on());
   \                     ??CrossCallReturnLabel_172:
   \   00017B C70000                LD        L:seconds, A
   \   00017E 8D000000              CALLF     ?Subroutine31
   \                     ??CrossCallReturnLabel_102:
   \   000182 27D8                  JREQ      L:??Set_Clock_6
    616          
    617                // Set parameter to DS1307 + time byte
    618                Set_DS1307();
   \   000184 8D000000              CALLF     Set_DS1307
    619          
    620                //bool k=Check_DS1307();
    621          
    622            return TRUE;
   \   000188 A601                  LD        A, #0x1
   \   00018A 87                    RETF
    623          }

   \                                 In section .far_func.text, align 1, keep-with-next
   \                     ?Subroutine26:
   \   000000 B700                  LD        S:?b1, A
   \   000002 353B0000              MOV       S:?b0, #0x3b
   \   000006                       REQUIRE ??Subroutine51_0
   \   000006                       ;               // Fall through to label ??Subroutine51_0

   \                                 In section .far_func.text, align 1, keep-with-next
   \                     ??Subroutine51_0:
   \   000000 4F                    CLR       A
   \   000001 AC000000              JPF       adj

   \                                 In section .far_func.text, align 1, keep-with-next
   \                     ?Subroutine17:
   \   000000 35010000              MOV       L:line_lcd, #0x1
   \   000004 C60000                LD        A, L:`date`
   \   000007 5F                    CLRW      X
   \   000008 97                    LD        XL, A
   \   000009 87                    RETF

   \                                 In section .far_func.text, align 1, keep-with-next
   \                     ?Subroutine12:
   \   000000 8D000000              CALLF     ?Subroutine45
   \                     ??CrossCallReturnLabel_140:
   \   000004 AE03E8                LDW       X, #0x3e8
   \   000007 8D000000              CALLF     Delay1
   \   00000B 725F0000              CLR       L:line_lcd
   \   00000F 87                    RETF
    624          
    625          

   \                                 In section .far_func.text, align 1, keep-with-next
    626          u8 adj(u8 min,u8 max,u8 now)
    627          {
   \                     adj:
   \   000000 8D000000              CALLF     L:?push_w4
   \   000004 3B0000                PUSH      S:?b10
   \   000007 B700                  LD        S:?b10, A
   \   000009 450000                MOV       S:?b8, S:?b0
   \   00000C 450000                MOV       S:?b9, S:?b1
    628             u8 adj=now;
    629             if (key_plus_on()) adj ++;
   \   00000F 8D000000              CALLF     key_plus_on
   \   000013 A100                  CP        A, #0x0
   \   000015 2705                  JREQ      L:??adj_0
   \   000017 B600                  LD        A, S:?b9
   \   000019 4C                    INC       A
   \   00001A B700                  LD        S:?b9, A
    630             if (adj >max) adj = min;
   \                     ??adj_0:
   \   00001C B600                  LD        A, S:?b8
   \   00001E B100                  CP        A, S:?b9
   \   000020 2403                  JRNC      L:??adj_1
   \   000022 450000                MOV       S:?b9, S:?b10
    631             if (key_minus_on()) adj --;
   \                     ??adj_1:
   \   000025 8D000000              CALLF     key_minus_on
   \   000029 A100                  CP        A, #0x0
   \   00002B 2705                  JREQ      L:??adj_2
   \   00002D B600                  LD        A, S:?b9
   \   00002F 4A                    DEC       A
   \   000030 B700                  LD        S:?b9, A
    632             if ( adj == 255) adj=max;
   \                     ??adj_2:
   \   000032 B600                  LD        A, S:?b9
   \   000034 A1FF                  CP        A, #0xff
   \   000036 2603                  JRNE      L:??adj_3
   \   000038 450000                MOV       S:?b9, S:?b8
    633             if (adj < min) adj=max;
   \                     ??adj_3:
   \   00003B B600                  LD        A, S:?b9
   \   00003D B100                  CP        A, S:?b10
   \   00003F 2403                  JRNC      L:??adj_4
   \   000041 450000                MOV       S:?b9, S:?b8
    634             return adj ;
   \                     ??adj_4:
   \   000044 B600                  LD        A, S:?b9
   \   000046 320000                POP       S:?b10
   \   000049 AC000000              JPF       L:?epilogue_w4
    635          }
    636          
    637          

   \                                 In section .far_func.text, align 1, keep-with-next
    638          bool key_ok_on()
    639          {
    640            //Read Key OK
    641            if (!(GPIO_ReadInputData(GPIOF)& key_ok))
   \                     key_ok_on:
   \   000000 8D000000              CALLF     ?Subroutine47
   \                     ??CrossCallReturnLabel_148:
   \   000004 A510                  BCP       A, #0x10
   \   000006 261F                  JRNE      L:??key_ok_on_0
    642             {
    643               timer2=0;  // Key must be push for timer2 time
   \   000008 5F                    CLRW      X
   \   000009 CF0000                LDW       L:timer2, X
    644                while((timer2 < key_time_ok) && !(GPIO_ReadInputData(GPIOF)& key_ok) );;
   \                     ??key_ok_on_1:
   \   00000C CE0000                LDW       X, L:timer2
   \   00000F A33A98                CPW       X, #0x3a98
   \   000012 2408                  JRNC      L:??key_ok_on_2
   \   000014 8D000000              CALLF     ?Subroutine47
   \                     ??CrossCallReturnLabel_147:
   \   000018 A510                  BCP       A, #0x10
   \   00001A 27F0                  JREQ      L:??key_ok_on_1
    645                  if (timer2>=key_time_ok) return TRUE;
   \                     ??key_ok_on_2:
   \   00001C CE0000                LDW       X, L:timer2
   \   00001F A33A98                CPW       X, #0x3a98
   \   000022 2503                  JRC       L:??key_ok_on_0
   \   000024 A601                  LD        A, #0x1
   \   000026 87                    RETF
    646             }
    647          
    648            return FALSE;
   \                     ??key_ok_on_0:
   \   000027 4F                    CLR       A
   \   000028 87                    RETF
    649          }

   \                                 In section .far_func.text, align 1, keep-with-next
   \                     ?Subroutine47:
   \   000000 AE5019                LDW       X, #0x5019
   \   000003 AC000000              JPF       GPIO_ReadInputData
    650          

   \                                 In section .far_func.text, align 1, keep-with-next
    651           bool key_plus_on()
    652          {
    653            //Read Key OK
    654              if (!(GPIO_ReadInputData(GPIOA)& key_plus))
   \                     key_plus_on:
   \   000000 8D000000              CALLF     ?Subroutine29
   \                     ??CrossCallReturnLabel_85:
   \   000004 A502                  BCP       A, #0x2
   \   000006 261B                  JRNE      L:??key_plus_on_0
    655               {
    656               timer2=0;  // Key must be push for timer2 time
   \   000008 5F                    CLRW      X
   \   000009 CF0000                LDW       L:timer2, X
    657                while((timer2 < key_time) && !(GPIO_ReadInputData(GPIOA)& key_plus) );;
   \                     ??key_plus_on_1:
   \   00000C 8D000000              CALLF     ?Subroutine8
   \                     ??CrossCallReturnLabel_22:
   \   000010 2408                  JRNC      L:??key_plus_on_2
   \   000012 8D000000              CALLF     ?Subroutine29
   \                     ??CrossCallReturnLabel_84:
   \   000016 A502                  BCP       A, #0x2
   \   000018 27F2                  JREQ      L:??key_plus_on_1
    658                  if (timer2>=key_time) return TRUE;
   \                     ??key_plus_on_2:
   \   00001A 8D000000              CALLF     ?Subroutine8
   \                     ??CrossCallReturnLabel_23:
   \   00001E 2503                  JRC       L:??key_plus_on_0
   \   000020 A601                  LD        A, #0x1
   \   000022 87                    RETF
    659               }
    660          
    661            return FALSE;
   \                     ??key_plus_on_0:
   \   000023 4F                    CLR       A
   \   000024 87                    RETF
    662          }

   \                                 In section .far_func.text, align 1, keep-with-next
   \                     ?Subroutine29:
   \   000000 AE5000                LDW       X, #0x5000
   \   000003 AC000000              JPF       GPIO_ReadInputData

   \                                 In section .far_func.text, align 1, keep-with-next
   \                     ?Subroutine8:
   \   000000 CE0000                LDW       X, L:timer2
   \   000003 A31F40                CPW       X, #0x1f40
   \   000006 87                    RETF
    663          

   \                                 In section .far_func.text, align 1, keep-with-next
    664            bool key_minus_on()
    665          {
    666            //Read Key OK
    667             if (!(GPIO_ReadInputData(GPIOA)& key_minus))
   \                     key_minus_on:
   \   000000 8D000000              CALLF     ?Subroutine29
   \                     ??CrossCallReturnLabel_87:
   \   000004 A504                  BCP       A, #0x4
   \   000006 261B                  JRNE      L:??key_minus_on_0
    668               {
    669               timer2=0;  // Key must be push for timer2 time
   \   000008 5F                    CLRW      X
   \   000009 CF0000                LDW       L:timer2, X
    670                while((timer2 < key_time) && !(GPIO_ReadInputData(GPIOA)& key_minus) );;
   \                     ??key_minus_on_1:
   \   00000C 8D000000              CALLF     ?Subroutine8
   \                     ??CrossCallReturnLabel_20:
   \   000010 2408                  JRNC      L:??key_minus_on_2
   \   000012 8D000000              CALLF     ?Subroutine29
   \                     ??CrossCallReturnLabel_86:
   \   000016 A504                  BCP       A, #0x4
   \   000018 27F2                  JREQ      L:??key_minus_on_1
    671                  if (timer2>=key_time) return TRUE;
   \                     ??key_minus_on_2:
   \   00001A 8D000000              CALLF     ?Subroutine8
   \                     ??CrossCallReturnLabel_21:
   \   00001E 2503                  JRC       L:??key_minus_on_0
   \   000020 A601                  LD        A, #0x1
   \   000022 87                    RETF
    672               }
    673          
    674            return FALSE;
   \                     ??key_minus_on_0:
   \   000023 4F                    CLR       A
   \   000024 87                    RETF
    675          }
    676          
    677          

   \                                 In section .far_func.text, align 1, keep-with-next
    678          bool  key_ok_plus()
    679          {
   \                     key_ok_plus:
   \   000000 3B0000                PUSH      S:?b8
    680            if (!((GPIO_ReadInputData(GPIOF)& key_ok)|(GPIO_ReadInputData(GPIOA)& key_plus)))
   \   000003 8D000000              CALLF     ?Subroutine13
   \                     ??CrossCallReturnLabel_43:
   \   000007 261A                  JRNE      L:??key_ok_plus_0
    681            {
    682                timer2=0;  // Key must be push for timer2 time
   \   000009 5F                    CLRW      X
   \   00000A CF0000                LDW       L:timer2, X
    683                while((timer2 < key_time) && !((GPIO_ReadInputData(GPIOF)& key_ok)|(GPIO_ReadInputData(GPIOA)& key_plus)));;
   \                     ??key_ok_plus_1:
   \   00000D 8D000000              CALLF     ?Subroutine8
   \                     ??CrossCallReturnLabel_24:
   \   000011 2406                  JRNC      L:??key_ok_plus_2
   \   000013 8D000000              CALLF     ?Subroutine13
   \                     ??CrossCallReturnLabel_44:
   \   000017 27F4                  JREQ      L:??key_ok_plus_1
    684                 if (timer2>=key_time) return TRUE;
   \                     ??key_ok_plus_2:
   \   000019 8D000000              CALLF     ?Subroutine8
   \                     ??CrossCallReturnLabel_25:
   \   00001D 2504                  JRC       L:??key_ok_plus_0
   \   00001F A601                  LD        A, #0x1
   \   000021 2001                  JRA       L:??key_ok_plus_3
    685            }
    686          
    687           return FALSE;
   \                     ??key_ok_plus_0:
   \   000023 4F                    CLR       A
   \                     ??key_ok_plus_3:
   \   000024 320000                POP       S:?b8
   \   000027 87                    RETF
    688          }

   \                                 In section .far_func.text, align 1, keep-with-next
   \                     ?Subroutine13:
   \   000000 8D000000              CALLF     ?Subroutine47
   \                     ??CrossCallReturnLabel_146:
   \   000004 B700                  LD        S:?b8, A
   \   000006 AE5000                LDW       X, #0x5000
   \   000009 8D000000              CALLF     GPIO_ReadInputData
   \   00000D A402                  AND       A, #0x2
   \   00000F 88                    PUSH      A
   \   000010 B600                  LD        A, S:?b8
   \   000012 A410                  AND       A, #0x10
   \   000014 B700                  LD        S:?b1, A
   \   000016 84                    POP       A
   \   000017 BA00                  OR        A, S:?b1
   \   000019 87                    RETF
    689          
    690          

   \                                 In section .far_func.text, align 1, keep-with-next
    691          bool Set_Delay_Allarm()
    692          {
    693          
    694             //clr
    695             LCDInstr(0x01);
   \                     Set_Delay_Allarm:
   \   000000 8D000000              CALLF     ?Subroutine12
    696             Delay1(1000);
    697             line_lcd=0;
    698             printf("\nH On:");
   \                     ??CrossCallReturnLabel_34:
   \   000004 AE0000                LDW       X, #`?<Constant "\\nH On:">`
   \   000007 8D000000              CALLF     printf
    699            do
    700              {
    701               line_lcd=1;
   \                     ??Set_Delay_Allarm_0:
   \   00000B 35010000              MOV       L:line_lcd, #0x1
    702               printf("\n%02d:%02d",daily_hour_on,daily_minute_on);
   \   00000F C60000                LD        A, L:daily_minute_on
   \   000012 5F                    CLRW      X
   \   000013 97                    LD        XL, A
   \   000014 89                    PUSHW     X
   \   000015 C60000                LD        A, L:daily_hour_on
   \   000018 97                    LD        XL, A
   \   000019 89                    PUSHW     X
   \   00001A AE0000                LDW       X, #`?<Constant "\\n%02d:%02d">`
   \   00001D 8D000000              CALLF     printf
   \   000021 5B04                  ADD       SP, #0x4
    703                 daily_hour_on=adj(0,23,daily_hour_on);
   \   000023 C60000                LD        A, L:daily_hour_on
   \   000026 B700                  LD        S:?b1, A
   \   000028 35170000              MOV       S:?b0, #0x17
   \   00002C 8D000000              CALLF     ??Subroutine51_0
    704              } while (!key_ok_on());
   \                     ??CrossCallReturnLabel_171:
   \   000030 C70000                LD        L:daily_hour_on, A
   \   000033 8D000000              CALLF     ?Subroutine31
   \                     ??CrossCallReturnLabel_91:
   \   000037 27D2                  JREQ      L:??Set_Delay_Allarm_0
    705          
    706             LCDInstr(0x01);
   \   000039 8D000000              CALLF     ?Subroutine12
    707             Delay1(1000);
    708             line_lcd=0;
    709             printf("\nMin On:");
   \                     ??CrossCallReturnLabel_35:
   \   00003D AE0000                LDW       X, #`?<Constant "\\nMin On:">`
   \   000040 8D000000              CALLF     printf
    710            do
    711              {
    712               line_lcd=1;
   \                     ??Set_Delay_Allarm_1:
   \   000044 35010000              MOV       L:line_lcd, #0x1
    713               printf("\n%02d:%02d",daily_hour_on,daily_minute_on);
   \   000048 C60000                LD        A, L:daily_minute_on
   \   00004B 5F                    CLRW      X
   \   00004C 97                    LD        XL, A
   \   00004D 89                    PUSHW     X
   \   00004E C60000                LD        A, L:daily_hour_on
   \   000051 97                    LD        XL, A
   \   000052 89                    PUSHW     X
   \   000053 AE0000                LDW       X, #`?<Constant "\\n%02d:%02d">`
   \   000056 8D000000              CALLF     printf
   \   00005A 5B04                  ADD       SP, #0x4
    714                 daily_minute_on=adj(0,59,daily_minute_on);
   \   00005C C60000                LD        A, L:daily_minute_on
   \   00005F 8D000000              CALLF     ?Subroutine26
    715              } while (!key_ok_on());
   \                     ??CrossCallReturnLabel_175:
   \   000063 C70000                LD        L:daily_minute_on, A
   \   000066 8D000000              CALLF     ?Subroutine31
   \                     ??CrossCallReturnLabel_92:
   \   00006A 27D8                  JREQ      L:??Set_Delay_Allarm_1
    716          
    717              LCDInstr(0x01);
   \   00006C 8D000000              CALLF     ?Subroutine12
    718              Delay1(1000);
    719              line_lcd=0;
    720              printf("\nH Off:");
   \                     ??CrossCallReturnLabel_36:
   \   000070 AE0000                LDW       X, #`?<Constant "\\nH Off:">`
   \   000073 8D000000              CALLF     printf
    721            do
    722              {
    723               line_lcd=1;
   \                     ??Set_Delay_Allarm_2:
   \   000077 35010000              MOV       L:line_lcd, #0x1
    724               printf("\n%02d:%02d",daily_hour_off,daily_minute_off);
   \   00007B C60000                LD        A, L:daily_minute_off
   \   00007E 5F                    CLRW      X
   \   00007F 97                    LD        XL, A
   \   000080 89                    PUSHW     X
   \   000081 C60000                LD        A, L:daily_hour_off
   \   000084 97                    LD        XL, A
   \   000085 89                    PUSHW     X
   \   000086 AE0000                LDW       X, #`?<Constant "\\n%02d:%02d">`
   \   000089 8D000000              CALLF     printf
   \   00008D 5B04                  ADD       SP, #0x4
    725                 daily_hour_off=adj(0,23,daily_hour_off);
   \   00008F C60000                LD        A, L:daily_hour_off
   \   000092 B700                  LD        S:?b1, A
   \   000094 35170000              MOV       S:?b0, #0x17
   \   000098 8D000000              CALLF     ??Subroutine51_0
    726              } while (!key_ok_on());
   \                     ??CrossCallReturnLabel_170:
   \   00009C C70000                LD        L:daily_hour_off, A
   \   00009F 8D000000              CALLF     ?Subroutine31
   \                     ??CrossCallReturnLabel_93:
   \   0000A3 27D2                  JREQ      L:??Set_Delay_Allarm_2
    727          
    728            LCDInstr(0x01);
   \   0000A5 8D000000              CALLF     ?Subroutine12
    729             Delay1(1000);
    730             line_lcd=0;
    731             printf("\nMin Off:");
   \                     ??CrossCallReturnLabel_37:
   \   0000A9 AE0000                LDW       X, #`?<Constant "\\nMin Off:">`
   \   0000AC 8D000000              CALLF     printf
    732            do
    733              {
    734               line_lcd=1;
   \                     ??Set_Delay_Allarm_3:
   \   0000B0 35010000              MOV       L:line_lcd, #0x1
    735               printf("\n%02d:%02d",daily_hour_off,daily_minute_off);
   \   0000B4 C60000                LD        A, L:daily_minute_off
   \   0000B7 5F                    CLRW      X
   \   0000B8 97                    LD        XL, A
   \   0000B9 89                    PUSHW     X
   \   0000BA C60000                LD        A, L:daily_hour_off
   \   0000BD 97                    LD        XL, A
   \   0000BE 89                    PUSHW     X
   \   0000BF AE0000                LDW       X, #`?<Constant "\\n%02d:%02d">`
   \   0000C2 8D000000              CALLF     printf
   \   0000C6 5B04                  ADD       SP, #0x4
    736                 daily_minute_off=adj(0,59,daily_minute_off);
   \   0000C8 C60000                LD        A, L:daily_minute_off
   \   0000CB 8D000000              CALLF     ?Subroutine26
    737              } while (!key_ok_on());
   \                     ??CrossCallReturnLabel_174:
   \   0000CF C70000                LD        L:daily_minute_off, A
   \   0000D2 8D000000              CALLF     ?Subroutine31
   \                     ??CrossCallReturnLabel_94:
   \   0000D6 27D8                  JREQ      L:??Set_Delay_Allarm_3
    738          
    739               //Computing time_long_on
    740          
    741               u8 hour=daily_hour_on;
   \   0000D8 8D000000              CALLF     ?Subroutine35
    742               u8 minute=daily_minute_on;
    743               daily_long_on=0;
    744               do
    745               {
    746                    daily_long_on++;
   \                     ??CrossCallReturnLabel_116:
   \   0000DC 8D000000              CALLF     ?Subroutine10
    747                    minute++;
    748                    if (minute==60)
   \                     ??CrossCallReturnLabel_29:
   \   0000E0 2607                  JRNE      L:??Set_Delay_Allarm_4
    749                    {
    750                      minute=0;
   \   0000E2 3F00                  CLR       S:?b1
    751                      hour++;
   \   0000E4 B600                  LD        A, S:?b0
   \   0000E6 4C                    INC       A
   \   0000E7 B700                  LD        S:?b0, A
    752                    }
    753                    if(hour==24) hour=0;
   \                     ??Set_Delay_Allarm_4:
   \   0000E9 B600                  LD        A, S:?b0
   \   0000EB A118                  CP        A, #0x18
   \   0000ED 2602                  JRNE      L:??Set_Delay_Allarm_5
   \   0000EF 3F00                  CLR       S:?b0
    754          
    755               } while ( !((hour==daily_hour_off) & (minute==daily_minute_off)));
   \                     ??Set_Delay_Allarm_5:
   \   0000F1 C60000                LD        A, L:daily_hour_off
   \   0000F4 B100                  CP        A, S:?b0
   \   0000F6 26E4                  JRNE      L:??CrossCallReturnLabel_116
   \   0000F8 C60000                LD        A, L:daily_minute_off
   \   0000FB B100                  CP        A, S:?b1
   \   0000FD 26DD                  JRNE      L:??CrossCallReturnLabel_116
    756          
    757                //Display daily_long_on
    758              LCDInstr(0x01);
   \   0000FF 8D000000              CALLF     ?Subroutine12
    759              Delay1(1000);
    760              line_lcd=0;
    761              printf("\nLong :");
   \                     ??CrossCallReturnLabel_38:
   \   000103 AE0000                LDW       X, #`?<Constant "\\nLong :">`
   \   000106 8D000000              CALLF     printf
    762          
    763                do
    764              {
    765               line_lcd=1;
   \                     ??Set_Delay_Allarm_6:
   \   00010A 35010000              MOV       L:line_lcd, #0x1
    766               printf("\n%d",daily_long_on);
   \   00010E 3B0000                PUSH      L:daily_long_on + 1
   \   000111 3B0000                PUSH      L:daily_long_on
   \   000114 AE0000                LDW       X, #`?<Constant "\\n%d">`
   \   000117 8D000000              CALLF     printf
   \   00011B 5B02                  ADD       SP, #0x2
    767                 //daily_long_on=adj(0,1440,daily_long_on);
    768              } while (!key_ok_on());
   \   00011D 8D000000              CALLF     ?Subroutine31
   \                     ??CrossCallReturnLabel_95:
   \   000121 27E7                  JREQ      L:??Set_Delay_Allarm_6
    769          
    770              time_on=daily_hour_on*60+daily_minute_on;
   \   000123 8D000000              CALLF     ?Subroutine1
    771              time_off= daily_hour_off*60+daily_minute_off;
    772              //Save data to eeprom
    773               EEPROM_INIT();
   \                     ??CrossCallReturnLabel_0:
   \   000127 8D000000              CALLF     EEPROM_INIT
    774               FLASH_ProgramByte(EEPROM_ADDR,daily_hour_on);
   \   00012B C60000                LD        A, L:daily_hour_on
   \   00012E AE4000                LDW       X, #0x4000
   \   000131 8D000000              CALLF     ?Subroutine4
    775               FLASH_ProgramByte(EEPROM_ADDR+1,daily_minute_on);
   \                     ??CrossCallReturnLabel_11:
   \   000135 C60000                LD        A, L:daily_minute_on
   \   000138 AE4001                LDW       X, #0x4001
   \   00013B 8D000000              CALLF     ?Subroutine4
    776               FLASH_ProgramByte(EEPROM_ADDR+2,daily_hour_off);
   \                     ??CrossCallReturnLabel_10:
   \   00013F C60000                LD        A, L:daily_hour_off
   \   000142 AE4002                LDW       X, #0x4002
   \   000145 8D000000              CALLF     ?Subroutine4
    777               FLASH_ProgramByte(EEPROM_ADDR+3,daily_minute_off);
   \                     ??CrossCallReturnLabel_9:
   \   000149 C60000                LD        A, L:daily_minute_off
   \   00014C AE4003                LDW       X, #0x4003
   \   00014F 8D000000              CALLF     ?Subroutine4
    778          
    779             return TRUE;
   \                     ??CrossCallReturnLabel_8:
   \   000153 A601                  LD        A, #0x1
   \   000155 87                    RETF
    780          
    781          }

   \                                 In section .far_func.text, align 1, keep-with-next
   \                     ?Subroutine35:
   \   000000 C60000                LD        A, L:daily_hour_on
   \   000003 B700                  LD        S:?b0, A
   \   000005 C60000                LD        A, L:daily_minute_on
   \   000008 B700                  LD        S:?b1, A
   \   00000A 5F                    CLRW      X
   \   00000B CF0000                LDW       L:daily_long_on, X
   \   00000E 87                    RETF

   \                                 In section .far_func.text, align 1, keep-with-next
   \                     ?Subroutine10:
   \   000000 CE0000                LDW       X, L:daily_long_on
   \   000003 5C                    INCW      X
   \   000004 CF0000                LDW       L:daily_long_on, X
   \   000007 B600                  LD        A, S:?b1
   \   000009 4C                    INC       A
   \   00000A B700                  LD        S:?b1, A
   \   00000C A13C                  CP        A, #0x3c
   \   00000E 87                    RETF

   \                                 In section .far_func.text, align 1, keep-with-next
   \                     ?Subroutine4:
   \   000000 BF00                  LDW       S:?w1, X
   \   000002 5F                    CLRW      X
   \   000003 BF00                  LDW       S:?w0, X
   \   000005 AC000000              JPF       FLASH_ProgramByte
    782          

   \                                 In section .far_func.text, align 1, keep-with-next
    783          bool Read_Allarm()
    784          {
    785             daily_hour_on=FLASH_ReadByte(EEPROM_ADDR);
   \                     Read_Allarm:
   \   000000 AE4000                LDW       X, #0x4000
   \   000003 8D000000              CALLF     ?Subroutine3
   \                     ??CrossCallReturnLabel_7:
   \   000007 C70000                LD        L:daily_hour_on, A
    786             daily_minute_on=FLASH_ReadByte(EEPROM_ADDR+1);
   \   00000A AE4001                LDW       X, #0x4001
   \   00000D 8D000000              CALLF     ?Subroutine3
   \                     ??CrossCallReturnLabel_6:
   \   000011 C70000                LD        L:daily_minute_on, A
    787             daily_hour_off=FLASH_ReadByte(EEPROM_ADDR+2);
   \   000014 AE4002                LDW       X, #0x4002
   \   000017 8D000000              CALLF     ?Subroutine3
   \                     ??CrossCallReturnLabel_5:
   \   00001B C70000                LD        L:daily_hour_off, A
    788             daily_minute_off=FLASH_ReadByte(EEPROM_ADDR+3);
   \   00001E AE4003                LDW       X, #0x4003
   \   000021 8D000000              CALLF     ?Subroutine3
   \                     ??CrossCallReturnLabel_4:
   \   000025 C70000                LD        L:daily_minute_off, A
    789               // Computting daily_long_on
    790               u8 hour=daily_hour_on;
   \   000028 8D000000              CALLF     ?Subroutine35
    791               u8 minute=daily_minute_on;
    792               daily_long_on=0;
    793               do
    794               {
    795                    daily_long_on++;
   \                     ??CrossCallReturnLabel_115:
   \   00002C 8D000000              CALLF     ?Subroutine10
    796                    minute++;
    797                    if (minute==60)
   \                     ??CrossCallReturnLabel_28:
   \   000030 2607                  JRNE      L:??Read_Allarm_0
    798                    {
    799                      minute=0;
   \   000032 3F00                  CLR       S:?b1
    800                      hour++;
   \   000034 B600                  LD        A, S:?b0
   \   000036 4C                    INC       A
   \   000037 B700                  LD        S:?b0, A
    801                    }
    802                    if(hour==24) hour=0;
   \                     ??Read_Allarm_0:
   \   000039 B600                  LD        A, S:?b0
   \   00003B A118                  CP        A, #0x18
   \   00003D 2602                  JRNE      L:??Read_Allarm_1
   \   00003F 3F00                  CLR       S:?b0
    803          
    804               } while ( !((hour==daily_hour_off) & (minute==daily_minute_off)));
   \                     ??Read_Allarm_1:
   \   000041 C60000                LD        A, L:daily_hour_off
   \   000044 B100                  CP        A, S:?b0
   \   000046 26E4                  JRNE      L:??CrossCallReturnLabel_115
   \   000048 C60000                LD        A, L:daily_minute_off
   \   00004B B100                  CP        A, S:?b1
   \   00004D 26DD                  JRNE      L:??CrossCallReturnLabel_115
    805          
    806            return TRUE;
   \   00004F A601                  LD        A, #0x1
   \   000051 87                    RETF
    807          }

   \                                 In section .far_func.text, align 1, keep-with-next
   \                     ?Subroutine3:
   \   000000 BF00                  LDW       S:?w1, X
   \   000002 5F                    CLRW      X
   \   000003 BF00                  LDW       S:?w0, X
   \   000005 AC000000              JPF       FLASH_ReadByte
    808          

   \                                 In section .far_func.text, align 1, keep-with-next
    809          void EEPROM_INIT()
    810          {
    811            FLASH_DeInit();
   \                     EEPROM_INIT:
   \   000000 8D000000              CALLF     FLASH_DeInit
    812            FLASH_Unlock(FLASH_MEMTYPE_DATA);
   \   000004 A6F7                  LD        A, #0xf7
   \   000006 8D000000              CALLF     FLASH_Unlock
    813            FLASH_SetProgrammingTime(FLASH_PROGRAMTIME_STANDARD);
   \   00000A 4F                    CLR       A
   \   00000B AC000000              JPF       FLASH_SetProgrammingTime
    814          
    815          
    816          
    817          }
    818          
    819          

   \                                 In section .far_func.text, align 1, keep-with-next
    820          void GpioConfiguration()
    821          {
    822          
    823            GPIO_Init(LCD_PORT,(GPIO_Pin_TypeDef)LCD_GPIO_PIN,GPIO_MODE_OUT_PP_HIGH_FAST);
   \                     GpioConfiguration:
   \   000000 35F00000              MOV       S:?b0, #0xf0
   \   000004 A6FE                  LD        A, #0xfe
   \   000006 AE500A                LDW       X, #0x500a
   \   000009 8D000000              CALLF     GPIO_Init
    824          
    825            // ADC PE6 NEW PB0
    826            GPIO_Init(GPIOB,GPIO_PIN_0,GPIO_MODE_IN_FL_NO_IT);
   \   00000D 3F00                  CLR       S:?b0
   \   00000F A601                  LD        A, #0x1
   \   000011 AE5005                LDW       X, #0x5005
   \   000014 8D000000              CALLF     GPIO_Init
    827          
    828            // PD6/UART2_RX   PD5/UART2_TX  No need to init  PD7 485 R/W;
    829            GPIO_Init(GPIOD,GPIO_PIN_7,GPIO_MODE_OUT_PP_HIGH_FAST);
   \   000018 35F00000              MOV       S:?b0, #0xf0
   \   00001C A680                  LD        A, #0x80
   \   00001E AE500F                LDW       X, #0x500f
   \   000021 8D000000              CALLF     GPIO_Init
    830          
    831            //PD0 Led
    832            GPIO_Init(GPIOD,GPIO_PIN_0,GPIO_MODE_OUT_PP_HIGH_FAST);
   \   000025 35F00000              MOV       S:?b0, #0xf0
   \   000029 A601                  LD        A, #0x1
   \   00002B AE500F                LDW       X, #0x500f
   \   00002E 8D000000              CALLF     ?Subroutine32
    833            //I2C
    834            GPIO_Init(GPIOB,GPIO_PIN_4 ,GPIO_MODE_OUT_OD_HIZ_FAST);
   \                     ??CrossCallReturnLabel_106:
   \   000032 A610                  LD        A, #0x10
   \   000034 AE5005                LDW       X, #0x5005
   \   000037 8D000000              CALLF     ?Subroutine32
    835            GPIO_Init(GPIOB,GPIO_PIN_5 ,GPIO_MODE_OUT_OD_HIZ_FAST);
   \                     ??CrossCallReturnLabel_107:
   \   00003B A620                  LD        A, #0x20
   \   00003D AE5005                LDW       X, #0x5005
   \   000040 8D000000              CALLF     ?Subroutine33
    836            // Remap Pins pb4,pb5  sda,scl ;
    837          
    838             //Init KEY OK,PLUS,MINUS
    839            GPIO_Init(GPIOF,key_ok,GPIO_MODE_IN_PU_NO_IT);
   \                     ??CrossCallReturnLabel_109:
   \   000044 A610                  LD        A, #0x10
   \   000046 AE5019                LDW       X, #0x5019
   \   000049 8D000000              CALLF     ?Subroutine33
    840            GPIO_Init(GPIOA,key_plus,GPIO_MODE_IN_PU_NO_IT);
   \                     ??CrossCallReturnLabel_110:
   \   00004D A602                  LD        A, #0x2
   \   00004F AE5000                LDW       X, #0x5000
   \   000052 8D000000              CALLF     ?Subroutine33
    841            GPIO_Init(GPIOA,key_minus,GPIO_MODE_IN_PU_NO_IT);
   \                     ??CrossCallReturnLabel_111:
   \   000056 A604                  LD        A, #0x4
   \   000058 AE5000                LDW       X, #0x5000
   \   00005B 8D000000              CALLF     ?Subroutine32
    842          
    843            //Init DS18b20 data pin
    844            GPIO_Init(GPIOD,ds18_data,GPIO_MODE_OUT_OD_HIZ_FAST);
   \                     ??CrossCallReturnLabel_108:
   \   00005F A604                  LD        A, #0x4
   \   000061 AE500F                LDW       X, #0x500f
   \   000064 AC000000              JPF       GPIO_Init
    845          
    846          }

   \                                 In section .far_func.text, align 1, keep-with-next
   \                     ?Subroutine33:
   \   000000 8D000000              CALLF     GPIO_Init
   \   000004 35400000              MOV       S:?b0, #0x40
   \   000008 87                    RETF

   \                                 In section .far_func.text, align 1, keep-with-next
   \                     ?Subroutine32:
   \   000000 8D000000              CALLF     GPIO_Init
   \   000004 35B00000              MOV       S:?b0, #0xb0
   \   000008 87                    RETF
    847          

   \                                 In section .far_func.text, align 1, keep-with-next
    848          void InitClk()
    849          {
    850            CLK_DeInit();
   \                     InitClk:
   \   000000 8D000000              CALLF     CLK_DeInit
    851            CLK_SYSCLKConfig(CLK_PRESCALER_CPUDIV1);    // CPU Prescalar = 1.
   \   000004 A680                  LD        A, #0x80
   \   000006 8D000000              CALLF     CLK_SYSCLKConfig
    852            CLK_SYSCLKConfig(CLK_PRESCALER_HSIDIV1);    // Prescalar = 1, 16 MHz.
   \   00000A 4F                    CLR       A
   \   00000B 8D000000              CALLF     CLK_SYSCLKConfig
    853            CLK_ClockSwitchConfig(CLK_SWITCHMODE_AUTO,  // Automatically switch
    854            CLK_SOURCE_HSI,       // Switch to internal timer.
    855            DISABLE,              // Disable the clock switch interrupt.
    856            CLK_CURRENTCLOCKSTATE_DISABLE);   // Disable the previous clock.
   \   00000F 3F00                  CLR       S:?b2
   \   000011 3F00                  CLR       S:?b1
   \   000013 35E10000              MOV       S:?b0, #0xe1
   \   000017 A601                  LD        A, #0x1
   \   000019 8D000000              CALLF     CLK_ClockSwitchConfig
    857          
    858            CLK_PeripheralClockConfig(CLK_PERIPHERAL_TIMER2 , ENABLE);
   \   00001D 35010000              MOV       S:?b0, #0x1
   \   000021 A605                  LD        A, #0x5
   \   000023 8D000000              CALLF     ?Subroutine34
    859            CLK_PeripheralClockConfig(CLK_PERIPHERAL_UART2,ENABLE);
   \                     ??CrossCallReturnLabel_112:
   \   000027 A603                  LD        A, #0x3
   \   000029 8D000000              CALLF     ?Subroutine34
    860            CLK_PeripheralClockConfig(CLK_PERIPHERAL_ADC,ENABLE);
   \                     ??CrossCallReturnLabel_113:
   \   00002D A613                  LD        A, #0x13
   \   00002F 8D000000              CALLF     ?Subroutine34
    861            CLK_PeripheralClockConfig(CLK_PERIPHERAL_I2C,ENABLE);
   \                     ??CrossCallReturnLabel_114:
   \   000033 4F                    CLR       A
   \   000034 AC000000              JPF       CLK_PeripheralClockConfig
    862          
    863          
    864          }

   \                                 In section .far_func.text, align 1, keep-with-next
   \                     ?Subroutine34:
   \   000000 8D000000              CALLF     CLK_PeripheralClockConfig
   \   000004 35010000              MOV       S:?b0, #0x1
   \   000008 87                    RETF
    865          
    866          

   \                                 In section .far_func.text, align 1, keep-with-next
    867          void InitAdc()
    868          {
    869               ADC1_DeInit();
   \                     InitAdc:
   \   000000 8D000000              CALLF     ADC1_DeInit
    870               ADC1_StartConversion();
   \   000004 8D000000              CALLF     ADC1_StartConversion
    871               /*
    872               ADC1_Init(ADC1_CONVERSIONMODE_SINGLE,
    873                          ADC1_CHANNEL_0,
    874                          ADC1_PRESSEL_FCPU_D4,
    875                           ADC1_EXTTRIG_TIM,
    876          
    877                 */
    878               ADC1_PrescalerConfig(ADC1_PRESSEL_FCPU_D3);
   \   000008 A610                  LD        A, #0x10
   \   00000A 8D000000              CALLF     ADC1_PrescalerConfig
    879               ADC1_ConversionConfig( ADC1_CONVERSIONMODE_SINGLE,
    880                                      ADC1_CHANNEL_0,
    881                                      ADC1_ALIGN_RIGHT
    882                                     );
   \   00000E 35080000              MOV       S:?b1, #0x8
   \   000012 3F00                  CLR       S:?b0
   \   000014 4F                    CLR       A
   \   000015 8D000000              CALLF     ADC1_ConversionConfig
    883          
    884          
    885               ADC1_SchmittTriggerConfig(ADC1_SCHMITTTRIG_CHANNEL0,DISABLE);
   \   000019 3F00                  CLR       S:?b0
   \   00001B 4F                    CLR       A
   \   00001C 8D000000              CALLF     ADC1_SchmittTriggerConfig
    886          
    887          
    888               //ADC1_Cmd (ENABLE);
    889               //ADC1->CR1 |= ADC1_CR1_ADON ;
    890               ADC1_StartConversion();
   \   000020 8D000000              CALLF     ADC1_StartConversion
    891               ADC1_ITConfig (ADC1_IT_EOCIE,ENABLE);
   \   000024 A601                  LD        A, #0x1
   \   000026 AE0020                LDW       X, #0x20
   \   000029 AC000000              JPF       ADC1_ITConfig
    892          
    893          }
    894          
    895          /*
    896          void InitUart()
    897          {
    898             UART2_DeInit();
    899             UART2_Init((u32)9600,
    900                        UART2_WORDLENGTH_8D,
    901                        UART2_STOPBITS_1,
    902                        UART2_PARITY_NO,
    903                        UART2_SYNCMODE_CLOCK_DISABLE,
    904                        UART2_MODE_TXRX_ENABLE
    905                          );
    906          
    907             UART2_ITConfig( UART2_IT_RXNE,ENABLE);
    908             UART2_Cmd(ENABLE);
    909          
    910            // UART2_ITConfig(UART2_IT_RXNE,ENABLE);
    911          }
    912            */
    913          

   \                                 In section .far_func.text, align 1, keep-with-next
    914          void SendChar( u8 Char)
    915          {
    916             UART2->DR = Char;
   \                     SendChar:
   \   000000 C75241                LD        L:0x5241, A
    917            while (UART2_GetFlagStatus(UART2_FLAG_TXE) == RESET);;
   \                     ??SendChar_0:
   \   000003 AE0080                LDW       X, #0x80
   \   000006 8D000000              CALLF     UART2_GetFlagStatus
   \   00000A A100                  CP        A, #0x0
   \   00000C 27F5                  JREQ      L:??SendChar_0
    918          }
   \   00000E 87                    RETF
    919            /*
    920          void Send_Hello()
    921          {
    922            GPIO_WriteHigh(GPIOD,GPIO_PIN_7); //R_W Line
    923             Delay1(10);
    924             sprintf(data,"Hello");
    925              u8 i=0;
    926            do
    927           {
    928            SendChar(data[i++]);
    929           } while (data[i]!=0);
    930            while (UART2_GetFlagStatus(UART2_FLAG_TC) == RESET);;  //Wait to send last byte
    931            GPIO_WriteLow(GPIOD,GPIO_PIN_7); //R_W Line
    932          
    933          
    934          
    935          }
    936              */
    937          
    938          
    939              /*
    940          
    941          void SendData()
    942          {
    943           GPIO_WriteHigh(GPIOD,GPIO_PIN_7); //R_W Line
    944            Delay1(10);
    945            u8 i=0;
    946            sprintf(data,"%d %c",adcdata,0x0d);
    947           do
    948           {
    949             SendChar(data[i++]);
    950          
    951           } while (data[i]!=0);
    952             while (UART2_GetFlagStatus(UART2_FLAG_TC) == RESET);;  //Wait to send last byte
    953            GPIO_WriteLow(GPIOD,GPIO_PIN_7); //R_W Line
    954            rx_data=0;
    955          }
    956          */
    957          

   \                                 In section .far_func.text, align 1, keep-with-next
    958          void LCDDataOut(u8 data)
    959          {
   \                     LCDDataOut:
   \   000000 3B0000                PUSH      S:?b8
   \   000003 B700                  LD        S:?b8, A
    960            (data&0x1)? GPIO_WriteHigh(LCD_PORT,DATA4):GPIO_WriteLow(LCD_PORT,DATA4);
   \   000005 A501                  BCP       A, #0x1
   \   000007 2708                  JREQ      L:??LCDDataOut_0
   \   000009 A610                  LD        A, #0x10
   \   00000B 8D000000              CALLF     ?Subroutine5
   \                     ??CrossCallReturnLabel_17:
   \   00000F 2006                  JRA       L:??CrossCallReturnLabel_158
   \                     ??LCDDataOut_0:
   \   000011 A610                  LD        A, #0x10
   \   000013 8D000000              CALLF     ??Subroutine50_0
    961            (data&0x2)? GPIO_WriteHigh(LCD_PORT,DATA5):GPIO_WriteLow(LCD_PORT,DATA5);
   \                     ??CrossCallReturnLabel_158:
   \   000017 B600                  LD        A, S:?b8
   \   000019 A502                  BCP       A, #0x2
   \   00001B 2708                  JREQ      L:??LCDDataOut_1
   \   00001D A620                  LD        A, #0x20
   \   00001F 8D000000              CALLF     ?Subroutine5
   \                     ??CrossCallReturnLabel_16:
   \   000023 2006                  JRA       L:??CrossCallReturnLabel_159
   \                     ??LCDDataOut_1:
   \   000025 A620                  LD        A, #0x20
   \   000027 8D000000              CALLF     ??Subroutine50_0
    962            (data&0x4)? GPIO_WriteHigh(LCD_PORT,DATA6):GPIO_WriteLow(LCD_PORT,DATA6);
   \                     ??CrossCallReturnLabel_159:
   \   00002B B600                  LD        A, S:?b8
   \   00002D A504                  BCP       A, #0x4
   \   00002F 2708                  JREQ      L:??LCDDataOut_2
   \   000031 A640                  LD        A, #0x40
   \   000033 8D000000              CALLF     ?Subroutine5
   \                     ??CrossCallReturnLabel_15:
   \   000037 2006                  JRA       L:??CrossCallReturnLabel_160
   \                     ??LCDDataOut_2:
   \   000039 A640                  LD        A, #0x40
   \   00003B 8D000000              CALLF     ??Subroutine50_0
    963            (data&0x8)? GPIO_WriteHigh(LCD_PORT,DATA7):GPIO_WriteLow(LCD_PORT,DATA7);
   \                     ??CrossCallReturnLabel_160:
   \   00003F B600                  LD        A, S:?b8
   \   000041 A508                  BCP       A, #0x8
   \   000043 2708                  JREQ      L:??LCDDataOut_3
   \   000045 A680                  LD        A, #0x80
   \   000047 8D000000              CALLF     ?Subroutine5
   \                     ??CrossCallReturnLabel_14:
   \   00004B 2006                  JRA       L:??CrossCallReturnLabel_161
   \                     ??LCDDataOut_3:
   \   00004D A680                  LD        A, #0x80
   \   00004F 8D000000              CALLF     ??Subroutine50_0
    964          }
   \                     ??CrossCallReturnLabel_161:
   \   000053 320000                POP       S:?b8
   \   000056 87                    RETF

   \                                 In section .far_func.text, align 1, keep-with-next
   \                     ?Subroutine5:
   \   000000 AE500A                LDW       X, #0x500a
   \   000003 AC000000              JPF       GPIO_WriteHigh

   \                                 In section .far_func.text, align 1, keep-with-next
   \                     ??Subroutine50_0:
   \   000000 8D000000              CALLF     ?Subroutine43
   \                     ??CrossCallReturnLabel_167:
   \   000004 87                    RETF

   \                                 In section .far_func.text, align 1, keep-with-next
   \                     ?Subroutine43:
   \   000000 AE500A                LDW       X, #0x500a
   \   000003 AC000000              JPF       GPIO_WriteLow
    965          

   \                                 In section .far_func.text, align 1, keep-with-next
   \                     ?Subroutine7:
   \   000000 A604                  LD        A, #0x4
   \   000002                       REQUIRE ??Subroutine50_0
   \   000002                       ;               // Fall through to label ??Subroutine50_0

   \                                 In section .far_func.text, align 1, keep-with-next
    966          void InitLcd()
    967          {
    968           LCD_EN(0);
   \                     InitLcd:
   \   000000 A608                  LD        A, #0x8
   \   000002 8D000000              CALLF     ?Subroutine6
    969            LCD_RW(0);
    970            LCD_RS(0);
   \                     ??CrossCallReturnLabel_19:
   \   000006 8D000000              CALLF     ?Subroutine7
    971            Delay1(4000); // 40ms
   \                     ??CrossCallReturnLabel_156:
   \   00000A AE0FA0                LDW       X, #0xfa0
   \   00000D 8D000000              CALLF     ?Subroutine14
    972          
    973            LCDInstrNibble(0x03);
    974             Delay1(10);
    975            LCDInstrNibble(0x03);
   \                     ??CrossCallReturnLabel_46:
   \   000011 A603                  LD        A, #0x3
   \   000013 8D000000              CALLF     LCDInstrNibble
    976             Delay1(10);
   \   000017 AE000A                LDW       X, #0xa
   \   00001A 8D000000              CALLF     ?Subroutine14
    977            LCDInstrNibble(0x03);
    978             Delay1(10);
    979          
    980             //Line 4
    981            LCDInstrNibble(0x02);
   \                     ??CrossCallReturnLabel_45:
   \   00001E A602                  LD        A, #0x2
   \   000020 8D000000              CALLF     LCDInstrNibble
    982            LCDInstrNibble(0x02);
   \   000024 A602                  LD        A, #0x2
   \   000026 8D000000              CALLF     LCDInstrNibble
    983            LCDInstrNibble(0x08);
   \   00002A A608                  LD        A, #0x8
   \   00002C 8D000000              CALLF     LCDInstrNibble
    984            Delay1(100);
   \   000030 AE0064                LDW       X, #0x64
   \   000033 8D000000              CALLF     Delay1
    985          
    986            LCDInstr(0x0C);
   \   000037 A60C                  LD        A, #0xc
   \   000039 8D000000              CALLF     LCDInstr
    987            Delay1(10);
   \   00003D AE000A                LDW       X, #0xa
   \   000040 8D000000              CALLF     Delay1
    988          
    989            LCDInstr(0x01) ;
   \   000044 8D000000              CALLF     ?Subroutine45
    990            Delay1(250);
   \                     ??CrossCallReturnLabel_141:
   \   000048 AE00FA                LDW       X, #0xfa
   \   00004B 8D000000              CALLF     Delay1
    991          
    992            LCDInstr(0x06);
   \   00004F A606                  LD        A, #0x6
   \   000051 8D000000              CALLF     LCDInstr
    993            Delay1(10);
   \   000055 AE000A                LDW       X, #0xa
   \   000058 AC000000              JPF       Delay1
    994          
    995          
    996          }

   \                                 In section .far_func.text, align 1, keep-with-next
   \                     ?Subroutine14:
   \   000000 8D000000              CALLF     Delay1
   \   000004 A603                  LD        A, #0x3
   \   000006 8D000000              CALLF     LCDInstrNibble
   \   00000A AE000A                LDW       X, #0xa
   \   00000D AC000000              JPF       Delay1

   \                                 In section .far_func.text, align 1, keep-with-next
   \                     ?Subroutine6:
   \   000000 8D000000              CALLF     ?Subroutine43
   \                     ??CrossCallReturnLabel_165:
   \   000004 A602                  LD        A, #0x2
   \   000006 8D000000              CALLF     ?Subroutine43
   \                     ??CrossCallReturnLabel_164:
   \   00000A 87                    RETF
    997          

   \                                 In section .far_func.text, align 1, keep-with-next
   \                     ?Subroutine0:
   \   000000 A602                  LD        A, #0x2
   \   000002 8D000000              CALLF     ??Subroutine50_0
   \                     ??CrossCallReturnLabel_162:
   \   000006 B600                  LD        A, S:?b8
   \   000008 4E                    SWAP      A
   \   000009 8D000000              CALLF     ?Subroutine19
   \                     ??CrossCallReturnLabel_153:
   \   00000D                       REQUIRE ??Subroutine49_0
   \   00000D                       ;               // Fall through to label ??Subroutine49_0

   \                                 In section .far_func.text, align 1, keep-with-next
   \                     ??Subroutine49_0:
   \   000000 B600                  LD        A, S:?b8
   \   000002 8D000000              CALLF     ?Subroutine19
   \                     ??CrossCallReturnLabel_152:
   \   000006 320000                POP       S:?b8
   \   000009 87                    RETF

   \                                 In section .far_func.text, align 1, keep-with-next
   \                     ?Subroutine19:
   \   000000 A40F                  AND       A, #0xf
   \   000002 8D000000              CALLF     LCDDataOut
   \   000006 AC000000              JPF       PulseEnable

   \                                 In section .far_func.text, align 1, keep-with-next
    998          void LCDInstr(u8 Instr)
    999          {
   \                     LCDInstr:
   \   000000 3B0000                PUSH      S:?b8
   \   000003 B700                  LD        S:?b8, A
   1000            LCD_RS(0);
   \   000005 8D000000              CALLF     ?Subroutine7
   1001            LCD_RW(0);
   \                     ??CrossCallReturnLabel_154:
   \   000009 2000                  JRA       ?Subroutine0
   1002            LCDDataOut(Instr>>4);
   1003            PulseEnable();
   1004            LCDDataOut(Instr & 0x0F);
   1005            PulseEnable();
   1006          }
   1007          

   \                                 In section .far_func.text, align 1, keep-with-next
   1008          void LCDData(u8 Data)
   1009          {
   \                     LCDData:
   \   000000 3B0000                PUSH      S:?b8
   \   000003 B700                  LD        S:?b8, A
   1010            LCD_RS(1);
   \   000005 A604                  LD        A, #0x4
   \   000007 8D000000              CALLF     ?Subroutine5
   1011            LCD_RW(0);
   \                     ??CrossCallReturnLabel_13:
   \   00000B                       REQUIRE ?Subroutine0
   \   00000B                       ;               // Fall through to label ?Subroutine0
   1012            LCDDataOut(Data>>4);
   1013            PulseEnable() ;
   1014            LCDDataOut(Data & 0x0F) ;
   1015            PulseEnable();
   1016          }
   1017          

   \                                 In section .far_func.text, align 1, keep-with-next
   1018          void LCDInstrNibble(u8 Instr)
   1019          {
   \                     LCDInstrNibble:
   \   000000 3B0000                PUSH      S:?b8
   \   000003 B700                  LD        S:?b8, A
   1020            LCD_RS(0);
   \   000005 A604                  LD        A, #0x4
   \   000007 8D000000              CALLF     ?Subroutine6
   1021            LCD_RW(0);
   1022            LCDDataOut(Instr & 0x0F);
   \                     ??CrossCallReturnLabel_18:
   \   00000B AC000000              JPF       ??Subroutine49_0
   1023            PulseEnable();
   1024          }
   1025          

   \                                 In section .far_func.text, align 1, keep-with-next
   1026          void PulseEnable(void)
   1027          {
   1028            LCD_EN(0);
   \                     PulseEnable:
   \   000000 8D000000              CALLF     ?Subroutine2
   1029             Delay1(1);
   1030            LCD_EN(1);
   1031             Delay1(1);
   1032            LCD_EN(0);
   \                     ??CrossCallReturnLabel_2:
   \   000004 A608                  LD        A, #0x8
   \   000006 8D000000              CALLF     ??Subroutine50_0
   1033             Delay1(1);
   \                     ??CrossCallReturnLabel_157:
   \   00000A 5F                    CLRW      X
   \   00000B 5C                    INCW      X
   \   00000C AC000000              JPF       Delay1
   1034          }

   \                                 In section .far_func.text, align 1, keep-with-next
   \                     ?Subroutine2:
   \   000000 A608                  LD        A, #0x8
   \   000002 8D000000              CALLF     ?Subroutine43
   \                     ??CrossCallReturnLabel_166:
   \   000006 8D000000              CALLF     ?Subroutine42
   \                     ??CrossCallReturnLabel_135:
   \   00000A A608                  LD        A, #0x8
   \   00000C AE500A                LDW       X, #0x500a
   \   00000F 8D000000              CALLF     GPIO_WriteHigh
   \   000013 8D000000              CALLF     ?Subroutine42
   \                     ??CrossCallReturnLabel_134:
   \   000017 87                    RETF

   \                                 In section .far_func.text, align 1, keep-with-next
   \                     ?Subroutine42:
   \   000000 5F                    CLRW      X
   \   000001 5C                    INCW      X
   \   000002 AC000000              JPF       Delay1
   1035          

   \                                 In section .far_func.text, align 1, keep-with-next
   1036          void LCD_Busy(void)
   1037          {
   1038             //set Port D7 as Input
   1039             GPIO_Init(LCD_PORT,DATA7,GPIO_MODE_IN_PU_NO_IT);
   \                     LCD_Busy:
   \   000000 35400000              MOV       S:?b0, #0x40
   \   000004 A680                  LD        A, #0x80
   \   000006 AE500A                LDW       X, #0x500a
   \   000009 8D000000              CALLF     GPIO_Init
   1040             //Set Read
   1041             LCD_RW(1);
   \   00000D A602                  LD        A, #0x2
   \   00000F 8D000000              CALLF     ?Subroutine5
   1042             LCD_RS(0);
   \                     ??CrossCallReturnLabel_12:
   \   000013 8D000000              CALLF     ?Subroutine7
   1043             // Read Busy Flag
   1044                timer2=0;
   \                     ??CrossCallReturnLabel_155:
   \   000017 5F                    CLRW      X
   \   000018 CF0000                LDW       L:timer2, X
   1045             do
   1046             {
   1047             // Enable set
   1048               LCD_EN(0);
   \                     ??LCD_Busy_0:
   \   00001B 8D000000              CALLF     ?Subroutine2
   1049                Delay1(1);
   1050               LCD_EN(1);
   1051                Delay1(1);
   1052             } while (GPIO_ReadInputPin(LCD_PORT, DATA7));
   \                     ??CrossCallReturnLabel_3:
   \   00001F A680                  LD        A, #0x80
   \   000021 AE500A                LDW       X, #0x500a
   \   000024 8D000000              CALLF     GPIO_ReadInputPin
   \   000028 A100                  CP        A, #0x0
   \   00002A 26EF                  JRNE      L:??LCD_Busy_0
   1053                k=timer2;
   \   00002C CE0000                LDW       X, L:timer2
   \   00002F CF0000                LDW       L:k, X
   1054                //Clear read
   1055              LCD_RW(0);
   \   000032 A602                  LD        A, #0x2
   \   000034 8D000000              CALLF     ??Subroutine50_0
   1056             //set Port D7 as Output
   1057             GPIO_Init(LCD_PORT,DATA7,GPIO_MODE_OUT_PP_HIGH_FAST);
   \                     ??CrossCallReturnLabel_163:
   \   000038 35F00000              MOV       S:?b0, #0xf0
   \   00003C A680                  LD        A, #0x80
   \   00003E AE500A                LDW       X, #0x500a
   \   000041 AC000000              JPF       GPIO_Init
   1058          
   1059          }
   1060          
   1061          

   \                                 In section .far_func.text, align 1, keep-with-next
   1062          void LCD(u8 data)
   1063           {
   \                     LCD:
   \   000000 3B0000                PUSH      S:?b8
   \   000003 B700                  LD        S:?b8, A
   1064             //  static u8 linet=0;
   1065          
   1066          
   1067               if (data =='\n')     //r
   \   000005 A10A                  CP        A, #0xa
   \   000007 265C                  JRNE      L:??CrossCallReturnLabel_137
   1068               {
   1069          
   1070                   switch(line_lcd)
   \   000009 C60000                LD        A, L:line_lcd
   \   00000C 270B                  JREQ      L:??LCD_0
   \   00000E 4A                    DEC       A
   \   00000F 2714                  JREQ      L:??LCD_1
   \   000011 4A                    DEC       A
   \   000012 271D                  JREQ      L:??LCD_2
   \   000014 4A                    DEC       A
   \   000015 2726                  JREQ      L:??LCD_3
   \   000017 202E                  JRA       L:??LCD_4
   1071                   {
   1072                   case 0:
   1073                     LCDInstr(0x80 | 0x00);
   \                     ??LCD_0:
   \   000019 A680                  LD        A, #0x80
   \   00001B 8D000000              CALLF     LCDInstr
   1074                     count=0;
   \   00001F 725F0000              CLR       L:count
   1075                     break;
   \   000023 2022                  JRA       L:??LCD_4
   1076                   case 1:
   1077                     LCDInstr(0x80 | 0x40);
   \                     ??LCD_1:
   \   000025 A6C0                  LD        A, #0xc0
   \   000027 8D000000              CALLF     LCDInstr
   1078                     count=20;
   \   00002B 35140000              MOV       L:count, #0x14
   1079                     break;
   \   00002F 2016                  JRA       L:??LCD_4
   1080                   case 2:
   1081                     LCDInstr(0x80 | 0x14);
   \                     ??LCD_2:
   \   000031 A694                  LD        A, #0x94
   \   000033 8D000000              CALLF     LCDInstr
   1082                     count=40;
   \   000037 35280000              MOV       L:count, #0x28
   1083                     break;
   \   00003B 200A                  JRA       L:??LCD_4
   1084                   case 3:
   1085                     LCDInstr(0x80 | 0x54);
   \                     ??LCD_3:
   \   00003D A6D4                  LD        A, #0xd4
   \   00003F 8D000000              CALLF     LCDInstr
   1086                     count=60;
   \   000043 353C0000              MOV       L:count, #0x3c
   1087                     break;
   1088                   //default:
   1089                    //  LCDInstr(0x80 |0x40);    //Line 1
   1090                    }
   1091                   line_lcd++;
   \                     ??LCD_4:
   \   000047 C60000                LD        A, L:line_lcd
   \   00004A 4C                    INC       A
   \   00004B C70000                LD        L:line_lcd, A
   1092                   if (line_lcd>=5)
   \   00004E A105                  CP        A, #0x5
   \   000050 250F                  JRC       L:??LCD_5
   1093                   {
   1094                    line_lcd=1;   //line >=5
   \   000052 35010000              MOV       L:line_lcd, #0x1
   1095                    LCDInstr(0x01); //Clear LCD
   \   000056 8D000000              CALLF     ?Subroutine45
   1096                    Delay1(2500);
   \                     ??CrossCallReturnLabel_143:
   \   00005A AE09C4                LDW       X, #0x9c4
   \   00005D 8D000000              CALLF     Delay1
   1097                   }
   1098          
   1099                   Delay1(1);
   \                     ??LCD_5:
   \   000061 8D000000              CALLF     ?Subroutine42
   1100          
   1101          
   1102               }
   1103          
   1104          
   1105               if (count==20)
   \                     ??CrossCallReturnLabel_137:
   \   000065 C60000                LD        A, L:count
   \   000068 A114                  CP        A, #0x14
   \   00006A 260A                  JRNE      L:??LCD_6
   1106                {
   1107                  LCDInstr(0x80 | 0x40);
   \   00006C A6C0                  LD        A, #0xc0
   \                     ??LCD_7:
   \   00006E 8D000000              CALLF     LCDInstr
   1108                  Delay1(1);
   \                     ??LCD_8:
   \   000072 5F                    CLRW      X
   \   000073 5C                    INCW      X
   \   000074 2027                  JRA       ??LCD_9
   1109                }
   1110                   else if(count==40)
   \                     ??LCD_6:
   \   000076 A128                  CP        A, #0x28
   \   000078 2604                  JRNE      L:??LCD_10
   1111                  {
   1112                    LCDInstr(0x80 | 0x14);
   \   00007A A694                  LD        A, #0x94
   \   00007C 20F0                  JRA       ??LCD_7
   1113                    Delay1(1);
   1114                  }
   1115                    else if(count==60)
   \                     ??LCD_10:
   \   00007E A13C                  CP        A, #0x3c
   \   000080 260C                  JRNE      L:??LCD_11
   1116                    {
   1117                      LCDInstr(0x80 | 0x54);
   \   000082 A6D4                  LD        A, #0xd4
   \   000084 8D000000              CALLF     LCDInstr
   1118                      count=0;
   \   000088 725F0000              CLR       L:count
   1119                      Delay1(1);
   \   00008C 20E4                  JRA       ??LCD_8
   1120                    }
   1121                      else if(count >80)
   \                     ??LCD_11:
   \   00008E A151                  CP        A, #0x51
   \   000090 250F                  JRC       L:??LCD_12
   1122                        {
   1123                          count=0;
   \   000092 725F0000              CLR       L:count
   1124                          LCDInstr(0x01); //Clear LCD
   \   000096 8D000000              CALLF     ?Subroutine45
   1125                          Delay1(250);
   \                     ??CrossCallReturnLabel_142:
   \   00009A AE00FA                LDW       X, #0xfa
   \                     ??LCD_9:
   \   00009D 8D000000              CALLF     Delay1
   1126                        }
   1127          
   1128          
   1129              /*
   1130                   line++;
   1131                   if (line>3)
   1132                   {
   1133                     line=1;  //Line 0 for Time
   1134                   }
   1135                 switch(line)
   1136                   {
   1137                   case 1 :LCDInstr(0x80 | 0x40);break;  //Line 1
   1138                   case 2 :LCDInstr(0x80 | 0x14);break;  //Line 2
   1139                   case 3 :LCDInstr(0x80 | 0x54);break;  //Line 3
   1140                   default : LCDInstr(0x80 | 0x40); // Line 1
   1141                   }
   1142                   Delay(1);
   1143                   count=0;
   1144                }
   1145          
   1146               */
   1147          
   1148               if (data > 0x1b)   //Display only valid data
   \                     ??LCD_12:
   \   0000A1 B600                  LD        A, S:?b8
   \   0000A3 A11C                  CP        A, #0x1c
   \   0000A5 250F                  JRC       L:??LCD_13
   1149               {
   1150                 LCDData(data);
   \   0000A7 8D000000              CALLF     LCDData
   1151                  Delay1(1);
   \   0000AB 8D000000              CALLF     ?Subroutine42
   1152                 count++;
   \                     ??CrossCallReturnLabel_136:
   \   0000AF C60000                LD        A, L:count
   \   0000B2 4C                    INC       A
   \   0000B3 C70000                LD        L:count, A
   1153               }
   1154           }
   \                     ??LCD_13:
   \   0000B6 320000                POP       S:?b8
   \   0000B9 87                    RETF
   1155          

   \                                 In section .far_func.text, align 1, keep-with-next
   1156          void InitDelayTimer()
   1157          {
   1158             //Timer 2 use for Delay  long Delay is 40ms for lcd
   1159             //Tclock 16/8=2Mhz  /20 10us
   1160                 TIM2_DeInit();
   \                     InitDelayTimer:
   \   000000 8D000000              CALLF     TIM2_DeInit
   1161                 TIM2_TimeBaseInit(TIM2_PRESCALER_2,0X0050);
   \   000004 AE0050                LDW       X, #0x50
   \   000007 A601                  LD        A, #0x1
   \   000009 8D000000              CALLF     TIM2_TimeBaseInit
   1162                 //TIM2_PrescalerConfig(TIM2_PRESCALER_1, TIM2_PSCRELOADMODE_IMMEDIATE);
   1163                 TIM2_ITConfig(TIM2_IT_UPDATE, ENABLE);
   \   00000D 35010000              MOV       S:?b0, #0x1
   \   000011 A601                  LD        A, #0x1
   \   000013 8D000000              CALLF     TIM2_ITConfig
   1164            //Enable TIM2
   1165                 TIM2_Cmd(ENABLE);
   \   000017 A601                  LD        A, #0x1
   \   000019 AC000000              JPF       TIM2_Cmd
   1166          
   1167          }
   1168          

   \                                 In section .far_func.text, align 1, keep-with-next
   1169          bool DS18_Write(u8 data)
   1170          {
   \                     DS18_Write:
   \   000000 8D000000              CALLF     L:?push_w4
   \   000004 B700                  LD        S:?b9, A
   1171            disableInterrupts();
   \   000006 9B                    SIM
   1172            for ( u8 i=0;i<8;i++)
   \   000007 3F00                  CLR       S:?b8
   1173            {
   1174             DS18(0);
   \                     ??DS18_Write_0:
   \   000009 8D000000              CALLF     ?Subroutine9
   1175             Delay_us(1); //Delay1(0); //Start time slot 4,5 us
   1176             if( data & (1<<i)) DS18(1)
   \                     ??CrossCallReturnLabel_27:
   \   00000D 5F                    CLRW      X
   \   00000E 5C                    INCW      X
   \   00000F B600                  LD        A, S:?b8
   \   000011 8D000000              CALLF     L:?sll16_x_x_a
   \   000015 9F                    LD        A, XL
   \   000016 B500                  BCP       A, S:?b9
   \   000018 2704                  JREQ      L:??CrossCallReturnLabel_50
   \   00001A 8D000000              CALLF     ?Subroutine15
   1177               //else DS18(0);
   1178             Delay_us(160);  // 60us end time slot
   \                     ??CrossCallReturnLabel_50:
   \   00001E AE00A0                LDW       X, #0xa0
   \   000021 8D000000              CALLF     Delay_us
   1179             DS18(1);
   \   000025 8D000000              CALLF     ?Subroutine15
   1180             //Delay1(0);
   1181            }
   \                     ??CrossCallReturnLabel_49:
   \   000029 B600                  LD        A, S:?b8
   \   00002B 4C                    INC       A
   \   00002C B700                  LD        S:?b8, A
   \   00002E A108                  CP        A, #0x8
   \   000030 25D7                  JRC       L:??DS18_Write_0
   1182            enableInterrupts();
   \   000032 9A                    RIM
   1183            return TRUE;
   \   000033 A601                  LD        A, #0x1
   \   000035 AC000000              JPF       L:?epilogue_w4
   1184          
   1185          }

   \                                 In section .far_func.text, align 1, keep-with-next
   \                     ?Subroutine15:
   \   000000 A604                  LD        A, #0x4
   \   000002 AE500F                LDW       X, #0x500f
   \   000005 AC000000              JPF       GPIO_WriteHigh

   \                                 In section .far_func.text, align 1, keep-with-next
   \                     ?Subroutine9:
   \   000000 8D000000              CALLF     ?Subroutine44
   \                     ??CrossCallReturnLabel_138:
   \   000004 5F                    CLRW      X
   \   000005 5C                    INCW      X
   \   000006 AC000000              JPF       Delay_us

   \                                 In section .far_func.text, align 1, keep-with-next
   \                     ?Subroutine44:
   \   000000 A604                  LD        A, #0x4
   \   000002 AE500F                LDW       X, #0x500f
   \   000005 AC000000              JPF       GPIO_WriteLow
   1186          
   1187          

   \                                 In section .far_func.text, align 1, keep-with-next
   1188          u8  DS18_Read()
   1189          {
   \                     DS18_Read:
   \   000000 8D000000              CALLF     L:?push_w4
   1190              //Init DS18b20 data pin as Input
   1191          
   1192            u8 data=0;
   \   000004 3F00                  CLR       S:?b9
   1193              disableInterrupts();
   \   000006 9B                    SIM
   1194            for (u8 i=0;i<8;i++)
   \   000007 3F00                  CLR       S:?b8
   1195            {
   1196              DS18(0);
   \                     ??DS18_Read_0:
   \   000009 8D000000              CALLF     ?Subroutine9
   1197              Delay_us(1); //Start time slot 4,5 us
   1198              DS18(1);
   \                     ??CrossCallReturnLabel_26:
   \   00000D 8D000000              CALLF     ?Subroutine15
   1199              Delay_us(35); // Wait for ds18b20 set bit 15us
   \                     ??CrossCallReturnLabel_47:
   \   000011 AE0023                LDW       X, #0x23
   \   000014 8D000000              CALLF     Delay_us
   1200              //Delay1(0);
   1201             data +=((1<<i)*(GPIO_ReadInputPin(GPIOD,ds18_data)&&ds18_data));
   \   000018 8D000000              CALLF     ?Subroutine18
   \                     ??CrossCallReturnLabel_59:
   \   00001C 2706                  JREQ      L:??DS18_Read_1
   \   00001E 35010000              MOV       S:?b0, #0x1
   \   000022 2002                  JRA       L:??DS18_Read_2
   \                     ??DS18_Read_1:
   \   000024 3F00                  CLR       S:?b0
   \                     ??DS18_Read_2:
   \   000026 5F                    CLRW      X
   \   000027 5C                    INCW      X
   \   000028 B600                  LD        A, S:?b8
   \   00002A 8D000000              CALLF     L:?sll16_x_x_a
   \   00002E B600                  LD        A, S:?b0
   \   000030 42                    MUL       X, A
   \   000031 9F                    LD        A, XL
   \   000032 BB00                  ADD       A, S:?b9
   \   000034 B700                  LD        S:?b9, A
   1202              Delay_us(120); // Wait 60 us until end of read slot  45us
   \   000036 AE0078                LDW       X, #0x78
   \   000039 8D000000              CALLF     Delay_us
   1203              //  DS18(1);  // Next bit
   1204             // Delay1(0);
   1205          
   1206            }
   \   00003D B600                  LD        A, S:?b8
   \   00003F 4C                    INC       A
   \   000040 B700                  LD        S:?b8, A
   \   000042 A108                  CP        A, #0x8
   \   000044 25C3                  JRC       L:??DS18_Read_0
   1207              enableInterrupts();
   \   000046 9A                    RIM
   1208              //Init DS18b20 data pin
   1209             // GPIO_Init(GPIOD,ds18_data,GPIO_MODE_OUT_OD_HIZ_FAST);
   1210             return data;
   \   000047 B600                  LD        A, S:?b9
   \   000049 AC000000              JPF       L:?epilogue_w4
   1211          }

   \                                 In section .far_func.text, align 1, keep-with-next
   \                     ?Subroutine18:
   \   000000 A604                  LD        A, #0x4
   \   000002 AE500F                LDW       X, #0x500f
   \   000005 8D000000              CALLF     GPIO_ReadInputPin
   \   000009 A100                  CP        A, #0x0
   \   00000B 87                    RETF
   1212          

   \                                 In section .far_func.text, align 1, keep-with-next
   1213          bool DS18_Reset()
   1214          {
   1215             //Init Reset Pulse
   1216              DS18(0);
   \                     DS18_Reset:
   \   000000 8D000000              CALLF     ?Subroutine44
   1217              Delay1(25);    //25=524us
   \                     ??CrossCallReturnLabel_139:
   \   000004 AE0019                LDW       X, #0x19
   \   000007 8D000000              CALLF     Delay1
   1218              DS18(1);
   \   00000B 8D000000              CALLF     ?Subroutine15
   1219              //Delay1(1);
   1220              timer2=0;
   \                     ??CrossCallReturnLabel_48:
   \   00000F 5F                    CLRW      X
   \   000010 CF0000                LDW       L:timer2, X
   1221              while ((timer2 < 10000) && (GPIO_ReadInputPin(GPIOD, ds18_data)));;   //Wait for ack from DS18B20
   \                     ??DS18_Reset_0:
   \   000013 8D000000              CALLF     ?Subroutine11
   \                     ??CrossCallReturnLabel_30:
   \   000017 2406                  JRNC      L:??DS18_Reset_1
   \   000019 8D000000              CALLF     ?Subroutine18
   \                     ??CrossCallReturnLabel_58:
   \   00001D 26F4                  JRNE      L:??DS18_Reset_0
   1222              if (timer2>=10000) return FALSE;
   \                     ??DS18_Reset_1:
   \   00001F 8D000000              CALLF     ?Subroutine11
   \                     ??CrossCallReturnLabel_31:
   \   000023 2502                  JRC       L:??DS18_Reset_2
   \   000025 4F                    CLR       A
   \   000026 87                    RETF
   1223              // Delay1(10);
   1224              Delay1(20);    //25=524us
   \                     ??DS18_Reset_2:
   \   000027 AE0014                LDW       X, #0x14
   \   00002A 8D000000              CALLF     Delay1
   1225          
   1226              return TRUE;
   \   00002E A601                  LD        A, #0x1
   \   000030 87                    RETF
   1227          }

   \                                 In section .far_func.text, align 1, keep-with-next
   \                     ?Subroutine11:
   \   000000 CE0000                LDW       X, L:timer2
   \   000003 A32710                CPW       X, #0x2710
   \   000006 87                    RETF
   1228          

   \                                 In section .far_func.text, align 1, keep-with-next
   \                     ?Subroutine28:
   \   000000 8D000000              CALLF     DS18_Reset
   \   000004 A100                  CP        A, #0x0
   \   000006 87                    RETF

   \                                 In section .far_func.text, align 1, keep-with-next
   1229          u8 temperature ()
   1230          {
   \                     temperature:
   \   000000 3B0000                PUSH      S:?b8
   1231          
   1232             //Init Reset Pulse
   1233               if(!DS18_Reset()) return FALSE;
   \   000003 8D000000              CALLF     ?Subroutine28
   \                     ??CrossCallReturnLabel_82:
   \   000007 2603                  JRNE      L:??temperature_0
   \                     ??temperature_1:
   \   000009 4F                    CLR       A
   \   00000A 202A                  JRA       L:??temperature_2
   1234             //Skip ROM Command 0xCC
   1235              DS18_Write(0xCC);
   \                     ??temperature_0:
   \   00000C 8D000000              CALLF     ?Subroutine25
   1236             //Function command  CONVERT T [44h]
   1237              DS18_Write(0x44);
   1238              //Wait util end convert
   1239              timer2=0;
   1240               while ((timer2 < 10000) && !(DS18_Read()));;
   \                     ??CrossCallReturnLabel_76:
   \   000010 8D000000              CALLF     ?Subroutine11
   \                     ??CrossCallReturnLabel_33:
   \   000014 2408                  JRNC      L:??temperature_3
   \   000016 8D000000              CALLF     DS18_Read
   \   00001A A100                  CP        A, #0x0
   \   00001C 27F2                  JREQ      L:??CrossCallReturnLabel_76
   1241                if (timer2>10000) return FALSE;
   \                     ??temperature_3:
   \   00001E CE0000                LDW       X, L:timer2
   \   000021 A32711                CPW       X, #0x2711
   \   000024 24E3                  JRNC      L:??temperature_1
   1242               //u8 temp8=timer2;
   1243              //Init Reset Pulse
   1244              if(!DS18_Reset()) return FALSE;
   \   000026 8D000000              CALLF     ?Subroutine28
   \                     ??CrossCallReturnLabel_83:
   \   00002A 27DD                  JREQ      L:??temperature_1
   1245              // Skip ROM Command 0xCC
   1246              DS18_Write(0xCC);
   \   00002C 8D000000              CALLF     ?Subroutine24
   1247              //Function command READ SCRATCHPAD [BEh]
   1248              DS18_Write(0xBE);
   1249               u8 temp1=DS18_Read();
   1250               u8 temp2=DS18_Read();
   1251              DS18_Reset();
   \                     ??CrossCallReturnLabel_73:
   \   000030 8D000000              CALLF     DS18_Reset
   1252              return temp1;
   \   000034 B600                  LD        A, S:?b8
   \                     ??temperature_2:
   \   000036 320000                POP       S:?b8
   \   000039 87                    RETF
   1253          }

   \                                 In section .far_func.text, align 1, keep-with-next
   \                     ?Subroutine25:
   \   000000 A6CC                  LD        A, #0xcc
   \   000002 8D000000              CALLF     DS18_Write
   \   000006 A644                  LD        A, #0x44
   \   000008 8D000000              CALLF     DS18_Write
   \   00000C 5F                    CLRW      X
   \   00000D CF0000                LDW       L:timer2, X
   \   000010 87                    RETF

   \                                 In section .far_func.text, align 1, keep-with-next
   \                     ?Subroutine24:
   \   000000 A6CC                  LD        A, #0xcc
   \   000002 8D000000              CALLF     DS18_Write
   \   000006 A6BE                  LD        A, #0xbe
   \   000008 8D000000              CALLF     DS18_Write
   \   00000C 8D000000              CALLF     DS18_Read
   \   000010 B700                  LD        S:?b8, A
   \   000012 AC000000              JPF       DS18_Read
   1254          

   \                                 In section .far_func.text, align 1, keep-with-next
   1255          bool Read_DS18()
   1256          {
   \                     Read_DS18:
   \   000000 3B0000                PUSH      S:?b8
   1257          
   1258             //Init Reset Pulse
   1259               if(!DS18_Reset()) return FALSE;
   \   000003 8D000000              CALLF     ?Subroutine28
   \                     ??CrossCallReturnLabel_80:
   \   000007 2603                  JRNE      L:??Read_DS18_0
   \                     ??Read_DS18_1:
   \   000009 4F                    CLR       A
   \   00000A 2065                  JRA       L:??Read_DS18_2
   1260             //Skip ROM Command 0xCC
   1261              DS18_Write(0xCC);
   \                     ??Read_DS18_0:
   \   00000C 8D000000              CALLF     ?Subroutine25
   1262             //Function command  CONVERT T [44h]
   1263              DS18_Write(0x44);
   1264              //Wait util end convert
   1265              timer2=0;
   1266               while ((timer2 < 10000) && !(DS18_Read()));;
   \                     ??CrossCallReturnLabel_75:
   \   000010 8D000000              CALLF     ?Subroutine11
   \                     ??CrossCallReturnLabel_32:
   \   000014 2408                  JRNC      L:??Read_DS18_3
   \   000016 8D000000              CALLF     DS18_Read
   \   00001A A100                  CP        A, #0x0
   \   00001C 27F2                  JREQ      L:??CrossCallReturnLabel_75
   1267                if (timer2>10000) return FALSE;
   \                     ??Read_DS18_3:
   \   00001E CE0000                LDW       X, L:timer2
   \   000021 A32711                CPW       X, #0x2711
   \   000024 24E3                  JRNC      L:??Read_DS18_1
   1268               //u8 temp8=timer2;
   1269              //Init Reset Pulse
   1270              if(!DS18_Reset()) return FALSE;
   \   000026 8D000000              CALLF     ?Subroutine28
   \                     ??CrossCallReturnLabel_81:
   \   00002A 27DD                  JREQ      L:??Read_DS18_1
   1271              // Skip ROM Command 0xCC
   1272              DS18_Write(0xCC);
   \   00002C 8D000000              CALLF     ?Subroutine24
   1273              //Function command READ SCRATCHPAD [BEh]
   1274              DS18_Write(0xBE);
   1275               u8 temp1=DS18_Read();
   1276               u8 temp2=DS18_Read();
   1277               u8 temp3=DS18_Read();
   \                     ??CrossCallReturnLabel_74:
   \   000030 8D000000              CALLF     ?Subroutine30
   1278               u8 temp4=DS18_Read();
   1279               u8 temp5=DS18_Read();
   1280               u8 temp6=DS18_Read();
   \                     ??CrossCallReturnLabel_89:
   \   000034 8D000000              CALLF     ?Subroutine30
   1281               u8 temp7=DS18_Read();
   1282               u8 temp8=DS18_Read();
   1283               u8 temp9=DS18_Read();
   \                     ??CrossCallReturnLabel_88:
   \   000038 8D000000              CALLF     DS18_Read
   1284          
   1285               DS18_Reset();
   \   00003C 8D000000              CALLF     DS18_Reset
   1286          
   1287                 line_lcd=0;
   \   000040 725F0000              CLR       L:line_lcd
   1288                 u8 result1=temp1/2;
   \   000044 B600                  LD        A, S:?b8
   \   000046 44                    SRL       A
   \   000047 B700                  LD        S:?b1, A
   1289                 u8 result2=0;
   \   000049 3F00                  CLR       S:?b0
   1290                 if(temp1%2!=0) result2=5;
   \   00004B B600                  LD        A, S:?b8
   \   00004D A501                  BCP       A, #0x1
   \   00004F 2704                  JREQ      L:??Read_DS18_4
   \   000051 35050000              MOV       S:?b0, #0x5
   1291          
   1292                printf("\n%d.%d",result1,result2);
   \                     ??Read_DS18_4:
   \   000055 5F                    CLRW      X
   \   000056 41                    EXG       A, XL
   \   000057 B600                  LD        A, S:?b0
   \   000059 41                    EXG       A, XL
   \   00005A 89                    PUSHW     X
   \   00005B 41                    EXG       A, XL
   \   00005C B600                  LD        A, S:?b1
   \   00005E 41                    EXG       A, XL
   \   00005F 89                    PUSHW     X
   \   000060 AE0000                LDW       X, #`?<Constant "\\n%d.%d">`
   \   000063 8D000000              CALLF     printf
   \   000067 5B04                  ADD       SP, #0x4
   1293               // line_lcd=1;
   1294               // printf("\n%02x%02x%02x",temp3,temp4,temp9);
   1295                  while (!key_ok_on());
   \                     ??Read_DS18_5:
   \   000069 8D000000              CALLF     ?Subroutine31
   \                     ??CrossCallReturnLabel_90:
   \   00006D 27FA                  JREQ      L:??Read_DS18_5
   1296          
   1297               //u8 temp3=DS18_Read();
   1298          
   1299              return TRUE;
   \   00006F A601                  LD        A, #0x1
   \                     ??Read_DS18_2:
   \   000071 320000                POP       S:?b8
   \   000074 87                    RETF
   1300          }

   \                                 In section .far_func.text, align 1, keep-with-next
   \                     ?Subroutine30:
   \   000000 8D000000              CALLF     DS18_Read
   \   000004 8D000000              CALLF     DS18_Read
   \   000008 AC000000              JPF       DS18_Read
   1301          

   \                                 In section .far_func.text, align 1, keep-with-next
   1302          bool DS18Set ()
   1303          {
   1304               //Init Reset Pulse
   1305              if(!DS18_Reset()) return FALSE;
   \                     DS18Set:
   \   000000 8D000000              CALLF     ?Subroutine28
   \                     ??CrossCallReturnLabel_79:
   \   000004 2602                  JRNE      L:??DS18Set_0
   \   000006 4F                    CLR       A
   \   000007 87                    RETF
   1306             //Skip ROM Command 0xCC
   1307              DS18_Write(0xCC);
   \                     ??DS18Set_0:
   \   000008 A6CC                  LD        A, #0xcc
   \   00000A 8D000000              CALLF     DS18_Write
   1308             //Function command  WRITE SCRATCHPAD 0x4E
   1309              DS18_Write(0x4E);
   \   00000E A64E                  LD        A, #0x4e
   \   000010 8D000000              CALLF     DS18_Write
   1310             //Write 3 bytes last is config reg
   1311              DS18_Write(125);
   \   000014 A67D                  LD        A, #0x7d
   \   000016 8D000000              CALLF     DS18_Write
   1312              DS18_Write(0xDC); //-55
   \   00001A A6DC                  LD        A, #0xdc
   \   00001C 8D000000              CALLF     DS18_Write
   1313              DS18_Write(0x1F);
   \   000020 A61F                  LD        A, #0x1f
   \   000022 8D000000              CALLF     DS18_Write
   1314          
   1315          
   1316          
   1317          
   1318            return TRUE;
   \   000026 A601                  LD        A, #0x1
   \   000028 87                    RETF
   1319          }
   1320          
   1321          
   1322          
   1323          
   1324           /*
   1325          u16 Average()
   1326          {
   1327           //Find average in measure
   1328            u8 i=0;
   1329            u16 Summa=0;
   1330            do
   1331            {
   1332             Summa+=measure[i++];
   1333            } while ( measure[i]!=0);
   1334             if(i!=0) Summa=Summa/i;
   1335             return Summa;
   1336          }
   1337             */
   1338          

   \                                 In section .far_func.text, align 1, keep-with-next
   1339          PUTCHAR_PROTOTYPE
   1340          {
   \                     fputc:
   \   000000 8D000000              CALLF     L:?push_w4
   \   000004 BF00                  LDW       S:?w4, X
   1341            /* Place your implementation of fputc here */
   1342            /* e.g. write a character to the USART */
   1343                //USART_SendData(USART3, (u8) ch);
   1344               LCD(ch);
   \   000006 B600                  LD        A, S:?b9
   \   000008 8D000000              CALLF     LCD
   1345             /* Loop until the end of transmission */
   1346              //while(USART_GetFlagStatus(USART3, USART_FLAG_TC) == RESET);;
   1347            return ch;
   \   00000C BE00                  LDW       X, S:?w4
   \   00000E AC000000              JPF       L:?epilogue_w4
   1348          }
   1349          
   1350          

   \                                 In section .far_func.text, align 1, keep-with-next
   1351          void Delay1(u16 Delay)
   1352          {
   \                     Delay1:
   \   000000 BF00                  LDW       S:?w0, X
   1353              //1 = 40us,2=60us,3=80us,10=200us, 15=320us,
   1354            timer1=0;
   \   000002 5F                    CLRW      X
   \   000003 CF0000                LDW       L:timer1, X
   1355            while ( timer1 < Delay); ;
   \                     ??Delay1_0:
   \   000006 CE0000                LDW       X, L:timer1
   \   000009 B300                  CPW       X, S:?w0
   \   00000B 25F9                  JRC       L:??Delay1_0
   1356          }
   \   00000D 87                    RETF
   1357          

   \                                 In section .far_func.text, align 1, keep-with-next
   1358           void Delay2(u16 Delay)
   1359          {
   \                     Delay2:
   \   000000 BF00                  LDW       S:?w0, X
   1360            timer2=0;
   \   000002 5F                    CLRW      X
   \   000003 CF0000                LDW       L:timer2, X
   1361            while ( timer2 < Delay); ;
   \                     ??Delay2_0:
   \   000006 CE0000                LDW       X, L:timer2
   \   000009 B300                  CPW       X, S:?w0
   \   00000B 25F9                  JRC       L:??Delay2_0
   1362          }
   \   00000D 87                    RETF
   1363          
   1364          

   \                                 In section .far_func.text, align 1, keep-with-next
   1365          void Delay_us (u16 time) //1:3.2us,100:39us,200:77us,35:15.2us,120:45us,160:60us
   1366          {
   1367            //disableInterrupts();
   1368            do
   1369              {
   1370                time--;
   \                     Delay_us:
   \                     ??Delay_us_0:
   \   000000 5A                    DECW      X
   1371                nop();
   \   000001 9D                    NOP
   1372              }
   1373              while (time);
   \   000002 5D                    TNZW      X
   \   000003 26FB                  JRNE      L:??Delay_us_0
   1374            //enableInterrupts();
   1375          }
   \   000005 87                    RETF
   1376          
   1377          
   1378          
   1379          /*
   1380          void Delay12 (u16 Delay)
   1381          {
   1382            timer2=0;
   1383            while ( timer2 < Delay); ;
   1384          }
   1385          */
   1386          
   1387          
   1388          #ifdef USE_FULL_ASSERT
   1389          
   1390          /**
   1391            * @brief  Reports the name of the source file and the source line number
   1392            *   where the assert_param error has occurred.
   1393            * @param file: pointer to the source file name
   1394            * @param line: assert_param error line source number
   1395            * @retval : None
   1396            */

   \                                 In section .far_func.text, align 1
   1397          void assert_failed(u8* file, u32 line)
   1398          {
   1399            /* User can add his own implementation to report the file name and line number,
   1400               ex: printf("Wrong parameters value: file %s on line %d\r\n", file, line) */
   1401          
   1402            /* Infinite loop */
   1403            while (1)
   \                     assert_failed:
   \                     ??assert_failed_0:
   \   000000 20FE                  JRA       L:??assert_failed_0
   1404            {
   1405          
   1406            }
   1407          }

   \                                 In section .near.rodata, align 1
   \                     `?<Constant "\\nDS_Err_I">`:
   \   000000 0A44535F4572          DC8 "\012DS_Err_I"

   \                                 In section .near.rodata, align 1
   \                     `?<Constant "\\n E2:%d">`:
   \   000000 0A2045323A25          DC8 "\012 E2:%d"

   \                                 In section .near.rodata, align 1
   \                     `?<Constant "\\n E:%d">`:
   \   000000 0A20453A2564          DC8 "\012 E:%d"

   \                                 In section .near.rodata, align 1
   \                     `?<Constant "\\nSetClock">`:
   \   000000 0A536574436C          DC8 "\012SetClock"

   \                                 In section .near.rodata, align 1
   \                     `?<Constant "\\n%02d:%02d:%02d">`:
   \   000000 0A253032643A          DC8 "\012%02d:%02d:%02d"

   \                                 In section .near.rodata, align 1
   \                     `?<Constant "\\n1 %d.%d   ">`:
   \   000000 0A312025642E          DC8 "\0121 %d.%d   "

   \                                 In section .near.rodata, align 1
   \                     `?<Constant "\\n0 %d.%d   ">`:
   \   000000 0A302025642E          DC8 "\0120 %d.%d   "

   \                                 In section .near.rodata, align 1
   \                     `?<Constant "\\nYears:">`:
   \   000000 0A5965617273          DC8 "\012Years:"

   \                                 In section .near.rodata, align 1
   \                     `?<Constant "\\nMounts:">`:
   \   000000 0A4D6F756E74          DC8 "\012Mounts:"

   \                                 In section .near.rodata, align 1
   \                     `?<Constant "\\nDate:">`:
   \   000000 0A446174653A          DC8 "\012Date:"

   \                                 In section .near.rodata, align 1
   \                     `?<Constant "\\nDays:">`:
   \   000000 0A446179733A          DC8 "\012Days:"

   \                                 In section .near.rodata, align 1
   \                     `?<Constant "\\n%02d">`:
   \   000000 0A2530326400          DC8 "\012%02d"

   \                                 In section .near.rodata, align 1
   \                     `?<Constant "\\nHours:">`:
   \   000000 0A486F757273          DC8 "\012Hours:"

   \                                 In section .near.rodata, align 1
   \                     `?<Constant "\\nMinutes:">`:
   \   000000 0A4D696E7574          DC8 "\012Minutes:"

   \                                 In section .near.rodata, align 1
   \                     `?<Constant "\\nSeconds:">`:
   \   000000 0A5365636F6E          DC8 "\012Seconds:"

   \                                 In section .near.rodata, align 1
   \                     `?<Constant "\\nH On:">`:
   \   000000 0A48204F6E3A          DC8 "\012H On:"

   \                                 In section .near.rodata, align 1
   \                     `?<Constant "\\n%02d:%02d">`:
   \   000000 0A253032643A          DC8 "\012%02d:%02d"

   \                                 In section .near.rodata, align 1
   \                     `?<Constant "\\nMin On:">`:
   \   000000 0A4D696E204F          DC8 "\012Min On:"

   \                                 In section .near.rodata, align 1
   \                     `?<Constant "\\nH Off:">`:
   \   000000 0A48204F6666          DC8 "\012H Off:"

   \                                 In section .near.rodata, align 1
   \                     `?<Constant "\\nMin Off:">`:
   \   000000 0A4D696E204F          DC8 "\012Min Off:"

   \                                 In section .near.rodata, align 1
   \                     `?<Constant "\\nLong :">`:
   \   000000 0A4C6F6E6720          DC8 "\012Long :"

   \                                 In section .near.rodata, align 1
   \                     `?<Constant "\\n%d">`:
   \   000000 0A256400              DC8 "\012%d"

   \                                 In section .near.rodata, align 1
   \                     `?<Constant "\\n%d.%d">`:
   \   000000 0A25642E2564          DC8 "\012%d.%d"
   1408          #endif
   1409          
   1410          /******************* (C) COPYRIGHT 2011 STMicroelectronics *****END OF FILE****/

   Section sizes:

     Function/Label                 Bytes
     --------------                 -----
     timer1                            2
     timer2                            2
     timeout                           1
     adcdata                           2
     rx_data                           1
     data                             20
     measure                          40
     line_lcd                          1
     count                             1
     seconds                           1
     minutes                           1
     hours                             1
     days                              1
     date                              1
     mounts                            1
     years                             1
     error                             1
     temp_flag                         1
     temp2                             1
     daily_hour_on                     1
     daily_minute_on                   1
     daily_hour_off                    1
     daily_minute_off                  1
     daily_long_on                     2
     time_on                           2
     time_off                          2
     l                                 1
     result                            4
     k                                 2
     ?Subroutine31                     7
     main                            382
     ?Subroutine41                     2
     ??Subroutine53_0                 12
     ?Subroutine21                    16
     ?Subroutine16                    10
     ?Subroutine1                     35
     ?Subroutine48                    10
     InitI2C                          38
     I2C_Start                        38
     ?Subroutine40                     7
     I2C_WA                           38
     I2C_RA                           40
     I2C_WD                           36
     I2C_RD                           35
     ?Subroutine39                     1
     ??Subroutine52_0                  7
     ?Subroutine38                     9
     ?Subroutine37                    11
     ReadDS1307                      103
     ?Subroutine27                    11
     ?Subroutine23                     5
     ?Subroutine46                    10
     ?Subroutine22                    13
     ?Subroutine20                     8
     Check_DS1307                     64
     Set_DS1307                      108
     ?Subroutine36                    11
     convert_tobcd                    23
     bcd2hex                          23
     ?Subroutine45                     6
     Set_Clock                       395
     ?Subroutine26                     6
     ??Subroutine51_0                  5
     ?Subroutine17                    10
     ?Subroutine12                    16
     adj                              77
     key_ok_on                        41
     ?Subroutine47                     7
     key_plus_on                      37
     ?Subroutine29                     7
     ?Subroutine8                      7
     key_minus_on                     37
     key_ok_plus                      40
     ?Subroutine13                    26
     Set_Delay_Allarm                342
     ?Subroutine35                    15
     ?Subroutine10                    15
     ?Subroutine4                      9
     Read_Allarm                      82
     ?Subroutine3                      9
     EEPROM_INIT                      15
     GpioConfiguration               104
     ?Subroutine33                     9
     ?Subroutine32                     9
     InitClk                          56
     ?Subroutine34                     9
     InitAdc                          45
     SendChar                         15
     LCDDataOut                       87
     ?Subroutine5                      7
     ??Subroutine50_0                  5
     ?Subroutine43                     7
     ?Subroutine7                      2
     InitLcd                          92
     ?Subroutine14                    17
     ?Subroutine6                     11
     ?Subroutine0                     13
     ??Subroutine49_0                 10
     ?Subroutine19                    10
     LCDInstr                         11
     LCDData                          11
     LCDInstrNibble                   15
     PulseEnable                      16
     ?Subroutine2                     24
     ?Subroutine42                     6
     LCD_Busy                         69
     LCD                             186
     InitDelayTimer                   29
     DS18_Write                       57
     ?Subroutine15                     9
     ?Subroutine9                     10
     ?Subroutine44                     9
     DS18_Read                        77
     ?Subroutine18                    12
     DS18_Reset                       49
     ?Subroutine11                     7
     ?Subroutine28                     7
     temperature                      58
     ?Subroutine25                    17
     ?Subroutine24                    22
     Read_DS18                       117
     ?Subroutine30                    12
     DS18Set                          41
     fputc                            18
     Delay1                           14
     Delay2                           14
     Delay_us                          6
     assert_failed                     2
     ?<Constant "\nDS_Err_I">         10
     ?<Constant "\n E2:%d">            8
     ?<Constant "\n E:%d">             7
     ?<Constant "\nSetClock">         10
     ?<Constant "\n%02d:%02d:%02d">   16
     ?<Constant "\n1 %d.%d   ">       12
     ?<Constant "\n0 %d.%d   ">       12
     ?<Constant "\nYears:">            8
     ?<Constant "\nMounts:">           9
     ?<Constant "\nDate:">             7
     ?<Constant "\nDays:">             7
     ?<Constant "\n%02d">              6
     ?<Constant "\nHours:">            8
     ?<Constant "\nMinutes:">         10
     ?<Constant "\nSeconds:">         10
     ?<Constant "\nH On:">             7
     ?<Constant "\n%02d:%02d">        11
     ?<Constant "\nMin On:">           9
     ?<Constant "\nH Off:">            8
     ?<Constant "\nMin Off:">         10
     ?<Constant "\nLong :">            8
     ?<Constant "\n%d">                4
     ?<Constant "\n%d.%d">             7

 
 3 750 bytes in section .far_func.text
    94 bytes in section .near.bss
     3 bytes in section .near.data
   204 bytes in section .near.rodata
 
 3 750 bytes of CODE  memory
   204 bytes of CONST memory
    97 bytes of DATA  memory

Errors: none
Warnings: none
