###############################################################################
#                                                                             #
# IAR C/C++ Compiler V1.30.1.50036 for STM8             25/Jul/2013  22:31:51 #
# Copyright 2010-2011 IAR Systems AB.                                         #
#                                                                             #
#    Source file  =  C:\Documents and Settings\Administrator\Desktop\stm8s105 #
#                    k-controller\Project\STM8S_StdPeriph_Template\main.c     #
#    Command line =  "C:\Documents and Settings\Administrator\Desktop\stm8s10 #
#                    5k-controller\Project\STM8S_StdPeriph_Template\main.c"   #
#                    -e -Ohz --debug --code_model medium --data_model medium  #
#                    -o "C:\Documents and Settings\Administrator\Desktop\stm8 #
#                    s105k-controller\Project\STM8S_StdPeriph_Template\EWSTM8 #
#                    \STM8S105\Obj\" --dlib_config "C:\Program Files\IAR      #
#                    Systems\Embedded Workbench 6.0\stm8\LIB\dlstm8mmf.h" -D  #
#                    STM8S105 -lC "C:\Documents and                           #
#                    Settings\Administrator\Desktop\stm8s105k-controller\Proj #
#                    ect\STM8S_StdPeriph_Template\EWSTM8\STM8S105\List\" -lA  #
#                    "C:\Documents and Settings\Administrator\Desktop\stm8s10 #
#                    5k-controller\Project\STM8S_StdPeriph_Template\EWSTM8\ST #
#                    M8S105\List\" -I "C:\Documents and                       #
#                    Settings\Administrator\Desktop\stm8s105k-controller\Proj #
#                    ect\STM8S_StdPeriph_Template\EWSTM8\..\" -I              #
#                    "C:\Documents and Settings\Administrator\Desktop\stm8s10 #
#                    5k-controller\Project\STM8S_StdPeriph_Template\EWSTM8\.. #
#                    \..\..\Libraries\STM8S_StdPeriph_Driver\inc\" --vregs 16 #
#    List file    =  C:\Documents and Settings\Administrator\Desktop\stm8s105 #
#                    k-controller\Project\STM8S_StdPeriph_Template\EWSTM8\STM #
#                    8S105\List\main.lst                                      #
#    Object file  =  C:\Documents and Settings\Administrator\Desktop\stm8s105 #
#                    k-controller\Project\STM8S_StdPeriph_Template\EWSTM8\STM #
#                    8S105\Obj\main.o                                         #
#                                                                             #
#                                                                             #
###############################################################################

C:\Documents and Settings\Administrator\Desktop\stm8s105k-controller\Project\STM8S_StdPeriph_Template\main.c
      1          /**
      2             LCD PINOUT
      3             PINS  1    2    3   4   5   6   7   8   9   10   11   12   13   14    15    16
      4                  VSS  VDD  VO  RS  R/W  E  DB0 DB1 DB2  DB3  DB4  DB5 DB6  DB7  LED_A LED_K
      5                  GND
      6                                20   22  24                   18    19   21   23
      7                                3    5   7                    1     2    4    6
      8             */
      9          
     10          /** New Device STM8S105K4  */
     11          /* Controller LCD DS1307,DS18B20 */
     12          
     13          /* Daily Allarm ON OFF
     14                                  ON
     15                                  |
     16            First bit set ON      100H:HHHH MMMM:MMMM
     17                                     OFF
     18                                      |
     19            Second bit set OFF       010H:HHHH MMMM:MMMM
     20          
     21          
     22            Daily Allarm ON TimeLong(in minute for 24h 1440 minute 0x5A0)
     23          
     24          
     25          
     26          
     27          */
     28          
     29          
     30          
     31          /* Includes ------------------------------------------------------------------*/
     32          #include "stm8s.h"
     33          #include "stdio.h"
     34          #include "string.h"
     35          /* Private defines -----------------------------------------------------------*/
     36          
     37          /* ================ LCD ======================= */
     38          
     39          #define LCD_GPIO_PIN (GPIO_PIN_1|GPIO_PIN_2|GPIO_PIN_3|GPIO_PIN_4|GPIO_PIN_5|GPIO_PIN_6|GPIO_PIN_7)
     40          #define LCD_PORT (GPIOC)
     41          #define LCD_GPIO_COTROL_PIN (GPIO_PIN_3 | GPIO_PIN_1 |GPIO_PIN_2)
     42          #define DATA4 GPIO_PIN_4
     43          #define DATA5 GPIO_PIN_5
     44          #define DATA6 GPIO_PIN_6
     45          #define DATA7 GPIO_PIN_7
     46          #define EN  GPIO_PIN_3
     47          #define RW  GPIO_PIN_1
     48          #define RS  GPIO_PIN_2
     49          #define LCD_EN(x)  x ? GPIO_WriteHigh(LCD_PORT, EN): GPIO_WriteLow(LCD_PORT,EN); //GPIOB->ODR =(GPIOB->ODR &~PIN_EN)|(x ? PIN_EN :0);
     50          #define LCD_RW(x)  x ? GPIO_WriteHigh(LCD_PORT, RW): GPIO_WriteLow(LCD_PORT,RW);
     51          #define LCD_RS(x)  x ? GPIO_WriteHigh(LCD_PORT, RS): GPIO_WriteLow(LCD_PORT,RS);
     52          
     53          #define key_ok    GPIO_PIN_4
     54          #define key_plus  GPIO_PIN_1
     55          #define key_minus GPIO_PIN_2
     56          
     57          #define ds18_data GPIO_PIN_2
     58          #define DS18(x)   x ? GPIO_WriteHigh(GPIOD,ds18_data):GPIO_WriteLow(GPIOD,ds18_data);
     59          
     60          #ifdef __GNUC__
     61            /* With GCC/RAISONANCE, small printf (option LD Linker->Libraries->Small printf
     62               set to 'Yes') calls __io_putchar() */
     63            #define PUTCHAR_PROTOTYPE int __io_putchar(int ch)
     64          #else
     65            #define PUTCHAR_PROTOTYPE int fputc(int ch, FILE *f)
     66          #endif /* __GNUC__ */
     67          
     68          
     69          
     70          
     71          #define SpecialSymbol 0x1b //Esc to start message
     72          #define data_size 20
     73          #define key_time 8000
     74          #define key_time_ok 15000
     75          #define DS_Control  0x10  // Out 1s
     76          #define EEPROM_ADDR 0x4000
     77          
     78          
     79          
     80          /* Private variables ---------------------------------------------------------*/

   \                                 In section .near.bss, align 1
     81          volatile u16 timer1;
   \                     timer1:
   \   000000                       DS8 2

   \                                 In section .near.bss, align 1
     82          volatile u16 timer2;
   \                     timer2:
   \   000000                       DS8 2

   \                                 In section .near.bss, align 1
     83          volatile u8 timeout;
   \                     timeout:
   \   000000                       DS8 1

   \                                 In section .near.bss, align 1
     84          volatile u16 adcdata;
   \                     adcdata:
   \   000000                       DS8 2

   \                                 In section .near.bss, align 1
     85          volatile u8 rx_data;
   \                     rx_data:
   \   000000                       DS8 1

   \                                 In section .near.bss, align 1
     86          char data[data_size];
   \                     data:
   \   000000                       DS8 20

   \                                 In section .near.bss, align 1
     87          u16  measure[data_size];
   \                     measure:
   \   000000                       DS8 40

   \                                 In section .near.bss, align 1
     88          u8 line_lcd;
   \                     line_lcd:
   \   000000                       DS8 1

   \                                 In section .near.bss, align 1
     89          u8 count;
   \                     count:
   \   000000                       DS8 1

   \                                 In section .near.bss, align 1
     90          u8 seconds;
   \                     seconds:
   \   000000                       DS8 1

   \                                 In section .near.bss, align 1
     91          u8 minutes;
   \                     minutes:
   \   000000                       DS8 1

   \                                 In section .near.bss, align 1
     92          u8 hours;
   \                     hours:
   \   000000                       DS8 1

   \                                 In section .near.data, align 1
     93          u8 days=1;
   \                     days:
   \   000000 01                    DC8 1

   \                                 In section .near.data, align 1
     94          u8 date=1;
   \                     `date`:
   \   000000 01                    DC8 1

   \                                 In section .near.data, align 1
     95          u8 mounts=1;
   \                     mounts:
   \   000000 01                    DC8 1

   \                                 In section .near.bss, align 1
     96          u8 years;
   \                     years:
   \   000000                       DS8 1

   \                                 In section .near.bss, align 1
     97          u8 error;
   \                     error:
   \   000000                       DS8 1

   \                                 In section .near.bss, align 1
     98          u8 temp_flag;
   \                     temp_flag:
   \   000000                       DS8 1

   \                                 In section .near.bss, align 1
     99          u8 temp2;
   \                     temp2:
   \   000000                       DS8 1

   \                                 In section .near.bss, align 1
    100          u8 daily_hour_on;
   \                     daily_hour_on:
   \   000000                       DS8 1

   \                                 In section .near.bss, align 1
    101          u8 daily_minute_on;
   \                     daily_minute_on:
   \   000000                       DS8 1

   \                                 In section .near.bss, align 1
    102          u8 daily_hour_off;
   \                     daily_hour_off:
   \   000000                       DS8 1

   \                                 In section .near.bss, align 1
    103          u8 daily_minute_off;
   \                     daily_minute_off:
   \   000000                       DS8 1

   \                                 In section .near.bss, align 1
    104          u16 daily_long_on;
   \                     daily_long_on:
   \   000000                       DS8 2

   \                                 In section .near.bss, align 1
    105          u16 time_on;
   \                     time_on:
   \   000000                       DS8 2

   \                                 In section .near.bss, align 1
    106          u16 time_off;
   \                     time_off:
   \   000000                       DS8 2
    107          //u8 index=0;

   \                                 In section .near.bss, align 1
    108          float  result;
   \                     result:
   \   000000                       DS8 4

   \                                 In section .near.bss, align 1
    109          int volatile k=0;
   \                     k:
   \   000000                       DS8 2
    110          
    111          
    112          
    113          
    114          
    115          
    116          
    117          
    118          /* Private function prototypes -----------------------------------------------*/
    119          void InitHardware();
    120          void GpioConfiguration();
    121          void InitClk();
    122          void InitAdc();
    123          void InitI2C();
    124          void EEPROM_INIT();
    125          bool ReadDS1307();
    126          //void InitUart();
    127          void InitLcd();
    128          void InitDelayTimer();
    129          void Delay1( u16 Delay);
    130          void Delay2( u16 Delay);
    131          void LCDInstrNibble (u8 Instr);
    132          void LCDInstr(u8 Instr);
    133          void LCDDataOut(u8 data);
    134          void LCD_Busy();
    135          void PulseEnable();
    136          //void SendData();
    137          void SendChar(u8 Char);
    138          //void Send_Hello();
    139          bool Set_Clock();
    140          bool key_ok_on();
    141          bool key_plus_on();
    142          bool key_minus_on();
    143          bool key_ok_plus();
    144          bool Init_DS1307(void);
    145          bool Check_DS1307(void);
    146          bool I2C_Start(void);
    147          bool I2C_WA(u8 address);
    148          bool I2C_WD(u8 data);
    149          bool I2C_RA(u8 address);
    150          bool Set_DS1307();
    151          bool Set_Delay_Allarm();
    152          bool Read_Allarm();
    153          bool Read_DS18();
    154          bool DS18_Write( u8 data);
    155          bool DS18_Reset();
    156          u16 DS18_Read();
    157          u8 convert_tobcd(u8 data);
    158          u8 I2C_RD(void);
    159          u8 adj(u8 min,u8 max,u8 now);
    160          u8 bcd2hex(u8 bcd);
    161          
    162          u16  Average();
    163          
    164          
    165          /* Private functions ---------------------------------------------------------*/
    166          

   \                                 In section .far_func.text, align 1, keep-with-next
   \                     ??Subroutine46_0:
   \   000000 AE500F                LDW       X, #0x500f
   \   000003 AC000000              JPF       GPIO_WriteLow

   \                                 In section .far_func.text, align 1, keep-with-next
   \                     ?Subroutine27:
   \   000000 8D000000              CALLF     key_ok_on
   \   000004 A100                  CP        A, #0x0
   \   000006 87                    RETF

   \                                 In section .far_func.text, align 1, keep-with-next
    167          void main(void)
    168          {
    169              /*High speed internal clock prescaler: 1*/
    170              //CLK_HSIPrescalerConfig(CLK_PRESCALER_HSIDIV1);
    171          
    172               InitClk();
   \                     main:
   \   000000 8D000000              CALLF     InitClk
    173              InitDelayTimer();
   \   000004 8D000000              CALLF     InitDelayTimer
    174              GpioConfiguration();
   \   000008 8D000000              CALLF     GpioConfiguration
    175              //InitUart();
    176              enableInterrupts();
   \   00000C 9A                    RIM
    177              GPIO_WriteLow(GPIOD,GPIO_PIN_7); //R/W Line Read Mode
   \   00000D A680                  LD        A, #0x80
   \   00000F 8D000000              CALLF     ??Subroutine46_0
    178              InitLcd();
   \                     ??CrossCallReturnLabel_135:
   \   000013 8D000000              CALLF     InitLcd
    179              InitAdc();
   \   000017 8D000000              CALLF     InitAdc
    180              InitI2C();
   \   00001B 8D000000              CALLF     InitI2C
    181              line_lcd=0;
   \   00001F 725F0000              CLR       L:line_lcd
    182              if (!Read_DS18())
   \   000023 8D000000              CALLF     Read_DS18
   \   000027 A100                  CP        A, #0x0
   \   000029 260D                  JRNE      L:??main_0
    183              {
    184               printf("\nDS_Err_I");
   \   00002B AE0000                LDW       X, #`?<Constant "\\nDS_Err_I">`
   \   00002E 8D000000              CALLF     printf
    185                while (!key_ok_on());
   \                     ??main_1:
   \   000032 8D000000              CALLF     ?Subroutine27
    186              }
   \                     ??CrossCallReturnLabel_84:
   \   000036 27FA                  JREQ      L:??main_1
    187          
    188              //years=bcd2hex(13);
    189              Delay1(1000);
   \                     ??main_0:
   \   000038 AE03E8                LDW       X, #0x3e8
   \   00003B 8D000000              CALLF     Delay1
    190               if (!ReadDS1307())
   \   00003F 8D000000              CALLF     ReadDS1307
   \   000043 A100                  CP        A, #0x0
   \   000045 2615                  JRNE      L:??main_2
    191               {
    192                 printf("\n E2:%d",error);
   \   000047 C60000                LD        A, L:error
   \   00004A 5F                    CLRW      X
   \   00004B 97                    LD        XL, A
   \   00004C 89                    PUSHW     X
   \   00004D AE0000                LDW       X, #`?<Constant "\\n E2:%d">`
   \   000050 8D000000              CALLF     printf
   \   000054 5B02                  ADD       SP, #0x2
    193                 // Reset the CPU: Enable the watchdog and wait until it expires
    194                 IWDG->KR = IWDG_KEY_ENABLE;
   \   000056 35CC50E0              MOV       L:0x50e0, #0xcc
    195                 while ( 1 );    // Wait until reset occurs from IWDG
   \                     ??main_3:
   \   00005A 20FE                  JRA       L:??main_3
    196               }
    197               //Send_Hello();
    198              //line_lcd=0;
    199              //printf("\nHello");
    200          
    201          
    202              if (!Check_DS1307())
   \                     ??main_2:
   \   00005C 8D000000              CALLF     Check_DS1307
   \   000060 A100                  CP        A, #0x0
   \   000062 2626                  JRNE      L:??main_4
    203              {
    204                 if (error!=0)
   \   000064 C60000                LD        A, L:error
   \   000067 2712                  JREQ      L:??main_5
    205                 {
    206                  printf("\n E:%d",error);
   \   000069 5F                    CLRW      X
   \   00006A 97                    LD        XL, A
   \   00006B 89                    PUSHW     X
   \   00006C AE0000                LDW       X, #`?<Constant "\\n E:%d">`
   \   00006F 8D000000              CALLF     printf
   \   000073 5B02                  ADD       SP, #0x2
    207                   while (!key_ok_on());
   \                     ??main_6:
   \   000075 8D000000              CALLF     ?Subroutine27
    208          
    209                 }
   \                     ??CrossCallReturnLabel_85:
   \   000079 27FA                  JREQ      L:??main_6
    210               line_lcd=0;
   \                     ??main_5:
   \   00007B 725F0000              CLR       L:line_lcd
    211               printf("\nSetClock");
   \   00007F AE0000                LDW       X, #`?<Constant "\\nSetClock">`
   \   000082 8D000000              CALLF     printf
    212                Set_Clock();
   \   000086 8D000000              CALLF     Set_Clock
    213          
    214              }
    215          
    216          
    217              //When Start Check for Allarm and computing Daily_long_on
    218                Read_Allarm();
   \                     ??main_4:
   \   00008A 8D000000              CALLF     Read_Allarm
    219                 time_on=daily_hour_on*60+daily_minute_on;
   \   00008E 8D000000              CALLF     ?Subroutine1
    220                 time_off= daily_hour_off*60+daily_minute_off;
   \                     ??CrossCallReturnLabel_1:
   \   000092 200B                  JRA       L:??main_7
    221          
    222          
    223               //UART2_Cmd(DISABLE);  // Disable UART for the moment
    224          
    225               // Working fuction
    226              //Set_DS1307(13,7,13,34,0);//u8 year ,u8 mounts,u8 hours,u8 minutes,u8 seconds)
    227          
    228              while(1)
    229              {
    230                ADC1_Cmd (ENABLE);
    231          
    232                 GPIO_WriteReverse(GPIOD, (GPIO_Pin_TypeDef)GPIO_PIN_0 );
    233                   Delay2(10000);
    234                 GPIO_WriteReverse(GPIOD, (GPIO_Pin_TypeDef)GPIO_PIN_0 );
    235                   Delay2(10000);
    236          
    237                line_lcd=0;
    238               if (!ReadDS1307())
    239               {
    240                 printf("\n E2:%d",error);
    241                  //restart i2c
    242                // Reset the CPU: Enable the watchdog and wait until it expires
    243                 IWDG->KR = IWDG_KEY_ENABLE;
    244                 while ( 1 );    // Wait until reset occurs from IWDG
    245          
    246          
    247               }
    248                 else  printf("\n      ");
    249               line_lcd=1;
    250               printf("\n%02d:%02d:%02d",hours,minutes,seconds);
    251               //line_lcd=2;
    252               //printf("\n Just Test:%X", timer2);
    253                   //if (rx_data==SpecialSymbol) SendData();
    254                //SendData();
    255          
    256                if (key_ok_on())
    257                {
    258                  line_lcd=0;
    259                  printf("\n%02d:%02d:%02d",years,mounts,date);
    260                }
    261          
    262                if(key_ok_plus())
    263                {
    264                 //Set Daily Allarm
    265                  Set_Delay_Allarm();
    266                }
    267          
    268          
    269                //Check for Allarm
    270          
    271                u16 time_now=hours*60+minutes;
    272                bool allarm=FALSE;
    273          
    274          
    275                     u16 time=time_on;
    276                     do
    277                    {
    278                       if(time==time_now)
    279                       {
    280                         allarm=TRUE;
    281                          break ;
    282                       }
    283                        time++;
    284                         if( time==1441) time=0;
    285                    } while(!(time==time_off));
    286          
    287          
    288          
    289          
    290          
    291          
    292          
    293          
    294          
    295                      if(allarm)
    296                   {
    297                     // Allarm ON
    298                     line_lcd=0;
   \                     ??main_8:
   \   000094 725F0000              CLR       L:line_lcd
    299                     printf("\n ON");
   \   000098 AE0000                LDW       X, #`?<Constant "\\n ON">`
   \                     ??main_9:
   \   00009B 8D000000              CALLF     printf
    300                   }
   \                     ??main_7:
   \   00009F A601                  LD        A, #0x1
   \   0000A1 8D000000              CALLF     ADC1_Cmd
   \   0000A5 8D000000              CALLF     ?Subroutine21
   \                     ??CrossCallReturnLabel_60:
   \   0000A9 8D000000              CALLF     ?Subroutine21
   \                     ??CrossCallReturnLabel_59:
   \   0000AD 725F0000              CLR       L:line_lcd
   \   0000B1 8D000000              CALLF     ReadDS1307
   \   0000B5 A100                  CP        A, #0x0
   \   0000B7 2615                  JRNE      L:??main_10
   \   0000B9 C60000                LD        A, L:error
   \   0000BC 5F                    CLRW      X
   \   0000BD 97                    LD        XL, A
   \   0000BE 89                    PUSHW     X
   \   0000BF AE0000                LDW       X, #`?<Constant "\\n E2:%d">`
   \   0000C2 8D000000              CALLF     printf
   \   0000C6 5B02                  ADD       SP, #0x2
   \   0000C8 35CC50E0              MOV       L:0x50e0, #0xcc
   \                     ??main_11:
   \   0000CC 20FE                  JRA       L:??main_11
   \                     ??main_10:
   \   0000CE AE0000                LDW       X, #`?<Constant "\\n      ">`
   \   0000D1 8D000000              CALLF     printf
   \   0000D5 8D000000              CALLF     ?Subroutine16
   \                     ??CrossCallReturnLabel_46:
   \   0000D9 89                    PUSHW     X
   \   0000DA C60000                LD        A, L:minutes
   \   0000DD 97                    LD        XL, A
   \   0000DE 89                    PUSHW     X
   \   0000DF C60000                LD        A, L:hours
   \   0000E2 97                    LD        XL, A
   \   0000E3 89                    PUSHW     X
   \   0000E4 AE0000                LDW       X, #`?<Constant "\\n%02d:%02d:%02d">`
   \   0000E7 8D000000              CALLF     printf
   \   0000EB 5B06                  ADD       SP, #0x6
   \   0000ED 8D000000              CALLF     ?Subroutine27
   \                     ??CrossCallReturnLabel_86:
   \   0000F1 271D                  JREQ      L:??main_12
   \   0000F3 725F0000              CLR       L:line_lcd
   \   0000F7 C60000                LD        A, L:`date`
   \   0000FA 5F                    CLRW      X
   \   0000FB 97                    LD        XL, A
   \   0000FC 89                    PUSHW     X
   \   0000FD C60000                LD        A, L:mounts
   \   000100 97                    LD        XL, A
   \   000101 89                    PUSHW     X
   \   000102 C60000                LD        A, L:years
   \   000105 97                    LD        XL, A
   \   000106 89                    PUSHW     X
   \   000107 AE0000                LDW       X, #`?<Constant "\\n%02d:%02d:%02d">`
   \   00010A 8D000000              CALLF     printf
   \   00010E 5B06                  ADD       SP, #0x6
   \                     ??main_12:
   \   000110 8D000000              CALLF     key_ok_plus
   \   000114 A100                  CP        A, #0x0
   \   000116 2704                  JREQ      L:??main_13
   \   000118 8D000000              CALLF     Set_Delay_Allarm
   \                     ??main_13:
   \   00011C C60000                LD        A, L:hours
   \   00011F 8D000000              CALLF     ?Subroutine37
   \                     ??CrossCallReturnLabel_168:
   \   000123 C60000                LD        A, L:minutes
   \   000126 8D000000              CALLF     ?Subroutine43
   \                     ??CrossCallReturnLabel_126:
   \   00012A 90CE0000              LDW       Y, L:time_on
   \                     ??main_14:
   \   00012E BF00                  LDW       S:?w0, X
   \   000130 90B300                CPW       Y, S:?w0
   \   000133 2603                  JRNE      ??lb_0
   \   000135 CC0000                JP        L:??main_8
   \                     ??lb_0:
   \   000138 905C                  INCW      Y
   \   00013A 90A305A1              CPW       Y, #0x5a1
   \   00013E 2602                  JRNE      L:??main_15
   \   000140 905F                  CLRW      Y
   \                     ??main_15:
   \   000142 90C30000              CPW       Y, L:time_off
   \   000146 26E6                  JRNE      L:??main_14
    301          
    302                    else
    303                    {
    304                      line_lcd=0;
   \   000148 725F0000              CLR       L:line_lcd
    305                      printf("\n OFF");
   \   00014C AE0000                LDW       X, #`?<Constant "\\n OFF">`
   \   00014F AC000000              JPF       ??main_9
    306                    }
    307          
    308          
    309              }
    310          
    311          
    312          
    313          }

   \                                 In section .far_func.text, align 1, keep-with-next
   \                     ?Subroutine37:
   \   000000 905F                  CLRW      Y
   \   000002                       REQUIRE ??Subroutine50_0
   \   000002                       ;               // Fall through to label ??Subroutine50_0

   \                                 In section .far_func.text, align 1, keep-with-next
   \                     ??Subroutine50_0:
   \   000000 9097                  LD        YL, A
   \   000002 AE003C                LDW       X, #0x3c
   \   000005 BF00                  LDW       S:?w0, X
   \   000007 93                    LDW       X, Y
   \   000008 AC000000              JPF       L:?mul16_x_x_w0

   \                                 In section .far_func.text, align 1
   \                     ?Subroutine21:
   \   000000 A601                  LD        A, #0x1
   \   000002 AE500F                LDW       X, #0x500f
   \   000005 8D000000              CALLF     GPIO_WriteReverse
   \   000009 AE2710                LDW       X, #0x2710
   \   00000C AC000000              JPF       Delay2

   \                                 In section .far_func.text, align 1
   \                     ?Subroutine16:
   \   000000 35010000              MOV       L:line_lcd, #0x1
   \   000004 C60000                LD        A, L:seconds
   \   000007 5F                    CLRW      X
   \   000008 97                    LD        XL, A
   \   000009 87                    RETF

   \                                 In section .far_func.text, align 1
   \                     ?Subroutine1:
   \   000000 C60000                LD        A, L:daily_hour_on
   \   000003 8D000000              CALLF     ?Subroutine37
   \                     ??CrossCallReturnLabel_169:
   \   000007 C60000                LD        A, L:daily_minute_on
   \   00000A 8D000000              CALLF     ?Subroutine43
   \                     ??CrossCallReturnLabel_127:
   \   00000E CF0000                LDW       L:time_on, X
   \   000011 C60000                LD        A, L:daily_hour_off
   \   000014 8D000000              CALLF     ??Subroutine50_0
   \                     ??CrossCallReturnLabel_167:
   \   000018 C60000                LD        A, L:daily_minute_off
   \   00001B 8D000000              CALLF     ?Subroutine43
   \                     ??CrossCallReturnLabel_128:
   \   00001F CF0000                LDW       L:time_off, X
   \   000022 87                    RETF

   \                                 In section .far_func.text, align 1
   \                     ?Subroutine43:
   \   000000 9097                  LD        YL, A
   \   000002 90BF00                LDW       S:?w0, Y
   \   000005 72BB0000              ADDW      X, S:?w0
   \   000009 87                    RETF
    314          

   \                                 In section .far_func.text, align 1, keep-with-next
    315          void InitI2C(void)
    316          {
    317             I2C_DeInit();
   \                     InitI2C:
   \   000000 8D000000              CALLF     I2C_DeInit
    318             I2C_Init(10000, 0xA2, I2C_DUTYCYCLE_2, I2C_ACK_CURR, I2C_ADDMODE_7BIT, 2);
   \   000004 35020000              MOV       S:?b6, #0x2
   \   000008 3F00                  CLR       S:?b5
   \   00000A 35010000              MOV       S:?b4, #0x1
   \   00000E 4F                    CLR       A
   \   00000F AE00A2                LDW       X, #0xa2
   \   000012 89                    PUSHW     X
   \   000013 AE2710                LDW       X, #0x2710
   \   000016 BF00                  LDW       S:?w1, X
   \   000018 5F                    CLRW      X
   \   000019 BF00                  LDW       S:?w0, X
   \   00001B 85                    POPW      X
   \   00001C 8D000000              CALLF     I2C_Init
    319             I2C_Cmd(ENABLE);
   \   000020 A601                  LD        A, #0x1
   \   000022 AC000000              JPF       I2C_Cmd
    320          }
    321          

   \                                 In section .far_func.text, align 1, keep-with-next
    322          bool I2C_Start(void)
    323          {
    324             I2C_GenerateSTART(ENABLE);
   \                     I2C_Start:
   \   000000 A601                  LD        A, #0x1
   \   000002 8D000000              CALLF     I2C_GenerateSTART
    325                 timeout=100;
   \   000006 35640000              MOV       L:timeout, #0x64
    326              	while(!(I2C_CheckEvent(I2C_EVENT_MASTER_MODE_SELECT))&&timeout);
   \                     ??I2C_Start_0:
   \   00000A AE0301                LDW       X, #0x301
   \   00000D 8D000000              CALLF     ?Subroutine36
   \                     ??CrossCallReturnLabel_113:
   \   000011 2605                  JRNE      L:??I2C_Start_1
   \   000013 C60000                LD        A, L:timeout
   \   000016 26F2                  JRNE      L:??I2C_Start_0
    327                  if (!timeout)
   \                     ??I2C_Start_1:
   \   000018 C60000                LD        A, L:timeout
   \   00001B 2606                  JRNE      L:??I2C_Start_2
    328                  {
    329                      error=1;
   \   00001D 35010000              MOV       L:error, #0x1
    330                     return FALSE;
   \   000021 4F                    CLR       A
   \   000022 87                    RETF
    331                  }
    332                    else return TRUE;
   \                     ??I2C_Start_2:
   \   000023 A601                  LD        A, #0x1
   \   000025 87                    RETF
    333          }

   \                                 In section .far_func.text, align 1, keep-with-next
   \                     ?Subroutine36:
   \   000000 8D000000              CALLF     I2C_CheckEvent
   \   000004 A100                  CP        A, #0x0
   \   000006 87                    RETF
    334          

   \                                 In section .far_func.text, align 1, keep-with-next
    335          bool I2C_WA(u8 address)
    336          {
    337            I2C_Send7bitAddress(address, I2C_DIRECTION_TX);
   \                     I2C_WA:
   \   000000 3F00                  CLR       S:?b0
   \   000002 8D000000              CALLF     I2C_Send7bitAddress
    338                 timeout=255;
   \   000006 35FF0000              MOV       L:timeout, #0xff
    339                  while(!(I2C_CheckEvent(I2C_EVENT_MASTER_TRANSMITTER_MODE_SELECTED))&&timeout);
   \                     ??I2C_WA_0:
   \   00000A AE0782                LDW       X, #0x782
   \   00000D 8D000000              CALLF     ?Subroutine36
   \                     ??CrossCallReturnLabel_112:
   \   000011 2605                  JRNE      L:??I2C_WA_1
   \   000013 C60000                LD        A, L:timeout
   \   000016 26F2                  JRNE      L:??I2C_WA_0
    340                   if (!timeout)
   \                     ??I2C_WA_1:
   \   000018 C60000                LD        A, L:timeout
   \   00001B 2606                  JRNE      L:??I2C_WA_2
    341                   {
    342                    error=2;
   \   00001D 35020000              MOV       L:error, #0x2
    343                     return FALSE ;
   \   000021 4F                    CLR       A
   \   000022 87                    RETF
    344                   }
    345                    else return TRUE;
   \                     ??I2C_WA_2:
   \   000023 A601                  LD        A, #0x1
   \   000025 87                    RETF
    346          }
    347          

   \                                 In section .far_func.text, align 1, keep-with-next
    348          bool I2C_RA(u8 address)
    349          {
    350            I2C_Send7bitAddress(address, I2C_DIRECTION_RX);
   \                     I2C_RA:
   \   000000 35010000              MOV       S:?b0, #0x1
   \   000004 8D000000              CALLF     I2C_Send7bitAddress
    351                 timeout=255;
   \   000008 35FF0000              MOV       L:timeout, #0xff
    352                  while(!(I2C_CheckEvent(I2C_EVENT_MASTER_RECEIVER_MODE_SELECTED))&&timeout);
   \                     ??I2C_RA_0:
   \   00000C AE0302                LDW       X, #0x302
   \   00000F 8D000000              CALLF     ?Subroutine36
   \                     ??CrossCallReturnLabel_114:
   \   000013 2605                  JRNE      L:??I2C_RA_1
   \   000015 C60000                LD        A, L:timeout
   \   000018 26F2                  JRNE      L:??I2C_RA_0
    353                   if (!timeout)
   \                     ??I2C_RA_1:
   \   00001A C60000                LD        A, L:timeout
   \   00001D 2606                  JRNE      L:??I2C_RA_2
    354                   {
    355                     error=3;
   \   00001F 35030000              MOV       L:error, #0x3
    356                     return FALSE ;
   \   000023 4F                    CLR       A
   \   000024 87                    RETF
    357                   }
    358                    else return TRUE;
   \                     ??I2C_RA_2:
   \   000025 A601                  LD        A, #0x1
   \   000027 87                    RETF
    359          }
    360          
    361          

   \                                 In section .far_func.text, align 1, keep-with-next
    362          bool I2C_WD(u8 data)
    363          {
    364           I2C_SendData(data);   // set register pointer 00h
   \                     I2C_WD:
   \   000000 8D000000              CALLF     I2C_SendData
    365             timeout=255;
   \   000004 35FF0000              MOV       L:timeout, #0xff
    366             while(!(I2C_CheckEvent(I2C_EVENT_MASTER_BYTE_TRANSMITTED))&&timeout);
   \                     ??I2C_WD_0:
   \   000008 AE0784                LDW       X, #0x784
   \   00000B 8D000000              CALLF     ?Subroutine36
   \                     ??CrossCallReturnLabel_111:
   \   00000F 2605                  JRNE      L:??I2C_WD_1
   \   000011 C60000                LD        A, L:timeout
   \   000014 26F2                  JRNE      L:??I2C_WD_0
    367              if (!timeout)
   \                     ??I2C_WD_1:
   \   000016 C60000                LD        A, L:timeout
   \   000019 2606                  JRNE      L:??I2C_WD_2
    368              {
    369                error=4;
   \   00001B 35040000              MOV       L:error, #0x4
    370                 return FALSE ;
   \   00001F 4F                    CLR       A
   \   000020 87                    RETF
    371              }
    372               else return TRUE;
   \                     ??I2C_WD_2:
   \   000021 A601                  LD        A, #0x1
   \   000023 87                    RETF
    373          }
    374          

   \                                 In section .far_func.text, align 1, keep-with-next
    375          u8 I2C_RD(void)
    376          {
    377           timeout=255;
   \                     I2C_RD:
   \   000000 35FF0000              MOV       L:timeout, #0xff
    378            while( !I2C_GetFlagStatus(I2C_FLAG_TRANSFERFINISHED)&& timeout);
   \                     ??I2C_RD_0:
   \   000004 AE0104                LDW       X, #0x104
   \   000007 8D000000              CALLF     I2C_GetFlagStatus
   \   00000B A100                  CP        A, #0x0
   \   00000D 2605                  JRNE      L:??I2C_RD_1
   \   00000F C60000                LD        A, L:timeout
   \   000012 26F0                  JRNE      L:??I2C_RD_0
    379           //while((!(I2C->SR1 & 0x40))&&timeout);
    380           if (!timeout)
   \                     ??I2C_RD_1:
   \   000014 C60000                LD        A, L:timeout
   \   000017 2606                  JRNE      L:??I2C_RD_2
    381           {
    382             error=5;
   \   000019 35050000              MOV       L:error, #0x5
    383             return FALSE;
   \   00001D 4F                    CLR       A
   \   00001E 87                    RETF
    384           }
    385           u8 data=I2C_ReceiveData();
    386           return data;
   \                     ??I2C_RD_2:
   \   00001F AC000000              JPF       I2C_ReceiveData
    387          }
    388          
    389            /*
    390          bool Init_DS1307(void)
    391          {
    392             // Test DS1307
    393              error=0;
    394              if (!I2C_Start()) return FALSE;
    395              if(!I2C_WA(0xD0)) return FALSE;
    396              if(!I2C_WD(0x00)) return FALSE;
    397              if(!I2C_WD(0x00)) return FALSE;
    398              I2C_GenerateSTOP(ENABLE);
    399          
    400              // timeout=100;  error=4;
    401              ///   while(!(I2C_CheckEvent(I2C_EVENT_MASTER_BYTE_TRANSMITTED))&&timeout);
    402              //    if (!timeout)return FALSE ;
    403               return TRUE;
    404          }
    405             */
    406          

   \                                 In section .far_func.text, align 1, keep-with-next
   \                     ?Subroutine35:
   \   000000 4F                    CLR       A
   \   000001                       REQUIRE ??Subroutine49_0
   \   000001                       ;               // Fall through to label ??Subroutine49_0

   \                                 In section .far_func.text, align 1, keep-with-next
   \                     ??Subroutine49_0:
   \   000000 8D000000              CALLF     I2C_WD
   \   000004 A100                  CP        A, #0x0
   \   000006 87                    RETF

   \                                 In section .far_func.text, align 1, keep-with-next
   \                     ?Subroutine34:
   \   000000 A6D0                  LD        A, #0xd0
   \   000002 8D000000              CALLF     I2C_WA
   \   000006 A100                  CP        A, #0x0
   \   000008 87                    RETF

   \                                 In section .far_func.text, align 1, keep-with-next
   \                     ?Subroutine33:
   \   000000 725F0000              CLR       L:error
   \   000004 8D000000              CALLF     I2C_Start
   \   000008 A100                  CP        A, #0x0
   \   00000A 87                    RETF

   \                                 In section .far_func.text, align 1, keep-with-next
    407          bool  ReadDS1307(void)
    408          {
    409                 error=0;
   \                     ReadDS1307:
   \   000000 8D000000              CALLF     ?Subroutine33
    410                 if (!I2C_Start()) return FALSE;
   \                     ??CrossCallReturnLabel_107:
   \   000004 2602                  JRNE      L:??ReadDS1307_0
   \                     ??ReadDS1307_1:
   \   000006 4F                    CLR       A
   \   000007 87                    RETF
    411                 if(!I2C_WA(0xD0))return FALSE;
   \                     ??ReadDS1307_0:
   \   000008 8D000000              CALLF     ?Subroutine34
   \                     ??CrossCallReturnLabel_110:
   \   00000C 27F8                  JREQ      L:??ReadDS1307_1
    412                 if(!I2C_WD(0x00)) return FALSE;
   \   00000E 8D000000              CALLF     ?Subroutine35
   \                     ??CrossCallReturnLabel_163:
   \   000012 27F2                  JREQ      L:??ReadDS1307_1
    413                 I2C_GenerateSTOP(ENABLE);
   \   000014 8D000000              CALLF     ?Subroutine22
    414                 if (!I2C_Start()) return FALSE;
   \                     ??CrossCallReturnLabel_62:
   \   000018 27EC                  JREQ      L:??ReadDS1307_1
    415                 if(!I2C_RA(0xD0))return FALSE;
   \   00001A A6D0                  LD        A, #0xd0
   \   00001C 8D000000              CALLF     I2C_RA
   \   000020 A100                  CP        A, #0x0
   \   000022 27E2                  JREQ      L:??ReadDS1307_1
    416                 I2C_AcknowledgeConfig(I2C_ACK_CURR);
   \   000024 8D000000              CALLF     ?Subroutine20
    417                 seconds = bcd2hex(I2C_RD());
   \                     ??CrossCallReturnLabel_58:
   \   000028 C70000                LD        L:seconds, A
    418                 I2C_AcknowledgeConfig(I2C_ACK_CURR);
   \   00002B 8D000000              CALLF     ?Subroutine20
    419                 minutes = bcd2hex(I2C_RD());
   \                     ??CrossCallReturnLabel_57:
   \   00002F C70000                LD        L:minutes, A
    420                 I2C_AcknowledgeConfig(I2C_ACK_CURR);
   \   000032 8D000000              CALLF     ?Subroutine20
    421                 hours = bcd2hex(I2C_RD());
   \                     ??CrossCallReturnLabel_56:
   \   000036 C70000                LD        L:hours, A
    422                 I2C_AcknowledgeConfig(I2C_ACK_CURR);
   \   000039 8D000000              CALLF     ?Subroutine20
    423                 days = bcd2hex(I2C_RD());
   \                     ??CrossCallReturnLabel_55:
   \   00003D C70000                LD        L:days, A
    424                 I2C_AcknowledgeConfig(I2C_ACK_CURR);
   \   000040 8D000000              CALLF     ?Subroutine20
    425                 date = bcd2hex(I2C_RD());
   \                     ??CrossCallReturnLabel_54:
   \   000044 C70000                LD        L:`date`, A
    426                 I2C_AcknowledgeConfig(I2C_ACK_CURR);
   \   000047 8D000000              CALLF     ?Subroutine20
    427                 mounts = bcd2hex(I2C_RD());
   \                     ??CrossCallReturnLabel_53:
   \   00004B C70000                LD        L:mounts, A
    428                 I2C_AcknowledgeConfig(I2C_ACK_CURR);
   \   00004E 8D000000              CALLF     ?Subroutine20
    429                  years= bcd2hex(I2C_RD());
   \                     ??CrossCallReturnLabel_52:
   \   000052 C70000                LD        L:years, A
    430                 I2C_AcknowledgeConfig(I2C_ACK_CURR);
   \   000055 8D000000              CALLF     ?Subroutine23
    431                  u8 data1 = I2C_RD();
    432                //Last read byte by I2C slave
    433                 I2C_AcknowledgeConfig(I2C_ACK_NONE);
   \                     ??CrossCallReturnLabel_64:
   \   000059 8D000000              CALLF     ?Subroutine26
    434                 I2C_GenerateSTOP(ENABLE);
    435                 temp2= I2C_RD();
   \                     ??CrossCallReturnLabel_69:
   \   00005D 8D000000              CALLF     I2C_RD
   \   000061 C70000                LD        L:temp2, A
    436                 return TRUE;
   \   000064 A601                  LD        A, #0x1
   \   000066 87                    RETF
    437          }

   \                                 In section .far_func.text, align 1, keep-with-next
   \                     ?Subroutine26:
   \   000000 4F                    CLR       A
   \   000001 8D000000              CALLF     I2C_AcknowledgeConfig
   \   000005 A601                  LD        A, #0x1
   \   000007 AC000000              JPF       I2C_GenerateSTOP

   \                                 In section .far_func.text, align 1, keep-with-next
   \                     ?Subroutine23:
   \   000000 8D000000              CALLF     ?Subroutine41
   \                     ??CrossCallReturnLabel_122:
   \   000004 87                    RETF

   \                                 In section .far_func.text, align 1, keep-with-next
   \                     ?Subroutine41:
   \   000000 A601                  LD        A, #0x1
   \   000002 8D000000              CALLF     I2C_AcknowledgeConfig
   \   000006 AC000000              JPF       I2C_RD

   \                                 In section .far_func.text, align 1, keep-with-next
   \                     ?Subroutine22:
   \   000000 A601                  LD        A, #0x1
   \   000002 8D000000              CALLF     I2C_GenerateSTOP
   \   000006 8D000000              CALLF     I2C_Start
   \   00000A A100                  CP        A, #0x0
   \   00000C 87                    RETF

   \                                 In section .far_func.text, align 1, keep-with-next
   \                     ?Subroutine20:
   \   000000 8D000000              CALLF     ?Subroutine41
   \                     ??CrossCallReturnLabel_121:
   \   000004 AC000000              JPF       bcd2hex
    438          

   \                                 In section .far_func.text, align 1, keep-with-next
    439          bool Check_DS1307(void)
    440          {
   \                     Check_DS1307:
   \   000000 3B0000                PUSH      S:?b8
    441             // Read  address 0x08 from DS1307 if not 0XAA clock is not set
    442                 error=0;
   \   000003 8D000000              CALLF     ?Subroutine33
    443                 if (!I2C_Start()) return FALSE;
   \                     ??CrossCallReturnLabel_106:
   \   000007 2603                  JRNE      L:??Check_DS1307_0
   \                     ??Check_DS1307_1:
   \   000009 4F                    CLR       A
   \   00000A 2030                  JRA       L:??Check_DS1307_2
    444                 if(!I2C_WA(0xD0)) return FALSE;
   \                     ??Check_DS1307_0:
   \   00000C 8D000000              CALLF     ?Subroutine34
   \                     ??CrossCallReturnLabel_109:
   \   000010 27F7                  JREQ      L:??Check_DS1307_1
    445                 if(!I2C_WD(0x08)) return FALSE;
   \   000012 A608                  LD        A, #0x8
   \   000014 8D000000              CALLF     ??Subroutine49_0
   \                     ??CrossCallReturnLabel_166:
   \   000018 27EF                  JREQ      L:??Check_DS1307_1
    446                 I2C_GenerateSTOP(ENABLE);
   \   00001A 8D000000              CALLF     ?Subroutine22
    447                  //Last read byte by I2C slave
    448                 if (!I2C_Start()) return FALSE;
   \                     ??CrossCallReturnLabel_61:
   \   00001E 27E9                  JREQ      L:??Check_DS1307_1
    449                 if(!I2C_RA(0xD0))return FALSE;
   \   000020 A6D0                  LD        A, #0xd0
   \   000022 8D000000              CALLF     I2C_RA
   \   000026 A100                  CP        A, #0x0
   \   000028 27DF                  JREQ      L:??Check_DS1307_1
    450                 I2C_AcknowledgeConfig(I2C_ACK_CURR);
   \   00002A 8D000000              CALLF     ?Subroutine23
    451                 u8 data = I2C_RD();
   \                     ??CrossCallReturnLabel_63:
   \   00002E B700                  LD        S:?b8, A
    452                 I2C_AcknowledgeConfig(I2C_ACK_NONE);
   \   000030 8D000000              CALLF     ?Subroutine26
    453                 I2C_GenerateSTOP(ENABLE);
    454                 if (data != 0xAA) return FALSE;
   \                     ??CrossCallReturnLabel_70:
   \   000034 B600                  LD        A, S:?b8
   \   000036 A1AA                  CP        A, #0xaa
   \   000038 26CF                  JRNE      L:??Check_DS1307_1
    455                 else return TRUE;
   \   00003A A601                  LD        A, #0x1
   \                     ??Check_DS1307_2:
   \   00003C 320000                POP       S:?b8
   \   00003F 87                    RETF
    456          }
    457          

   \                                 In section .far_func.text, align 1, keep-with-next
    458          bool Set_DS1307()
    459          {
    460                 // convert hex or decimal to bcd format
    461          
    462          
    463                 error=0;
   \                     Set_DS1307:
   \   000000 8D000000              CALLF     ?Subroutine33
    464                 if (!I2C_Start()) return FALSE;
   \                     ??CrossCallReturnLabel_105:
   \   000004 2602                  JRNE      L:??Set_DS1307_0
   \                     ??Set_DS1307_1:
   \   000006 4F                    CLR       A
   \   000007 87                    RETF
    465                 if(!I2C_WA(0xD0)) return FALSE;
   \                     ??Set_DS1307_0:
   \   000008 8D000000              CALLF     ?Subroutine34
   \                     ??CrossCallReturnLabel_108:
   \   00000C 27F8                  JREQ      L:??Set_DS1307_1
    466                 if(!I2C_WD(0x00)) return FALSE;
   \   00000E 8D000000              CALLF     ?Subroutine35
   \                     ??CrossCallReturnLabel_162:
   \   000012 27F2                  JREQ      L:??Set_DS1307_1
    467                 if(!I2C_WD(convert_tobcd(seconds))) return FALSE;
   \   000014 C60000                LD        A, L:seconds
   \   000017 8D000000              CALLF     ?Subroutine32
   \                     ??CrossCallReturnLabel_98:
   \   00001B 27E9                  JREQ      L:??Set_DS1307_1
    468                 if(!I2C_WD(convert_tobcd(minutes))) return FALSE;
   \   00001D C60000                LD        A, L:minutes
   \   000020 8D000000              CALLF     ?Subroutine32
   \                     ??CrossCallReturnLabel_99:
   \   000024 27E0                  JREQ      L:??Set_DS1307_1
    469                 if(!I2C_WD(convert_tobcd(hours))) return FALSE;
   \   000026 C60000                LD        A, L:hours
   \   000029 8D000000              CALLF     ?Subroutine32
   \                     ??CrossCallReturnLabel_100:
   \   00002D 27D7                  JREQ      L:??Set_DS1307_1
    470                 if(!I2C_WD(convert_tobcd(days))) return FALSE;
   \   00002F C60000                LD        A, L:days
   \   000032 8D000000              CALLF     ?Subroutine32
   \                     ??CrossCallReturnLabel_101:
   \   000036 27CE                  JREQ      L:??Set_DS1307_1
    471                 if(!I2C_WD(convert_tobcd(date))) return FALSE;
   \   000038 C60000                LD        A, L:`date`
   \   00003B 8D000000              CALLF     ?Subroutine32
   \                     ??CrossCallReturnLabel_102:
   \   00003F 27C5                  JREQ      L:??Set_DS1307_1
    472                 if(!I2C_WD(convert_tobcd(mounts))) return FALSE;
   \   000041 C60000                LD        A, L:mounts
   \   000044 8D000000              CALLF     ?Subroutine32
   \                     ??CrossCallReturnLabel_103:
   \   000048 27BC                  JREQ      L:??Set_DS1307_1
    473                 if(!I2C_WD(convert_tobcd(years)))return FALSE;
   \   00004A C60000                LD        A, L:years
   \   00004D 8D000000              CALLF     ?Subroutine32
   \                     ??CrossCallReturnLabel_104:
   \   000051 27B3                  JREQ      L:??Set_DS1307_1
    474                 if(!I2C_WD(DS_Control))return FALSE;
   \   000053 A610                  LD        A, #0x10
   \   000055 8D000000              CALLF     ??Subroutine49_0
   \                     ??CrossCallReturnLabel_164:
   \   000059 27AB                  JREQ      L:??Set_DS1307_1
    475                 if(!I2C_WD(0XAA)) return FALSE;  // Byte --> time is set by program
   \   00005B A6AA                  LD        A, #0xaa
   \   00005D 8D000000              CALLF     ??Subroutine49_0
   \                     ??CrossCallReturnLabel_165:
   \   000061 27A3                  JREQ      L:??Set_DS1307_1
    476                 I2C_GenerateSTOP(ENABLE);
   \   000063 A601                  LD        A, #0x1
   \   000065 8D000000              CALLF     I2C_GenerateSTOP
    477          
    478          
    479             return TRUE;
   \   000069 A601                  LD        A, #0x1
   \   00006B 87                    RETF
    480          }

   \                                 In section .far_func.text, align 1, keep-with-next
   \                     ?Subroutine32:
   \   000000 8D000000              CALLF     convert_tobcd
   \   000004 8D000000              CALLF     I2C_WD
   \   000008 A100                  CP        A, #0x0
   \   00000A 87                    RETF
    481          
    482          

   \                                 In section .far_func.text, align 1, keep-with-next
    483          u8 convert_tobcd(u8 data)
    484          {
   \                     convert_tobcd:
   \   000000 B700                  LD        S:?b1, A
    485             u8 data_second_decimal=data/10;
    486             u8 data_first_decimal=data - 10*data_second_decimal;
    487             data=16*data_second_decimal + data_first_decimal;
    488            return data;
   \   000002 A60A                  LD        A, #0xa
   \   000004 5F                    CLRW      X
   \   000005 01                    RRWA      X, A
   \   000006 B600                  LD        A, S:?b1
   \   000008 02                    RLWA      X, A
   \   000009 62                    DIV       X, A
   \   00000A 41                    EXG       A, XL
   \   00000B B700                  LD        S:?b0, A
   \   00000D A606                  LD        A, #0x6
   \   00000F 97                    LD        XL, A
   \   000010 B600                  LD        A, S:?b0
   \   000012 42                    MUL       X, A
   \   000013 9F                    LD        A, XL
   \   000014 BB00                  ADD       A, S:?b1
   \   000016 87                    RETF
    489          }
    490          

   \                                 In section .far_func.text, align 1, keep-with-next
    491          u8 bcd2hex(u8 bcd)
    492          {
   \                     bcd2hex:
   \   000000 B700                  LD        S:?b1, A
    493            u8 hex=0;
    494            hex=(bcd>>4)*10 +(bcd&0x0f);
    495            bcd=0;
    496            return hex ;
   \   000002 4E                    SWAP      A
   \   000003 A40F                  AND       A, #0xf
   \   000005 350A0000              MOV       S:?b0, #0xa
   \   000009 97                    LD        XL, A
   \   00000A B600                  LD        A, S:?b0
   \   00000C 42                    MUL       X, A
   \   00000D 41                    EXG       A, XL
   \   00000E B700                  LD        S:?b0, A
   \   000010 B600                  LD        A, S:?b1
   \   000012 A40F                  AND       A, #0xf
   \   000014 BB00                  ADD       A, S:?b0
   \   000016 87                    RETF
    497          }
    498          
    499          

   \                                 In section .far_func.text, align 1, keep-with-next
   \                     ?Subroutine40:
   \   000000 A601                  LD        A, #0x1
   \   000002 AC000000              JPF       LCDInstr

   \                                 In section .far_func.text, align 1, keep-with-next
    500          bool Set_Clock()
    501          {
    502              //Clear Display
    503             LCDInstr(0x01);
   \                     Set_Clock:
   \   000000 8D000000              CALLF     ?Subroutine12
    504             Delay1(1000);
    505             line_lcd=0;
    506              printf("\nYears:");
   \                     ??CrossCallReturnLabel_33:
   \   000004 AE0000                LDW       X, #`?<Constant "\\nYears:">`
   \   000007 8D000000              CALLF     printf
    507                do
    508              {
    509               line_lcd=1;
   \                     ??Set_Clock_0:
   \   00000B 8D000000              CALLF     ?Subroutine17
    510               printf("\n%02d:%02d:%02d",years,mounts,date);
   \                     ??CrossCallReturnLabel_47:
   \   00000F 89                    PUSHW     X
   \   000010 C60000                LD        A, L:mounts
   \   000013 97                    LD        XL, A
   \   000014 89                    PUSHW     X
   \   000015 C60000                LD        A, L:years
   \   000018 97                    LD        XL, A
   \   000019 89                    PUSHW     X
   \   00001A AE0000                LDW       X, #`?<Constant "\\n%02d:%02d:%02d">`
   \   00001D 8D000000              CALLF     printf
   \   000021 5B06                  ADD       SP, #0x6
    511                 years=adj(0,99,years);
   \   000023 C60000                LD        A, L:years
   \   000026 B700                  LD        S:?b1, A
   \   000028 35630000              MOV       S:?b0, #0x63
   \   00002C 8D000000              CALLF     ??Subroutine48_0
    512              } while (!key_ok_on());
   \                     ??CrossCallReturnLabel_155:
   \   000030 C70000                LD        L:years, A
   \   000033 8D000000              CALLF     ?Subroutine27
   \                     ??CrossCallReturnLabel_77:
   \   000037 27D2                  JREQ      L:??Set_Clock_0
    513          
    514               line_lcd=0;
   \   000039 725F0000              CLR       L:line_lcd
    515              printf("\nMounts:");
   \   00003D AE0000                LDW       X, #`?<Constant "\\nMounts:">`
   \   000040 8D000000              CALLF     printf
    516                do
    517              {
    518               line_lcd=1;
   \                     ??Set_Clock_1:
   \   000044 8D000000              CALLF     ?Subroutine17
    519               printf("\n%02d:%02d:%02d",years,mounts,date);
   \                     ??CrossCallReturnLabel_48:
   \   000048 89                    PUSHW     X
   \   000049 C60000                LD        A, L:mounts
   \   00004C 97                    LD        XL, A
   \   00004D 89                    PUSHW     X
   \   00004E C60000                LD        A, L:years
   \   000051 97                    LD        XL, A
   \   000052 89                    PUSHW     X
   \   000053 AE0000                LDW       X, #`?<Constant "\\n%02d:%02d:%02d">`
   \   000056 8D000000              CALLF     printf
   \   00005A 5B06                  ADD       SP, #0x6
    520                 mounts=adj(1,12,mounts);
   \   00005C C60000                LD        A, L:mounts
   \   00005F B700                  LD        S:?b1, A
   \   000061 350C0000              MOV       S:?b0, #0xc
   \   000065 A601                  LD        A, #0x1
   \   000067 8D000000              CALLF     adj
   \   00006B C70000                LD        L:mounts, A
    521              } while (!key_ok_on());
   \   00006E 8D000000              CALLF     ?Subroutine27
   \                     ??CrossCallReturnLabel_78:
   \   000072 27D0                  JREQ      L:??Set_Clock_1
    522          
    523              LCDInstr(0x01);
   \   000074 8D000000              CALLF     ?Subroutine12
    524               Delay1(1000);
    525                line_lcd=0;
    526              printf("\nDate:");
   \                     ??CrossCallReturnLabel_34:
   \   000078 AE0000                LDW       X, #`?<Constant "\\nDate:">`
   \   00007B 8D000000              CALLF     printf
    527                do
    528              {
    529               line_lcd=1;
   \                     ??Set_Clock_2:
   \   00007F 8D000000              CALLF     ?Subroutine17
    530               printf("\n%02d:%02d:%02d",years,mounts,date);
   \                     ??CrossCallReturnLabel_49:
   \   000083 89                    PUSHW     X
   \   000084 C60000                LD        A, L:mounts
   \   000087 97                    LD        XL, A
   \   000088 89                    PUSHW     X
   \   000089 C60000                LD        A, L:years
   \   00008C 97                    LD        XL, A
   \   00008D 89                    PUSHW     X
   \   00008E AE0000                LDW       X, #`?<Constant "\\n%02d:%02d:%02d">`
   \   000091 8D000000              CALLF     printf
   \   000095 5B06                  ADD       SP, #0x6
    531                 date=adj(1,31,date);
   \   000097 C60000                LD        A, L:`date`
   \   00009A B700                  LD        S:?b1, A
   \   00009C 351F0000              MOV       S:?b0, #0x1f
   \   0000A0 A601                  LD        A, #0x1
   \   0000A2 8D000000              CALLF     adj
   \   0000A6 C70000                LD        L:`date`, A
    532              } while (!key_ok_on());
   \   0000A9 8D000000              CALLF     ?Subroutine27
   \                     ??CrossCallReturnLabel_79:
   \   0000AD 27D0                  JREQ      L:??Set_Clock_2
    533          
    534          
    535              //Clear Display
    536             LCDInstr(0x01);
   \   0000AF 8D000000              CALLF     ?Subroutine12
    537             Delay1(1000);
    538             line_lcd=0;
    539              printf("\nDays:");
   \                     ??CrossCallReturnLabel_35:
   \   0000B3 AE0000                LDW       X, #`?<Constant "\\nDays:">`
   \   0000B6 8D000000              CALLF     printf
    540                do
    541              {
    542                line_lcd=1;
   \                     ??Set_Clock_3:
   \   0000BA 35010000              MOV       L:line_lcd, #0x1
    543               printf("\n%02d",days);
   \   0000BE C60000                LD        A, L:days
   \   0000C1 5F                    CLRW      X
   \   0000C2 97                    LD        XL, A
   \   0000C3 89                    PUSHW     X
   \   0000C4 AE0000                LDW       X, #`?<Constant "\\n%02d">`
   \   0000C7 8D000000              CALLF     printf
   \   0000CB 5B02                  ADD       SP, #0x2
    544                 days=adj(1,7,days);
   \   0000CD C60000                LD        A, L:days
   \   0000D0 B700                  LD        S:?b1, A
   \   0000D2 35070000              MOV       S:?b0, #0x7
   \   0000D6 A601                  LD        A, #0x1
   \   0000D8 8D000000              CALLF     adj
   \   0000DC C70000                LD        L:days, A
    545              } while (!key_ok_on());
   \   0000DF 8D000000              CALLF     ?Subroutine27
   \                     ??CrossCallReturnLabel_80:
   \   0000E3 27D5                  JREQ      L:??Set_Clock_3
    546          
    547          
    548          
    549             //Clear Display
    550             LCDInstr(0x01);
   \   0000E5 8D000000              CALLF     ?Subroutine12
    551             Delay1(1000);
    552             line_lcd=0;
    553              printf("\nHours:");
   \                     ??CrossCallReturnLabel_36:
   \   0000E9 AE0000                LDW       X, #`?<Constant "\\nHours:">`
   \   0000EC 8D000000              CALLF     printf
    554                do
    555              {
    556                line_lcd=1;
   \                     ??Set_Clock_4:
   \   0000F0 8D000000              CALLF     ?Subroutine16
    557               printf("\n%02d:%02d:%02d",hours,minutes,seconds);
   \                     ??CrossCallReturnLabel_43:
   \   0000F4 89                    PUSHW     X
   \   0000F5 C60000                LD        A, L:minutes
   \   0000F8 97                    LD        XL, A
   \   0000F9 89                    PUSHW     X
   \   0000FA C60000                LD        A, L:hours
   \   0000FD 97                    LD        XL, A
   \   0000FE 89                    PUSHW     X
   \   0000FF AE0000                LDW       X, #`?<Constant "\\n%02d:%02d:%02d">`
   \   000102 8D000000              CALLF     printf
   \   000106 5B06                  ADD       SP, #0x6
    558                 hours=adj(0,23,hours);
   \   000108 C60000                LD        A, L:hours
   \   00010B B700                  LD        S:?b1, A
   \   00010D 35170000              MOV       S:?b0, #0x17
   \   000111 8D000000              CALLF     ??Subroutine48_0
    559              } while (!key_ok_on());
   \                     ??CrossCallReturnLabel_154:
   \   000115 C70000                LD        L:hours, A
   \   000118 8D000000              CALLF     ?Subroutine27
   \                     ??CrossCallReturnLabel_81:
   \   00011C 27D2                  JREQ      L:??Set_Clock_4
    560          
    561               line_lcd=0;
   \   00011E 725F0000              CLR       L:line_lcd
    562               printf("\nMinutes:");
   \   000122 AE0000                LDW       X, #`?<Constant "\\nMinutes:">`
   \   000125 8D000000              CALLF     printf
    563                do
    564              {
    565                line_lcd=1;
   \                     ??Set_Clock_5:
   \   000129 8D000000              CALLF     ?Subroutine16
    566               printf("\n%02d:%02d:%02d",hours,minutes,seconds);
   \                     ??CrossCallReturnLabel_44:
   \   00012D 89                    PUSHW     X
   \   00012E C60000                LD        A, L:minutes
   \   000131 97                    LD        XL, A
   \   000132 89                    PUSHW     X
   \   000133 C60000                LD        A, L:hours
   \   000136 97                    LD        XL, A
   \   000137 89                    PUSHW     X
   \   000138 AE0000                LDW       X, #`?<Constant "\\n%02d:%02d:%02d">`
   \   00013B 8D000000              CALLF     printf
   \   00013F 5B06                  ADD       SP, #0x6
    567                 minutes=adj(0,59,minutes);
   \   000141 C60000                LD        A, L:minutes
   \   000144 8D000000              CALLF     ?Subroutine25
    568              } while (!key_ok_on());
   \                     ??CrossCallReturnLabel_159:
   \   000148 C70000                LD        L:minutes, A
   \   00014B 8D000000              CALLF     ?Subroutine27
   \                     ??CrossCallReturnLabel_82:
   \   00014F 27D8                  JREQ      L:??Set_Clock_5
    569          
    570              line_lcd=0;
   \   000151 725F0000              CLR       L:line_lcd
    571              printf("\nSeconds:");
   \   000155 AE0000                LDW       X, #`?<Constant "\\nSeconds:">`
   \   000158 8D000000              CALLF     printf
    572              do
    573              {
    574                line_lcd=1;
   \                     ??Set_Clock_6:
   \   00015C 8D000000              CALLF     ?Subroutine16
    575               printf("\n%02d:%02d:%02d",hours,minutes,seconds);
   \                     ??CrossCallReturnLabel_45:
   \   000160 89                    PUSHW     X
   \   000161 C60000                LD        A, L:minutes
   \   000164 97                    LD        XL, A
   \   000165 89                    PUSHW     X
   \   000166 C60000                LD        A, L:hours
   \   000169 97                    LD        XL, A
   \   00016A 89                    PUSHW     X
   \   00016B AE0000                LDW       X, #`?<Constant "\\n%02d:%02d:%02d">`
   \   00016E 8D000000              CALLF     printf
   \   000172 5B06                  ADD       SP, #0x6
    576                 seconds=adj(0,59,seconds);
   \   000174 C60000                LD        A, L:seconds
   \   000177 8D000000              CALLF     ?Subroutine25
    577              } while (!key_ok_on());
   \                     ??CrossCallReturnLabel_158:
   \   00017B C70000                LD        L:seconds, A
   \   00017E 8D000000              CALLF     ?Subroutine27
   \                     ??CrossCallReturnLabel_83:
   \   000182 27D8                  JREQ      L:??Set_Clock_6
    578          
    579                // Set parameter to DS1307 + time byte
    580                Set_DS1307();
   \   000184 8D000000              CALLF     Set_DS1307
    581          
    582                //bool k=Check_DS1307();
    583          
    584            return TRUE;
   \   000188 A601                  LD        A, #0x1
   \   00018A 87                    RETF
    585          }

   \                                 In section .far_func.text, align 1, keep-with-next
   \                     ?Subroutine25:
   \   000000 B700                  LD        S:?b1, A
   \   000002 353B0000              MOV       S:?b0, #0x3b
   \   000006                       REQUIRE ??Subroutine48_0
   \   000006                       ;               // Fall through to label ??Subroutine48_0

   \                                 In section .far_func.text, align 1, keep-with-next
   \                     ??Subroutine48_0:
   \   000000 4F                    CLR       A
   \   000001 AC000000              JPF       adj

   \                                 In section .far_func.text, align 1, keep-with-next
   \                     ?Subroutine17:
   \   000000 35010000              MOV       L:line_lcd, #0x1
   \   000004 C60000                LD        A, L:`date`
   \   000007 5F                    CLRW      X
   \   000008 97                    LD        XL, A
   \   000009 87                    RETF

   \                                 In section .far_func.text, align 1, keep-with-next
   \                     ?Subroutine12:
   \   000000 8D000000              CALLF     ?Subroutine40
   \                     ??CrossCallReturnLabel_117:
   \   000004 AE03E8                LDW       X, #0x3e8
   \   000007 8D000000              CALLF     Delay1
   \   00000B 725F0000              CLR       L:line_lcd
   \   00000F 87                    RETF
    586          
    587          

   \                                 In section .far_func.text, align 1, keep-with-next
    588          u8 adj(u8 min,u8 max,u8 now)
    589          {
   \                     adj:
   \   000000 8D000000              CALLF     L:?push_w4
   \   000004 3B0000                PUSH      S:?b10
   \   000007 B700                  LD        S:?b10, A
   \   000009 450000                MOV       S:?b8, S:?b0
   \   00000C 450000                MOV       S:?b9, S:?b1
    590             u8 adj=now;
    591             if (key_plus_on()) adj ++;
   \   00000F 8D000000              CALLF     key_plus_on
   \   000013 A100                  CP        A, #0x0
   \   000015 2705                  JREQ      L:??adj_0
   \   000017 B600                  LD        A, S:?b9
   \   000019 4C                    INC       A
   \   00001A B700                  LD        S:?b9, A
    592             if (adj >max) adj = min;
   \                     ??adj_0:
   \   00001C B600                  LD        A, S:?b8
   \   00001E B100                  CP        A, S:?b9
   \   000020 2403                  JRNC      L:??adj_1
   \   000022 450000                MOV       S:?b9, S:?b10
    593             if (key_minus_on()) adj --;
   \                     ??adj_1:
   \   000025 8D000000              CALLF     key_minus_on
   \   000029 A100                  CP        A, #0x0
   \   00002B 2705                  JREQ      L:??adj_2
   \   00002D B600                  LD        A, S:?b9
   \   00002F 4A                    DEC       A
   \   000030 B700                  LD        S:?b9, A
    594             if ( adj == 255) adj=max;
   \                     ??adj_2:
   \   000032 B600                  LD        A, S:?b9
   \   000034 A1FF                  CP        A, #0xff
   \   000036 2603                  JRNE      L:??adj_3
   \   000038 450000                MOV       S:?b9, S:?b8
    595             if (adj < min) adj=max;
   \                     ??adj_3:
   \   00003B B600                  LD        A, S:?b9
   \   00003D B100                  CP        A, S:?b10
   \   00003F 2403                  JRNC      L:??adj_4
   \   000041 450000                MOV       S:?b9, S:?b8
    596             return adj ;
   \                     ??adj_4:
   \   000044 B600                  LD        A, S:?b9
   \   000046 320000                POP       S:?b10
   \   000049 AC000000              JPF       L:?epilogue_w4
    597          }
    598          
    599          

   \                                 In section .far_func.text, align 1, keep-with-next
    600          bool key_ok_on()
    601          {
    602            //Read Key OK
    603            if (!(GPIO_ReadInputData(GPIOF)& key_ok))
   \                     key_ok_on:
   \   000000 8D000000              CALLF     ?Subroutine42
   \                     ??CrossCallReturnLabel_125:
   \   000004 A510                  BCP       A, #0x10
   \   000006 261F                  JRNE      L:??key_ok_on_0
    604             {
    605               timer2=0;  // Key must be push for timer2 time
   \   000008 5F                    CLRW      X
   \   000009 CF0000                LDW       L:timer2, X
    606                while((timer2 < key_time_ok) && !(GPIO_ReadInputData(GPIOF)& key_ok) );;
   \                     ??key_ok_on_1:
   \   00000C CE0000                LDW       X, L:timer2
   \   00000F A33A98                CPW       X, #0x3a98
   \   000012 2408                  JRNC      L:??key_ok_on_2
   \   000014 8D000000              CALLF     ?Subroutine42
   \                     ??CrossCallReturnLabel_124:
   \   000018 A510                  BCP       A, #0x10
   \   00001A 27F0                  JREQ      L:??key_ok_on_1
    607                  if (timer2>=key_time_ok) return TRUE;
   \                     ??key_ok_on_2:
   \   00001C CE0000                LDW       X, L:timer2
   \   00001F A33A98                CPW       X, #0x3a98
   \   000022 2503                  JRC       L:??key_ok_on_0
   \   000024 A601                  LD        A, #0x1
   \   000026 87                    RETF
    608             }
    609          
    610            return FALSE;
   \                     ??key_ok_on_0:
   \   000027 4F                    CLR       A
   \   000028 87                    RETF
    611          }

   \                                 In section .far_func.text, align 1, keep-with-next
   \                     ?Subroutine42:
   \   000000 AE5019                LDW       X, #0x5019
   \   000003 AC000000              JPF       GPIO_ReadInputData
    612          

   \                                 In section .far_func.text, align 1, keep-with-next
    613           bool key_plus_on()
    614          {
    615            //Read Key OK
    616              if (!(GPIO_ReadInputData(GPIOA)& key_plus))
   \                     key_plus_on:
   \   000000 8D000000              CALLF     ?Subroutine24
   \                     ??CrossCallReturnLabel_66:
   \   000004 A502                  BCP       A, #0x2
   \   000006 261B                  JRNE      L:??key_plus_on_0
    617               {
    618               timer2=0;  // Key must be push for timer2 time
   \   000008 5F                    CLRW      X
   \   000009 CF0000                LDW       L:timer2, X
    619                while((timer2 < key_time) && !(GPIO_ReadInputData(GPIOA)& key_plus) );;
   \                     ??key_plus_on_1:
   \   00000C 8D000000              CALLF     ?Subroutine9
   \                     ??CrossCallReturnLabel_22:
   \   000010 2408                  JRNC      L:??key_plus_on_2
   \   000012 8D000000              CALLF     ?Subroutine24
   \                     ??CrossCallReturnLabel_65:
   \   000016 A502                  BCP       A, #0x2
   \   000018 27F2                  JREQ      L:??key_plus_on_1
    620                  if (timer2>=key_time) return TRUE;
   \                     ??key_plus_on_2:
   \   00001A 8D000000              CALLF     ?Subroutine9
   \                     ??CrossCallReturnLabel_23:
   \   00001E 2503                  JRC       L:??key_plus_on_0
   \   000020 A601                  LD        A, #0x1
   \   000022 87                    RETF
    621               }
    622          
    623            return FALSE;
   \                     ??key_plus_on_0:
   \   000023 4F                    CLR       A
   \   000024 87                    RETF
    624          }

   \                                 In section .far_func.text, align 1, keep-with-next
   \                     ?Subroutine24:
   \   000000 AE5000                LDW       X, #0x5000
   \   000003 AC000000              JPF       GPIO_ReadInputData

   \                                 In section .far_func.text, align 1, keep-with-next
   \                     ?Subroutine9:
   \   000000 CE0000                LDW       X, L:timer2
   \   000003 A31F40                CPW       X, #0x1f40
   \   000006 87                    RETF
    625          

   \                                 In section .far_func.text, align 1, keep-with-next
    626            bool key_minus_on()
    627          {
    628            //Read Key OK
    629             if (!(GPIO_ReadInputData(GPIOA)& key_minus))
   \                     key_minus_on:
   \   000000 8D000000              CALLF     ?Subroutine24
   \                     ??CrossCallReturnLabel_68:
   \   000004 A504                  BCP       A, #0x4
   \   000006 261B                  JRNE      L:??key_minus_on_0
    630               {
    631               timer2=0;  // Key must be push for timer2 time
   \   000008 5F                    CLRW      X
   \   000009 CF0000                LDW       L:timer2, X
    632                while((timer2 < key_time) && !(GPIO_ReadInputData(GPIOA)& key_minus) );;
   \                     ??key_minus_on_1:
   \   00000C 8D000000              CALLF     ?Subroutine9
   \                     ??CrossCallReturnLabel_20:
   \   000010 2408                  JRNC      L:??key_minus_on_2
   \   000012 8D000000              CALLF     ?Subroutine24
   \                     ??CrossCallReturnLabel_67:
   \   000016 A504                  BCP       A, #0x4
   \   000018 27F2                  JREQ      L:??key_minus_on_1
    633                  if (timer2>=key_time) return TRUE;
   \                     ??key_minus_on_2:
   \   00001A 8D000000              CALLF     ?Subroutine9
   \                     ??CrossCallReturnLabel_21:
   \   00001E 2503                  JRC       L:??key_minus_on_0
   \   000020 A601                  LD        A, #0x1
   \   000022 87                    RETF
    634               }
    635          
    636            return FALSE;
   \                     ??key_minus_on_0:
   \   000023 4F                    CLR       A
   \   000024 87                    RETF
    637          }
    638          
    639          

   \                                 In section .far_func.text, align 1, keep-with-next
    640          bool  key_ok_plus()
    641          {
   \                     key_ok_plus:
   \   000000 3B0000                PUSH      S:?b8
    642            if (!((GPIO_ReadInputData(GPIOF)& key_ok)|(GPIO_ReadInputData(GPIOA)& key_plus)))
   \   000003 8D000000              CALLF     ?Subroutine13
   \                     ??CrossCallReturnLabel_37:
   \   000007 261A                  JRNE      L:??key_ok_plus_0
    643            {
    644                timer2=0;  // Key must be push for timer2 time
   \   000009 5F                    CLRW      X
   \   00000A CF0000                LDW       L:timer2, X
    645                while((timer2 < key_time) && !((GPIO_ReadInputData(GPIOF)& key_ok)|(GPIO_ReadInputData(GPIOA)& key_plus)));;
   \                     ??key_ok_plus_1:
   \   00000D 8D000000              CALLF     ?Subroutine9
   \                     ??CrossCallReturnLabel_24:
   \   000011 2406                  JRNC      L:??key_ok_plus_2
   \   000013 8D000000              CALLF     ?Subroutine13
   \                     ??CrossCallReturnLabel_38:
   \   000017 27F4                  JREQ      L:??key_ok_plus_1
    646                 if (timer2>=key_time) return TRUE;
   \                     ??key_ok_plus_2:
   \   000019 8D000000              CALLF     ?Subroutine9
   \                     ??CrossCallReturnLabel_25:
   \   00001D 2504                  JRC       L:??key_ok_plus_0
   \   00001F A601                  LD        A, #0x1
   \   000021 2001                  JRA       L:??key_ok_plus_3
    647            }
    648          
    649           return FALSE;
   \                     ??key_ok_plus_0:
   \   000023 4F                    CLR       A
   \                     ??key_ok_plus_3:
   \   000024 320000                POP       S:?b8
   \   000027 87                    RETF
    650          }

   \                                 In section .far_func.text, align 1, keep-with-next
   \                     ?Subroutine13:
   \   000000 8D000000              CALLF     ?Subroutine42
   \                     ??CrossCallReturnLabel_123:
   \   000004 B700                  LD        S:?b8, A
   \   000006 AE5000                LDW       X, #0x5000
   \   000009 8D000000              CALLF     GPIO_ReadInputData
   \   00000D A402                  AND       A, #0x2
   \   00000F 88                    PUSH      A
   \   000010 B600                  LD        A, S:?b8
   \   000012 A410                  AND       A, #0x10
   \   000014 B700                  LD        S:?b1, A
   \   000016 84                    POP       A
   \   000017 BA00                  OR        A, S:?b1
   \   000019 87                    RETF
    651          
    652          

   \                                 In section .far_func.text, align 1, keep-with-next
    653          bool Set_Delay_Allarm()
    654          {
    655          
    656             //clr
    657             LCDInstr(0x01);
   \                     Set_Delay_Allarm:
   \   000000 8D000000              CALLF     ?Subroutine12
    658             Delay1(1000);
    659             line_lcd=0;
    660             printf("\nH On:");
   \                     ??CrossCallReturnLabel_28:
   \   000004 AE0000                LDW       X, #`?<Constant "\\nH On:">`
   \   000007 8D000000              CALLF     printf
    661            do
    662              {
    663               line_lcd=1;
   \                     ??Set_Delay_Allarm_0:
   \   00000B 35010000              MOV       L:line_lcd, #0x1
    664               printf("\n%02d:%02d",daily_hour_on,daily_minute_on);
   \   00000F C60000                LD        A, L:daily_minute_on
   \   000012 5F                    CLRW      X
   \   000013 97                    LD        XL, A
   \   000014 89                    PUSHW     X
   \   000015 C60000                LD        A, L:daily_hour_on
   \   000018 97                    LD        XL, A
   \   000019 89                    PUSHW     X
   \   00001A AE0000                LDW       X, #`?<Constant "\\n%02d:%02d">`
   \   00001D 8D000000              CALLF     printf
   \   000021 5B04                  ADD       SP, #0x4
    665                 daily_hour_on=adj(0,23,daily_hour_on);
   \   000023 C60000                LD        A, L:daily_hour_on
   \   000026 B700                  LD        S:?b1, A
   \   000028 35170000              MOV       S:?b0, #0x17
   \   00002C 8D000000              CALLF     ??Subroutine48_0
    666              } while (!key_ok_on());
   \                     ??CrossCallReturnLabel_157:
   \   000030 C70000                LD        L:daily_hour_on, A
   \   000033 8D000000              CALLF     ?Subroutine27
   \                     ??CrossCallReturnLabel_72:
   \   000037 27D2                  JREQ      L:??Set_Delay_Allarm_0
    667          
    668             LCDInstr(0x01);
   \   000039 8D000000              CALLF     ?Subroutine12
    669             Delay1(1000);
    670             line_lcd=0;
    671             printf("\nMin On:");
   \                     ??CrossCallReturnLabel_29:
   \   00003D AE0000                LDW       X, #`?<Constant "\\nMin On:">`
   \   000040 8D000000              CALLF     printf
    672            do
    673              {
    674               line_lcd=1;
   \                     ??Set_Delay_Allarm_1:
   \   000044 35010000              MOV       L:line_lcd, #0x1
    675               printf("\n%02d:%02d",daily_hour_on,daily_minute_on);
   \   000048 C60000                LD        A, L:daily_minute_on
   \   00004B 5F                    CLRW      X
   \   00004C 97                    LD        XL, A
   \   00004D 89                    PUSHW     X
   \   00004E C60000                LD        A, L:daily_hour_on
   \   000051 97                    LD        XL, A
   \   000052 89                    PUSHW     X
   \   000053 AE0000                LDW       X, #`?<Constant "\\n%02d:%02d">`
   \   000056 8D000000              CALLF     printf
   \   00005A 5B04                  ADD       SP, #0x4
    676                 daily_minute_on=adj(0,59,daily_minute_on);
   \   00005C C60000                LD        A, L:daily_minute_on
   \   00005F 8D000000              CALLF     ?Subroutine25
    677              } while (!key_ok_on());
   \                     ??CrossCallReturnLabel_161:
   \   000063 C70000                LD        L:daily_minute_on, A
   \   000066 8D000000              CALLF     ?Subroutine27
   \                     ??CrossCallReturnLabel_73:
   \   00006A 27D8                  JREQ      L:??Set_Delay_Allarm_1
    678          
    679              LCDInstr(0x01);
   \   00006C 8D000000              CALLF     ?Subroutine12
    680              Delay1(1000);
    681              line_lcd=0;
    682              printf("\nH Off:");
   \                     ??CrossCallReturnLabel_30:
   \   000070 AE0000                LDW       X, #`?<Constant "\\nH Off:">`
   \   000073 8D000000              CALLF     printf
    683            do
    684              {
    685               line_lcd=1;
   \                     ??Set_Delay_Allarm_2:
   \   000077 35010000              MOV       L:line_lcd, #0x1
    686               printf("\n%02d:%02d",daily_hour_off,daily_minute_off);
   \   00007B C60000                LD        A, L:daily_minute_off
   \   00007E 5F                    CLRW      X
   \   00007F 97                    LD        XL, A
   \   000080 89                    PUSHW     X
   \   000081 C60000                LD        A, L:daily_hour_off
   \   000084 97                    LD        XL, A
   \   000085 89                    PUSHW     X
   \   000086 AE0000                LDW       X, #`?<Constant "\\n%02d:%02d">`
   \   000089 8D000000              CALLF     printf
   \   00008D 5B04                  ADD       SP, #0x4
    687                 daily_hour_off=adj(0,23,daily_hour_off);
   \   00008F C60000                LD        A, L:daily_hour_off
   \   000092 B700                  LD        S:?b1, A
   \   000094 35170000              MOV       S:?b0, #0x17
   \   000098 8D000000              CALLF     ??Subroutine48_0
    688              } while (!key_ok_on());
   \                     ??CrossCallReturnLabel_156:
   \   00009C C70000                LD        L:daily_hour_off, A
   \   00009F 8D000000              CALLF     ?Subroutine27
   \                     ??CrossCallReturnLabel_74:
   \   0000A3 27D2                  JREQ      L:??Set_Delay_Allarm_2
    689          
    690            LCDInstr(0x01);
   \   0000A5 8D000000              CALLF     ?Subroutine12
    691             Delay1(1000);
    692             line_lcd=0;
    693             printf("\nMin Off:");
   \                     ??CrossCallReturnLabel_31:
   \   0000A9 AE0000                LDW       X, #`?<Constant "\\nMin Off:">`
   \   0000AC 8D000000              CALLF     printf
    694            do
    695              {
    696               line_lcd=1;
   \                     ??Set_Delay_Allarm_3:
   \   0000B0 35010000              MOV       L:line_lcd, #0x1
    697               printf("\n%02d:%02d",daily_hour_off,daily_minute_off);
   \   0000B4 C60000                LD        A, L:daily_minute_off
   \   0000B7 5F                    CLRW      X
   \   0000B8 97                    LD        XL, A
   \   0000B9 89                    PUSHW     X
   \   0000BA C60000                LD        A, L:daily_hour_off
   \   0000BD 97                    LD        XL, A
   \   0000BE 89                    PUSHW     X
   \   0000BF AE0000                LDW       X, #`?<Constant "\\n%02d:%02d">`
   \   0000C2 8D000000              CALLF     printf
   \   0000C6 5B04                  ADD       SP, #0x4
    698                 daily_minute_off=adj(0,59,daily_minute_off);
   \   0000C8 C60000                LD        A, L:daily_minute_off
   \   0000CB 8D000000              CALLF     ?Subroutine25
    699              } while (!key_ok_on());
   \                     ??CrossCallReturnLabel_160:
   \   0000CF C70000                LD        L:daily_minute_off, A
   \   0000D2 8D000000              CALLF     ?Subroutine27
   \                     ??CrossCallReturnLabel_75:
   \   0000D6 27D8                  JREQ      L:??Set_Delay_Allarm_3
    700          
    701               //Computing time_long_on
    702          
    703               u8 hour=daily_hour_on;
   \   0000D8 8D000000              CALLF     ?Subroutine31
    704               u8 minute=daily_minute_on;
    705               daily_long_on=0;
    706               do
    707               {
    708                    daily_long_on++;
   \                     ??CrossCallReturnLabel_97:
   \   0000DC 8D000000              CALLF     ?Subroutine10
    709                    minute++;
    710                    if (minute==60)
   \                     ??CrossCallReturnLabel_27:
   \   0000E0 2607                  JRNE      L:??Set_Delay_Allarm_4
    711                    {
    712                      minute=0;
   \   0000E2 3F00                  CLR       S:?b1
    713                      hour++;
   \   0000E4 B600                  LD        A, S:?b0
   \   0000E6 4C                    INC       A
   \   0000E7 B700                  LD        S:?b0, A
    714                    }
    715                    if(hour==24) hour=0;
   \                     ??Set_Delay_Allarm_4:
   \   0000E9 B600                  LD        A, S:?b0
   \   0000EB A118                  CP        A, #0x18
   \   0000ED 2602                  JRNE      L:??Set_Delay_Allarm_5
   \   0000EF 3F00                  CLR       S:?b0
    716          
    717               } while ( !((hour==daily_hour_off) & (minute==daily_minute_off)));
   \                     ??Set_Delay_Allarm_5:
   \   0000F1 C60000                LD        A, L:daily_hour_off
   \   0000F4 B100                  CP        A, S:?b0
   \   0000F6 26E4                  JRNE      L:??CrossCallReturnLabel_97
   \   0000F8 C60000                LD        A, L:daily_minute_off
   \   0000FB B100                  CP        A, S:?b1
   \   0000FD 26DD                  JRNE      L:??CrossCallReturnLabel_97
    718          
    719                //Display daily_long_on
    720              LCDInstr(0x01);
   \   0000FF 8D000000              CALLF     ?Subroutine12
    721              Delay1(1000);
    722              line_lcd=0;
    723              printf("\nLong :");
   \                     ??CrossCallReturnLabel_32:
   \   000103 AE0000                LDW       X, #`?<Constant "\\nLong :">`
   \   000106 8D000000              CALLF     printf
    724          
    725                do
    726              {
    727               line_lcd=1;
   \                     ??Set_Delay_Allarm_6:
   \   00010A 35010000              MOV       L:line_lcd, #0x1
    728               printf("\n%d",daily_long_on);
   \   00010E 3B0000                PUSH      L:daily_long_on + 1
   \   000111 3B0000                PUSH      L:daily_long_on
   \   000114 AE0000                LDW       X, #`?<Constant "\\n%d">`
   \   000117 8D000000              CALLF     printf
   \   00011B 5B02                  ADD       SP, #0x2
    729                 //daily_long_on=adj(0,1440,daily_long_on);
    730              } while (!key_ok_on());
   \   00011D 8D000000              CALLF     ?Subroutine27
   \                     ??CrossCallReturnLabel_76:
   \   000121 27E7                  JREQ      L:??Set_Delay_Allarm_6
    731          
    732              time_on=daily_hour_on*60+daily_minute_on;
   \   000123 8D000000              CALLF     ?Subroutine1
    733              time_off= daily_hour_off*60+daily_minute_off;
    734              //Save data to eeprom
    735               EEPROM_INIT();
   \                     ??CrossCallReturnLabel_0:
   \   000127 8D000000              CALLF     EEPROM_INIT
    736               FLASH_ProgramByte(EEPROM_ADDR,daily_hour_on);
   \   00012B C60000                LD        A, L:daily_hour_on
   \   00012E AE4000                LDW       X, #0x4000
   \   000131 8D000000              CALLF     ?Subroutine4
    737               FLASH_ProgramByte(EEPROM_ADDR+1,daily_minute_on);
   \                     ??CrossCallReturnLabel_11:
   \   000135 C60000                LD        A, L:daily_minute_on
   \   000138 AE4001                LDW       X, #0x4001
   \   00013B 8D000000              CALLF     ?Subroutine4
    738               FLASH_ProgramByte(EEPROM_ADDR+2,daily_hour_off);
   \                     ??CrossCallReturnLabel_10:
   \   00013F C60000                LD        A, L:daily_hour_off
   \   000142 AE4002                LDW       X, #0x4002
   \   000145 8D000000              CALLF     ?Subroutine4
    739               FLASH_ProgramByte(EEPROM_ADDR+3,daily_minute_off);
   \                     ??CrossCallReturnLabel_9:
   \   000149 C60000                LD        A, L:daily_minute_off
   \   00014C AE4003                LDW       X, #0x4003
   \   00014F 8D000000              CALLF     ?Subroutine4
    740          
    741             return TRUE;
   \                     ??CrossCallReturnLabel_8:
   \   000153 A601                  LD        A, #0x1
   \   000155 87                    RETF
    742          
    743          }

   \                                 In section .far_func.text, align 1, keep-with-next
   \                     ?Subroutine31:
   \   000000 C60000                LD        A, L:daily_hour_on
   \   000003 B700                  LD        S:?b0, A
   \   000005 C60000                LD        A, L:daily_minute_on
   \   000008 B700                  LD        S:?b1, A
   \   00000A 5F                    CLRW      X
   \   00000B CF0000                LDW       L:daily_long_on, X
   \   00000E 87                    RETF

   \                                 In section .far_func.text, align 1, keep-with-next
   \                     ?Subroutine10:
   \   000000 CE0000                LDW       X, L:daily_long_on
   \   000003 5C                    INCW      X
   \   000004 CF0000                LDW       L:daily_long_on, X
   \   000007 B600                  LD        A, S:?b1
   \   000009 4C                    INC       A
   \   00000A B700                  LD        S:?b1, A
   \   00000C A13C                  CP        A, #0x3c
   \   00000E 87                    RETF

   \                                 In section .far_func.text, align 1, keep-with-next
   \                     ?Subroutine4:
   \   000000 BF00                  LDW       S:?w1, X
   \   000002 5F                    CLRW      X
   \   000003 BF00                  LDW       S:?w0, X
   \   000005 AC000000              JPF       FLASH_ProgramByte
    744          

   \                                 In section .far_func.text, align 1, keep-with-next
    745          bool Read_Allarm()
    746          {
    747             daily_hour_on=FLASH_ReadByte(EEPROM_ADDR);
   \                     Read_Allarm:
   \   000000 AE4000                LDW       X, #0x4000
   \   000003 8D000000              CALLF     ?Subroutine3
   \                     ??CrossCallReturnLabel_7:
   \   000007 C70000                LD        L:daily_hour_on, A
    748             daily_minute_on=FLASH_ReadByte(EEPROM_ADDR+1);
   \   00000A AE4001                LDW       X, #0x4001
   \   00000D 8D000000              CALLF     ?Subroutine3
   \                     ??CrossCallReturnLabel_6:
   \   000011 C70000                LD        L:daily_minute_on, A
    749             daily_hour_off=FLASH_ReadByte(EEPROM_ADDR+2);
   \   000014 AE4002                LDW       X, #0x4002
   \   000017 8D000000              CALLF     ?Subroutine3
   \                     ??CrossCallReturnLabel_5:
   \   00001B C70000                LD        L:daily_hour_off, A
    750             daily_minute_off=FLASH_ReadByte(EEPROM_ADDR+3);
   \   00001E AE4003                LDW       X, #0x4003
   \   000021 8D000000              CALLF     ?Subroutine3
   \                     ??CrossCallReturnLabel_4:
   \   000025 C70000                LD        L:daily_minute_off, A
    751               // Computting daily_long_on
    752               u8 hour=daily_hour_on;
   \   000028 8D000000              CALLF     ?Subroutine31
    753               u8 minute=daily_minute_on;
    754               daily_long_on=0;
    755               do
    756               {
    757                    daily_long_on++;
   \                     ??CrossCallReturnLabel_96:
   \   00002C 8D000000              CALLF     ?Subroutine10
    758                    minute++;
    759                    if (minute==60)
   \                     ??CrossCallReturnLabel_26:
   \   000030 2607                  JRNE      L:??Read_Allarm_0
    760                    {
    761                      minute=0;
   \   000032 3F00                  CLR       S:?b1
    762                      hour++;
   \   000034 B600                  LD        A, S:?b0
   \   000036 4C                    INC       A
   \   000037 B700                  LD        S:?b0, A
    763                    }
    764                    if(hour==24) hour=0;
   \                     ??Read_Allarm_0:
   \   000039 B600                  LD        A, S:?b0
   \   00003B A118                  CP        A, #0x18
   \   00003D 2602                  JRNE      L:??Read_Allarm_1
   \   00003F 3F00                  CLR       S:?b0
    765          
    766               } while ( !((hour==daily_hour_off) & (minute==daily_minute_off)));
   \                     ??Read_Allarm_1:
   \   000041 C60000                LD        A, L:daily_hour_off
   \   000044 B100                  CP        A, S:?b0
   \   000046 26E4                  JRNE      L:??CrossCallReturnLabel_96
   \   000048 C60000                LD        A, L:daily_minute_off
   \   00004B B100                  CP        A, S:?b1
   \   00004D 26DD                  JRNE      L:??CrossCallReturnLabel_96
    767          
    768            return TRUE;
   \   00004F A601                  LD        A, #0x1
   \   000051 87                    RETF
    769          }

   \                                 In section .far_func.text, align 1, keep-with-next
   \                     ?Subroutine3:
   \   000000 BF00                  LDW       S:?w1, X
   \   000002 5F                    CLRW      X
   \   000003 BF00                  LDW       S:?w0, X
   \   000005 AC000000              JPF       FLASH_ReadByte
    770          

   \                                 In section .far_func.text, align 1, keep-with-next
    771          void EEPROM_INIT()
    772          {
    773            FLASH_DeInit();
   \                     EEPROM_INIT:
   \   000000 8D000000              CALLF     FLASH_DeInit
    774            FLASH_Unlock(FLASH_MEMTYPE_DATA);
   \   000004 A6F7                  LD        A, #0xf7
   \   000006 8D000000              CALLF     FLASH_Unlock
    775            FLASH_SetProgrammingTime(FLASH_PROGRAMTIME_STANDARD);
   \   00000A 4F                    CLR       A
   \   00000B AC000000              JPF       FLASH_SetProgrammingTime
    776          
    777          
    778          
    779          }
    780          
    781          

   \                                 In section .far_func.text, align 1, keep-with-next
    782          void GpioConfiguration()
    783          {
    784          
    785            GPIO_Init(LCD_PORT,(GPIO_Pin_TypeDef)LCD_GPIO_PIN,GPIO_MODE_OUT_PP_HIGH_FAST);
   \                     GpioConfiguration:
   \   000000 35F00000              MOV       S:?b0, #0xf0
   \   000004 A6FE                  LD        A, #0xfe
   \   000006 AE500A                LDW       X, #0x500a
   \   000009 8D000000              CALLF     GPIO_Init
    786          
    787            // ADC PE6 NEW PB0
    788            GPIO_Init(GPIOB,GPIO_PIN_0,GPIO_MODE_IN_FL_NO_IT);
   \   00000D 3F00                  CLR       S:?b0
   \   00000F A601                  LD        A, #0x1
   \   000011 AE5005                LDW       X, #0x5005
   \   000014 8D000000              CALLF     GPIO_Init
    789          
    790            // PD6/UART2_RX   PD5/UART2_TX  No need to init  PD7 485 R/W;
    791            GPIO_Init(GPIOD,GPIO_PIN_7,GPIO_MODE_OUT_PP_HIGH_FAST);
   \   000018 35F00000              MOV       S:?b0, #0xf0
   \   00001C A680                  LD        A, #0x80
   \   00001E AE500F                LDW       X, #0x500f
   \   000021 8D000000              CALLF     GPIO_Init
    792          
    793            //PD0 Led
    794            GPIO_Init(GPIOD,GPIO_PIN_0,GPIO_MODE_OUT_PP_HIGH_FAST);
   \   000025 35F00000              MOV       S:?b0, #0xf0
   \   000029 A601                  LD        A, #0x1
   \   00002B AE500F                LDW       X, #0x500f
   \   00002E 8D000000              CALLF     ?Subroutine28
    795            //I2C
    796            GPIO_Init(GPIOB,GPIO_PIN_4 ,GPIO_MODE_OUT_OD_HIZ_FAST);
   \                     ??CrossCallReturnLabel_87:
   \   000032 A610                  LD        A, #0x10
   \   000034 AE5005                LDW       X, #0x5005
   \   000037 8D000000              CALLF     ?Subroutine28
    797            GPIO_Init(GPIOB,GPIO_PIN_5 ,GPIO_MODE_OUT_OD_HIZ_FAST);
   \                     ??CrossCallReturnLabel_88:
   \   00003B A620                  LD        A, #0x20
   \   00003D AE5005                LDW       X, #0x5005
   \   000040 8D000000              CALLF     ?Subroutine29
    798            // Remap Pins pb4,pb5  sda,scl ;
    799          
    800             //Init KEY OK,PLUS,MINUS
    801            GPIO_Init(GPIOF,key_ok,GPIO_MODE_IN_PU_NO_IT);
   \                     ??CrossCallReturnLabel_90:
   \   000044 A610                  LD        A, #0x10
   \   000046 AE5019                LDW       X, #0x5019
   \   000049 8D000000              CALLF     ?Subroutine29
    802            GPIO_Init(GPIOA,key_plus,GPIO_MODE_IN_PU_NO_IT);
   \                     ??CrossCallReturnLabel_91:
   \   00004D A602                  LD        A, #0x2
   \   00004F AE5000                LDW       X, #0x5000
   \   000052 8D000000              CALLF     ?Subroutine29
    803            GPIO_Init(GPIOA,key_minus,GPIO_MODE_IN_PU_NO_IT);
   \                     ??CrossCallReturnLabel_92:
   \   000056 A604                  LD        A, #0x4
   \   000058 AE5000                LDW       X, #0x5000
   \   00005B 8D000000              CALLF     ?Subroutine28
    804          
    805            //Init DS18b20 data pin
    806            GPIO_Init(GPIOD,ds18_data,GPIO_MODE_OUT_OD_HIZ_FAST);
   \                     ??CrossCallReturnLabel_89:
   \   00005F A604                  LD        A, #0x4
   \   000061 AE500F                LDW       X, #0x500f
   \   000064 AC000000              JPF       GPIO_Init
    807          
    808          }

   \                                 In section .far_func.text, align 1, keep-with-next
   \                     ?Subroutine29:
   \   000000 8D000000              CALLF     GPIO_Init
   \   000004 35400000              MOV       S:?b0, #0x40
   \   000008 87                    RETF

   \                                 In section .far_func.text, align 1, keep-with-next
   \                     ?Subroutine28:
   \   000000 8D000000              CALLF     GPIO_Init
   \   000004 35B00000              MOV       S:?b0, #0xb0
   \   000008 87                    RETF
    809          

   \                                 In section .far_func.text, align 1, keep-with-next
    810          void InitClk()
    811          {
    812            CLK_DeInit();
   \                     InitClk:
   \   000000 8D000000              CALLF     CLK_DeInit
    813            CLK_SYSCLKConfig(CLK_PRESCALER_CPUDIV1);    // CPU Prescalar = 1.
   \   000004 A680                  LD        A, #0x80
   \   000006 8D000000              CALLF     CLK_SYSCLKConfig
    814            CLK_SYSCLKConfig(CLK_PRESCALER_HSIDIV1);    // Prescalar = 1, 16 MHz.
   \   00000A 4F                    CLR       A
   \   00000B 8D000000              CALLF     CLK_SYSCLKConfig
    815            CLK_ClockSwitchConfig(CLK_SWITCHMODE_AUTO,  // Automatically switch
    816            CLK_SOURCE_HSI,       // Switch to internal timer.
    817            DISABLE,              // Disable the clock switch interrupt.
    818            CLK_CURRENTCLOCKSTATE_DISABLE);   // Disable the previous clock.
   \   00000F 3F00                  CLR       S:?b2
   \   000011 3F00                  CLR       S:?b1
   \   000013 35E10000              MOV       S:?b0, #0xe1
   \   000017 A601                  LD        A, #0x1
   \   000019 8D000000              CALLF     CLK_ClockSwitchConfig
    819          
    820            CLK_PeripheralClockConfig(CLK_PERIPHERAL_TIMER2 , ENABLE);
   \   00001D 35010000              MOV       S:?b0, #0x1
   \   000021 A605                  LD        A, #0x5
   \   000023 8D000000              CALLF     ?Subroutine30
    821            CLK_PeripheralClockConfig(CLK_PERIPHERAL_UART2,ENABLE);
   \                     ??CrossCallReturnLabel_93:
   \   000027 A603                  LD        A, #0x3
   \   000029 8D000000              CALLF     ?Subroutine30
    822            CLK_PeripheralClockConfig(CLK_PERIPHERAL_ADC,ENABLE);
   \                     ??CrossCallReturnLabel_94:
   \   00002D A613                  LD        A, #0x13
   \   00002F 8D000000              CALLF     ?Subroutine30
    823            CLK_PeripheralClockConfig(CLK_PERIPHERAL_I2C,ENABLE);
   \                     ??CrossCallReturnLabel_95:
   \   000033 4F                    CLR       A
   \   000034 AC000000              JPF       CLK_PeripheralClockConfig
    824          
    825          
    826          }

   \                                 In section .far_func.text, align 1, keep-with-next
   \                     ?Subroutine30:
   \   000000 8D000000              CALLF     CLK_PeripheralClockConfig
   \   000004 35010000              MOV       S:?b0, #0x1
   \   000008 87                    RETF
    827          
    828          

   \                                 In section .far_func.text, align 1, keep-with-next
    829          void InitAdc()
    830          {
    831               ADC1_DeInit();
   \                     InitAdc:
   \   000000 8D000000              CALLF     ADC1_DeInit
    832               ADC1_StartConversion();
   \   000004 8D000000              CALLF     ADC1_StartConversion
    833               /*
    834               ADC1_Init(ADC1_CONVERSIONMODE_SINGLE,
    835                          ADC1_CHANNEL_0,
    836                          ADC1_PRESSEL_FCPU_D4,
    837                           ADC1_EXTTRIG_TIM,
    838          
    839                 */
    840               ADC1_PrescalerConfig(ADC1_PRESSEL_FCPU_D3);
   \   000008 A610                  LD        A, #0x10
   \   00000A 8D000000              CALLF     ADC1_PrescalerConfig
    841               ADC1_ConversionConfig( ADC1_CONVERSIONMODE_SINGLE,
    842                                      ADC1_CHANNEL_0,
    843                                      ADC1_ALIGN_RIGHT
    844                                     );
   \   00000E 35080000              MOV       S:?b1, #0x8
   \   000012 3F00                  CLR       S:?b0
   \   000014 4F                    CLR       A
   \   000015 8D000000              CALLF     ADC1_ConversionConfig
    845          
    846          
    847               ADC1_SchmittTriggerConfig(ADC1_SCHMITTTRIG_CHANNEL0,DISABLE);
   \   000019 3F00                  CLR       S:?b0
   \   00001B 4F                    CLR       A
   \   00001C 8D000000              CALLF     ADC1_SchmittTriggerConfig
    848          
    849          
    850               //ADC1_Cmd (ENABLE);
    851               //ADC1->CR1 |= ADC1_CR1_ADON ;
    852               ADC1_StartConversion();
   \   000020 8D000000              CALLF     ADC1_StartConversion
    853               ADC1_ITConfig (ADC1_IT_EOCIE,ENABLE);
   \   000024 A601                  LD        A, #0x1
   \   000026 AE0020                LDW       X, #0x20
   \   000029 AC000000              JPF       ADC1_ITConfig
    854          
    855          }
    856          
    857          /*
    858          void InitUart()
    859          {
    860             UART2_DeInit();
    861             UART2_Init((u32)9600,
    862                        UART2_WORDLENGTH_8D,
    863                        UART2_STOPBITS_1,
    864                        UART2_PARITY_NO,
    865                        UART2_SYNCMODE_CLOCK_DISABLE,
    866                        UART2_MODE_TXRX_ENABLE
    867                          );
    868          
    869             UART2_ITConfig( UART2_IT_RXNE,ENABLE);
    870             UART2_Cmd(ENABLE);
    871          
    872            // UART2_ITConfig(UART2_IT_RXNE,ENABLE);
    873          }
    874            */
    875          

   \                                 In section .far_func.text, align 1, keep-with-next
    876          void SendChar( u8 Char)
    877          {
    878             UART2->DR = Char;
   \                     SendChar:
   \   000000 C75241                LD        L:0x5241, A
    879            while (UART2_GetFlagStatus(UART2_FLAG_TXE) == RESET);;
   \                     ??SendChar_0:
   \   000003 AE0080                LDW       X, #0x80
   \   000006 8D000000              CALLF     UART2_GetFlagStatus
   \   00000A A100                  CP        A, #0x0
   \   00000C 27F5                  JREQ      L:??SendChar_0
    880          }
   \   00000E 87                    RETF
    881            /*
    882          void Send_Hello()
    883          {
    884            GPIO_WriteHigh(GPIOD,GPIO_PIN_7); //R_W Line
    885             Delay1(10);
    886             sprintf(data,"Hello");
    887              u8 i=0;
    888            do
    889           {
    890            SendChar(data[i++]);
    891           } while (data[i]!=0);
    892            while (UART2_GetFlagStatus(UART2_FLAG_TC) == RESET);;  //Wait to send last byte
    893            GPIO_WriteLow(GPIOD,GPIO_PIN_7); //R_W Line
    894          
    895          
    896          
    897          }
    898              */
    899          
    900          
    901              /*
    902          
    903          void SendData()
    904          {
    905           GPIO_WriteHigh(GPIOD,GPIO_PIN_7); //R_W Line
    906            Delay1(10);
    907            u8 i=0;
    908            sprintf(data,"%d %c",adcdata,0x0d);
    909           do
    910           {
    911             SendChar(data[i++]);
    912          
    913           } while (data[i]!=0);
    914             while (UART2_GetFlagStatus(UART2_FLAG_TC) == RESET);;  //Wait to send last byte
    915            GPIO_WriteLow(GPIOD,GPIO_PIN_7); //R_W Line
    916            rx_data=0;
    917          }
    918          */
    919          

   \                                 In section .far_func.text, align 1, keep-with-next
    920          void LCDDataOut(u8 data)
    921          {
   \                     LCDDataOut:
   \   000000 3B0000                PUSH      S:?b8
   \   000003 B700                  LD        S:?b8, A
    922            (data&0x1)? GPIO_WriteHigh(LCD_PORT,DATA4):GPIO_WriteLow(LCD_PORT,DATA4);
   \   000005 A501                  BCP       A, #0x1
   \   000007 2708                  JREQ      L:??LCDDataOut_0
   \   000009 A610                  LD        A, #0x10
   \   00000B 8D000000              CALLF     ?Subroutine6
   \                     ??CrossCallReturnLabel_17:
   \   00000F 2006                  JRA       L:??CrossCallReturnLabel_144
   \                     ??LCDDataOut_0:
   \   000011 A610                  LD        A, #0x10
   \   000013 8D000000              CALLF     ??Subroutine47_0
    923            (data&0x2)? GPIO_WriteHigh(LCD_PORT,DATA5):GPIO_WriteLow(LCD_PORT,DATA5);
   \                     ??CrossCallReturnLabel_144:
   \   000017 B600                  LD        A, S:?b8
   \   000019 A502                  BCP       A, #0x2
   \   00001B 2708                  JREQ      L:??LCDDataOut_1
   \   00001D A620                  LD        A, #0x20
   \   00001F 8D000000              CALLF     ?Subroutine6
   \                     ??CrossCallReturnLabel_16:
   \   000023 2006                  JRA       L:??CrossCallReturnLabel_145
   \                     ??LCDDataOut_1:
   \   000025 A620                  LD        A, #0x20
   \   000027 8D000000              CALLF     ??Subroutine47_0
    924            (data&0x4)? GPIO_WriteHigh(LCD_PORT,DATA6):GPIO_WriteLow(LCD_PORT,DATA6);
   \                     ??CrossCallReturnLabel_145:
   \   00002B B600                  LD        A, S:?b8
   \   00002D A504                  BCP       A, #0x4
   \   00002F 2708                  JREQ      L:??LCDDataOut_2
   \   000031 A640                  LD        A, #0x40
   \   000033 8D000000              CALLF     ?Subroutine6
   \                     ??CrossCallReturnLabel_15:
   \   000037 2006                  JRA       L:??CrossCallReturnLabel_146
   \                     ??LCDDataOut_2:
   \   000039 A640                  LD        A, #0x40
   \   00003B 8D000000              CALLF     ??Subroutine47_0
    925            (data&0x8)? GPIO_WriteHigh(LCD_PORT,DATA7):GPIO_WriteLow(LCD_PORT,DATA7);
   \                     ??CrossCallReturnLabel_146:
   \   00003F B600                  LD        A, S:?b8
   \   000041 A508                  BCP       A, #0x8
   \   000043 2708                  JREQ      L:??LCDDataOut_3
   \   000045 A680                  LD        A, #0x80
   \   000047 8D000000              CALLF     ?Subroutine6
   \                     ??CrossCallReturnLabel_14:
   \   00004B 2006                  JRA       L:??CrossCallReturnLabel_147
   \                     ??LCDDataOut_3:
   \   00004D A680                  LD        A, #0x80
   \   00004F 8D000000              CALLF     ??Subroutine47_0
    926          }
   \                     ??CrossCallReturnLabel_147:
   \   000053 320000                POP       S:?b8
   \   000056 87                    RETF

   \                                 In section .far_func.text, align 1, keep-with-next
   \                     ?Subroutine6:
   \   000000 AE500A                LDW       X, #0x500a
   \   000003 AC000000              JPF       GPIO_WriteHigh

   \                                 In section .far_func.text, align 1, keep-with-next
   \                     ??Subroutine47_0:
   \   000000 8D000000              CALLF     ?Subroutine38
   \                     ??CrossCallReturnLabel_153:
   \   000004 87                    RETF

   \                                 In section .far_func.text, align 1, keep-with-next
   \                     ?Subroutine38:
   \   000000 AE500A                LDW       X, #0x500a
   \   000003 AC000000              JPF       GPIO_WriteLow
    927          

   \                                 In section .far_func.text, align 1, keep-with-next
   \                     ?Subroutine8:
   \   000000 A604                  LD        A, #0x4
   \   000002                       REQUIRE ??Subroutine47_0
   \   000002                       ;               // Fall through to label ??Subroutine47_0

   \                                 In section .far_func.text, align 1, keep-with-next
    928          void InitLcd()
    929          {
    930           LCD_EN(0);
   \                     InitLcd:
   \   000000 A608                  LD        A, #0x8
   \   000002 8D000000              CALLF     ?Subroutine7
    931            LCD_RW(0);
    932            LCD_RS(0);
   \                     ??CrossCallReturnLabel_19:
   \   000006 8D000000              CALLF     ?Subroutine8
    933            Delay1(4000); // 40ms
   \                     ??CrossCallReturnLabel_142:
   \   00000A AE0FA0                LDW       X, #0xfa0
   \   00000D 8D000000              CALLF     ?Subroutine14
    934          
    935            LCDInstrNibble(0x03);
    936             Delay1(10);
    937            LCDInstrNibble(0x03);
   \                     ??CrossCallReturnLabel_40:
   \   000011 A603                  LD        A, #0x3
   \   000013 8D000000              CALLF     LCDInstrNibble
    938             Delay1(10);
   \   000017 AE000A                LDW       X, #0xa
   \   00001A 8D000000              CALLF     ?Subroutine14
    939            LCDInstrNibble(0x03);
    940             Delay1(10);
    941          
    942             //Line 4
    943            LCDInstrNibble(0x02);
   \                     ??CrossCallReturnLabel_39:
   \   00001E A602                  LD        A, #0x2
   \   000020 8D000000              CALLF     LCDInstrNibble
    944            LCDInstrNibble(0x02);
   \   000024 A602                  LD        A, #0x2
   \   000026 8D000000              CALLF     LCDInstrNibble
    945            LCDInstrNibble(0x08);
   \   00002A A608                  LD        A, #0x8
   \   00002C 8D000000              CALLF     LCDInstrNibble
    946            Delay1(100);
   \   000030 AE0064                LDW       X, #0x64
   \   000033 8D000000              CALLF     Delay1
    947          
    948            LCDInstr(0x0C);
   \   000037 A60C                  LD        A, #0xc
   \   000039 8D000000              CALLF     LCDInstr
    949            Delay1(10);
   \   00003D AE000A                LDW       X, #0xa
   \   000040 8D000000              CALLF     Delay1
    950          
    951            LCDInstr(0x01) ;
   \   000044 8D000000              CALLF     ?Subroutine40
    952            Delay1(250);
   \                     ??CrossCallReturnLabel_118:
   \   000048 AE00FA                LDW       X, #0xfa
   \   00004B 8D000000              CALLF     Delay1
    953          
    954            LCDInstr(0x06);
   \   00004F A606                  LD        A, #0x6
   \   000051 8D000000              CALLF     LCDInstr
    955            Delay1(10);
   \   000055 AE000A                LDW       X, #0xa
   \   000058 AC000000              JPF       Delay1
    956          
    957          
    958          }

   \                                 In section .far_func.text, align 1, keep-with-next
   \                     ?Subroutine14:
   \   000000 8D000000              CALLF     Delay1
   \   000004 A603                  LD        A, #0x3
   \   000006 8D000000              CALLF     LCDInstrNibble
   \   00000A AE000A                LDW       X, #0xa
   \   00000D AC000000              JPF       Delay1

   \                                 In section .far_func.text, align 1, keep-with-next
   \                     ?Subroutine7:
   \   000000 8D000000              CALLF     ?Subroutine38
   \                     ??CrossCallReturnLabel_151:
   \   000004 A602                  LD        A, #0x2
   \   000006 8D000000              CALLF     ?Subroutine38
   \                     ??CrossCallReturnLabel_150:
   \   00000A 87                    RETF
    959          

   \                                 In section .far_func.text, align 1, keep-with-next
   \                     ?Subroutine0:
   \   000000 A602                  LD        A, #0x2
   \   000002 8D000000              CALLF     ??Subroutine47_0
   \                     ??CrossCallReturnLabel_148:
   \   000006 B600                  LD        A, S:?b8
   \   000008 4E                    SWAP      A
   \   000009 8D000000              CALLF     ?Subroutine18
   \                     ??CrossCallReturnLabel_130:
   \   00000D                       REQUIRE ??Subroutine44_0
   \   00000D                       ;               // Fall through to label ??Subroutine44_0

   \                                 In section .far_func.text, align 1, keep-with-next
   \                     ??Subroutine44_0:
   \   000000 B600                  LD        A, S:?b8
   \   000002 8D000000              CALLF     ?Subroutine18
   \                     ??CrossCallReturnLabel_129:
   \   000006 320000                POP       S:?b8
   \   000009 87                    RETF

   \                                 In section .far_func.text, align 1, keep-with-next
   \                     ?Subroutine18:
   \   000000 A40F                  AND       A, #0xf
   \   000002 8D000000              CALLF     LCDDataOut
   \   000006 AC000000              JPF       PulseEnable

   \                                 In section .far_func.text, align 1, keep-with-next
    960          void LCDInstr(u8 Instr)
    961          {
   \                     LCDInstr:
   \   000000 3B0000                PUSH      S:?b8
   \   000003 B700                  LD        S:?b8, A
    962            LCD_RS(0);
   \   000005 8D000000              CALLF     ?Subroutine8
    963            LCD_RW(0);
   \                     ??CrossCallReturnLabel_140:
   \   000009 2000                  JRA       ?Subroutine0
    964            LCDDataOut(Instr>>4);
    965            PulseEnable();
    966            LCDDataOut(Instr & 0x0F);
    967            PulseEnable();
    968          }
    969          

   \                                 In section .far_func.text, align 1, keep-with-next
    970          void LCDData(u8 Data)
    971          {
   \                     LCDData:
   \   000000 3B0000                PUSH      S:?b8
   \   000003 B700                  LD        S:?b8, A
    972            LCD_RS(1);
   \   000005 A604                  LD        A, #0x4
   \   000007 8D000000              CALLF     ?Subroutine6
    973            LCD_RW(0);
   \                     ??CrossCallReturnLabel_13:
   \   00000B                       REQUIRE ?Subroutine0
   \   00000B                       ;               // Fall through to label ?Subroutine0
    974            LCDDataOut(Data>>4);
    975            PulseEnable() ;
    976            LCDDataOut(Data & 0x0F) ;
    977            PulseEnable();
    978          }
    979          

   \                                 In section .far_func.text, align 1, keep-with-next
    980          void LCDInstrNibble(u8 Instr)
    981          {
   \                     LCDInstrNibble:
   \   000000 3B0000                PUSH      S:?b8
   \   000003 B700                  LD        S:?b8, A
    982            LCD_RS(0);
   \   000005 A604                  LD        A, #0x4
   \   000007 8D000000              CALLF     ?Subroutine7
    983            LCD_RW(0);
    984            LCDDataOut(Instr & 0x0F);
   \                     ??CrossCallReturnLabel_18:
   \   00000B AC000000              JPF       ??Subroutine44_0
    985            PulseEnable();
    986          }
    987          

   \                                 In section .far_func.text, align 1, keep-with-next
    988          void PulseEnable(void)
    989          {
    990            LCD_EN(0);
   \                     PulseEnable:
   \   000000 8D000000              CALLF     ?Subroutine2
    991             Delay1(1);
    992            LCD_EN(1);
    993             Delay1(1);
    994            LCD_EN(0);
   \                     ??CrossCallReturnLabel_3:
   \   000004 A608                  LD        A, #0x8
   \   000006 8D000000              CALLF     ??Subroutine47_0
    995             Delay1(1);
   \                     ??CrossCallReturnLabel_143:
   \   00000A 5F                    CLRW      X
   \   00000B 5C                    INCW      X
   \   00000C AC000000              JPF       Delay1
    996          }

   \                                 In section .far_func.text, align 1, keep-with-next
   \                     ?Subroutine2:
   \   000000 A608                  LD        A, #0x8
   \   000002 8D000000              CALLF     ?Subroutine38
   \                     ??CrossCallReturnLabel_152:
   \   000006 5F                    CLRW      X
   \   000007 5C                    INCW      X
   \   000008 8D000000              CALLF     Delay1
   \   00000C A608                  LD        A, #0x8
   \   00000E AE500A                LDW       X, #0x500a
   \   000011 8D000000              CALLF     GPIO_WriteHigh
   \   000015 5F                    CLRW      X
   \   000016 5C                    INCW      X
   \   000017 AC000000              JPF       Delay1
    997          

   \                                 In section .far_func.text, align 1, keep-with-next
    998          void LCD_Busy(void)
    999          {
   1000             //set Port D7 as Input
   1001             GPIO_Init(LCD_PORT,DATA7,GPIO_MODE_IN_PU_NO_IT);
   \                     LCD_Busy:
   \   000000 35400000              MOV       S:?b0, #0x40
   \   000004 A680                  LD        A, #0x80
   \   000006 AE500A                LDW       X, #0x500a
   \   000009 8D000000              CALLF     GPIO_Init
   1002             //Set Read
   1003             LCD_RW(1);
   \   00000D A602                  LD        A, #0x2
   \   00000F 8D000000              CALLF     ?Subroutine6
   1004             LCD_RS(0);
   \                     ??CrossCallReturnLabel_12:
   \   000013 8D000000              CALLF     ?Subroutine8
   1005             // Read Busy Flag
   1006                timer2=0;
   \                     ??CrossCallReturnLabel_141:
   \   000017 5F                    CLRW      X
   \   000018 CF0000                LDW       L:timer2, X
   1007             do
   1008             {
   1009             // Enable set
   1010               LCD_EN(0);
   \                     ??LCD_Busy_0:
   \   00001B 8D000000              CALLF     ?Subroutine2
   1011                Delay1(1);
   1012               LCD_EN(1);
   1013                Delay1(1);
   1014             } while (GPIO_ReadInputPin(LCD_PORT, DATA7));
   \                     ??CrossCallReturnLabel_2:
   \   00001F A680                  LD        A, #0x80
   \   000021 AE500A                LDW       X, #0x500a
   \   000024 8D000000              CALLF     GPIO_ReadInputPin
   \   000028 A100                  CP        A, #0x0
   \   00002A 26EF                  JRNE      L:??LCD_Busy_0
   1015                k=timer2;
   \   00002C CE0000                LDW       X, L:timer2
   \   00002F CF0000                LDW       L:k, X
   1016                //Clear read
   1017              LCD_RW(0);
   \   000032 A602                  LD        A, #0x2
   \   000034 8D000000              CALLF     ??Subroutine47_0
   1018             //set Port D7 as Output
   1019             GPIO_Init(LCD_PORT,DATA7,GPIO_MODE_OUT_PP_HIGH_FAST);
   \                     ??CrossCallReturnLabel_149:
   \   000038 35F00000              MOV       S:?b0, #0xf0
   \   00003C A680                  LD        A, #0x80
   \   00003E AE500A                LDW       X, #0x500a
   \   000041 AC000000              JPF       GPIO_Init
   1020          
   1021          }
   1022          
   1023          

   \                                 In section .far_func.text, align 1, keep-with-next
   1024          void LCD(u8 data)
   1025           {
   \                     LCD:
   \   000000 3B0000                PUSH      S:?b8
   \   000003 B700                  LD        S:?b8, A
   1026             //  static u8 linet=0;
   1027          
   1028          
   1029               if (data =='\n')     //r
   \   000005 A10A                  CP        A, #0xa
   \   000007 265C                  JRNE      L:??CrossCallReturnLabel_132
   1030               {
   1031          
   1032                   switch(line_lcd)
   \   000009 C60000                LD        A, L:line_lcd
   \   00000C 270B                  JREQ      L:??LCD_0
   \   00000E 4A                    DEC       A
   \   00000F 2714                  JREQ      L:??LCD_1
   \   000011 4A                    DEC       A
   \   000012 271D                  JREQ      L:??LCD_2
   \   000014 4A                    DEC       A
   \   000015 2726                  JREQ      L:??LCD_3
   \   000017 202E                  JRA       L:??LCD_4
   1033                   {
   1034                   case 0:
   1035                     LCDInstr(0x80 | 0x00);
   \                     ??LCD_0:
   \   000019 A680                  LD        A, #0x80
   \   00001B 8D000000              CALLF     LCDInstr
   1036                     count=0;
   \   00001F 725F0000              CLR       L:count
   1037                     break;
   \   000023 2022                  JRA       L:??LCD_4
   1038                   case 1:
   1039                     LCDInstr(0x80 | 0x40);
   \                     ??LCD_1:
   \   000025 A6C0                  LD        A, #0xc0
   \   000027 8D000000              CALLF     LCDInstr
   1040                     count=20;
   \   00002B 35140000              MOV       L:count, #0x14
   1041                     break;
   \   00002F 2016                  JRA       L:??LCD_4
   1042                   case 2:
   1043                     LCDInstr(0x80 | 0x14);
   \                     ??LCD_2:
   \   000031 A694                  LD        A, #0x94
   \   000033 8D000000              CALLF     LCDInstr
   1044                     count=40;
   \   000037 35280000              MOV       L:count, #0x28
   1045                     break;
   \   00003B 200A                  JRA       L:??LCD_4
   1046                   case 3:
   1047                     LCDInstr(0x80 | 0x54);
   \                     ??LCD_3:
   \   00003D A6D4                  LD        A, #0xd4
   \   00003F 8D000000              CALLF     LCDInstr
   1048                     count=60;
   \   000043 353C0000              MOV       L:count, #0x3c
   1049                     break;
   1050                   //default:
   1051                    //  LCDInstr(0x80 |0x40);    //Line 1
   1052                    }
   1053                   line_lcd++;
   \                     ??LCD_4:
   \   000047 C60000                LD        A, L:line_lcd
   \   00004A 4C                    INC       A
   \   00004B C70000                LD        L:line_lcd, A
   1054                   if (line_lcd>=5)
   \   00004E A105                  CP        A, #0x5
   \   000050 250F                  JRC       L:??LCD_5
   1055                   {
   1056                    line_lcd=1;   //line >=5
   \   000052 35010000              MOV       L:line_lcd, #0x1
   1057                    LCDInstr(0x01); //Clear LCD
   \   000056 8D000000              CALLF     ?Subroutine40
   1058                    Delay1(2500);
   \                     ??CrossCallReturnLabel_120:
   \   00005A AE09C4                LDW       X, #0x9c4
   \   00005D 8D000000              CALLF     Delay1
   1059                   }
   1060          
   1061                   Delay1(1);
   \                     ??LCD_5:
   \   000061 8D000000              CALLF     ??Subroutine45_0
   1062          
   1063          
   1064               }
   1065          
   1066          
   1067               if (count==20)
   \                     ??CrossCallReturnLabel_132:
   \   000065 C60000                LD        A, L:count
   \   000068 A114                  CP        A, #0x14
   \   00006A 260A                  JRNE      L:??LCD_6
   1068                {
   1069                  LCDInstr(0x80 | 0x40);
   \   00006C A6C0                  LD        A, #0xc0
   \                     ??LCD_7:
   \   00006E 8D000000              CALLF     LCDInstr
   1070                  Delay1(1);
   \                     ??LCD_8:
   \   000072 5F                    CLRW      X
   \   000073 5C                    INCW      X
   \   000074 2027                  JRA       ??LCD_9
   1071                }
   1072                   else if(count==40)
   \                     ??LCD_6:
   \   000076 A128                  CP        A, #0x28
   \   000078 2604                  JRNE      L:??LCD_10
   1073                  {
   1074                    LCDInstr(0x80 | 0x14);
   \   00007A A694                  LD        A, #0x94
   \   00007C 20F0                  JRA       ??LCD_7
   1075                    Delay1(1);
   1076                  }
   1077                    else if(count==60)
   \                     ??LCD_10:
   \   00007E A13C                  CP        A, #0x3c
   \   000080 260C                  JRNE      L:??LCD_11
   1078                    {
   1079                      LCDInstr(0x80 | 0x54);
   \   000082 A6D4                  LD        A, #0xd4
   \   000084 8D000000              CALLF     LCDInstr
   1080                      count=0;
   \   000088 725F0000              CLR       L:count
   1081                      Delay1(1);
   \   00008C 20E4                  JRA       ??LCD_8
   1082                    }
   1083                      else if(count >80)
   \                     ??LCD_11:
   \   00008E A151                  CP        A, #0x51
   \   000090 250F                  JRC       L:??LCD_12
   1084                        {
   1085                          count=0;
   \   000092 725F0000              CLR       L:count
   1086                          LCDInstr(0x01); //Clear LCD
   \   000096 8D000000              CALLF     ?Subroutine40
   1087                          Delay1(250);
   \                     ??CrossCallReturnLabel_119:
   \   00009A AE00FA                LDW       X, #0xfa
   \                     ??LCD_9:
   \   00009D 8D000000              CALLF     Delay1
   1088                        }
   1089          
   1090          
   1091              /*
   1092                   line++;
   1093                   if (line>3)
   1094                   {
   1095                     line=1;  //Line 0 for Time
   1096                   }
   1097                 switch(line)
   1098                   {
   1099                   case 1 :LCDInstr(0x80 | 0x40);break;  //Line 1
   1100                   case 2 :LCDInstr(0x80 | 0x14);break;  //Line 2
   1101                   case 3 :LCDInstr(0x80 | 0x54);break;  //Line 3
   1102                   default : LCDInstr(0x80 | 0x40); // Line 1
   1103                   }
   1104                   Delay(1);
   1105                   count=0;
   1106                }
   1107          
   1108               */
   1109          
   1110               if (data > 0x1b)   //Display only valid data
   \                     ??LCD_12:
   \   0000A1 B600                  LD        A, S:?b8
   \   0000A3 A11C                  CP        A, #0x1c
   \   0000A5 250F                  JRC       L:??LCD_13
   1111               {
   1112                 LCDData(data);
   \   0000A7 8D000000              CALLF     LCDData
   1113                  Delay1(1);
   \   0000AB 8D000000              CALLF     ??Subroutine45_0
   1114                 count++;
   \                     ??CrossCallReturnLabel_131:
   \   0000AF C60000                LD        A, L:count
   \   0000B2 4C                    INC       A
   \   0000B3 C70000                LD        L:count, A
   1115               }
   1116           }
   \                     ??LCD_13:
   \   0000B6 320000                POP       S:?b8
   \   0000B9 87                    RETF

   \                                 In section .far_func.text, align 1, keep-with-next
   \                     ??Subroutine45_0:
   \   000000 5F                    CLRW      X
   \   000001 5C                    INCW      X
   \   000002 AC000000              JPF       Delay1
   1117          

   \                                 In section .far_func.text, align 1, keep-with-next
   1118          void InitDelayTimer()
   1119          {
   1120             //Timer 2 use for Delay  long Delay is 40ms for lcd
   1121             //Tclock 16/8=2Mhz  /20 10us
   1122                 TIM2_DeInit();
   \                     InitDelayTimer:
   \   000000 8D000000              CALLF     TIM2_DeInit
   1123                 TIM2_TimeBaseInit(TIM2_PRESCALER_2,0X0050);
   \   000004 AE0050                LDW       X, #0x50
   \   000007 A601                  LD        A, #0x1
   \   000009 8D000000              CALLF     TIM2_TimeBaseInit
   1124                 //TIM2_PrescalerConfig(TIM2_PRESCALER_1, TIM2_PSCRELOADMODE_IMMEDIATE);
   1125                 TIM2_ITConfig(TIM2_IT_UPDATE, ENABLE);
   \   00000D 35010000              MOV       S:?b0, #0x1
   \   000011 A601                  LD        A, #0x1
   \   000013 8D000000              CALLF     TIM2_ITConfig
   1126            //Enable TIM2
   1127                 TIM2_Cmd(ENABLE);
   \   000017 A601                  LD        A, #0x1
   \   000019 AC000000              JPF       TIM2_Cmd
   1128          
   1129          }
   1130          

   \                                 In section .far_func.text, align 1, keep-with-next
   1131          bool DS18_Write(u8 data)
   1132          {
   \                     DS18_Write:
   \   000000 8D000000              CALLF     L:?push_w4
   \   000004 B700                  LD        S:?b9, A
   1133            for ( u8 i=0;i<7;i++)
   \   000006 3F00                  CLR       S:?b8
   1134            {
   1135             DS18(0);
   \                     ??DS18_Write_0:
   \   000008 8D000000              CALLF     ?Subroutine11
   1136             Delay1(0); //Start time slot 4,5 us
   \                     ??CrossCallReturnLabel_138:
   \   00000C 5F                    CLRW      X
   \   00000D 8D000000              CALLF     Delay1
   1137             if( data & (1<<i)) DS18(1)
   \   000011 5F                    CLRW      X
   \   000012 5C                    INCW      X
   \   000013 B600                  LD        A, S:?b8
   \   000015 8D000000              CALLF     L:?sll16_x_x_a
   \   000019 9F                    LD        A, XL
   \   00001A B500                  BCP       A, S:?b9
   \   00001C 2706                  JREQ      L:??DS18_Write_1
   \   00001E 8D000000              CALLF     ?Subroutine15
   \                     ??CrossCallReturnLabel_41:
   \   000022 2004                  JRA       L:??CrossCallReturnLabel_137
   1138               else DS18(0);
   \                     ??DS18_Write_1:
   \   000024 8D000000              CALLF     ?Subroutine11
   1139             Delay1(2);  // 60us end time slot
   \                     ??CrossCallReturnLabel_137:
   \   000028 AE0002                LDW       X, #0x2
   \   00002B 8D000000              CALLF     Delay1
   1140             DS18(1);
   \   00002F 8D000000              CALLF     ?Subroutine15
   1141             Delay1(0);
   \                     ??CrossCallReturnLabel_42:
   \   000033 5F                    CLRW      X
   \   000034 8D000000              CALLF     Delay1
   1142            }
   \   000038 B600                  LD        A, S:?b8
   \   00003A 4C                    INC       A
   \   00003B B700                  LD        S:?b8, A
   \   00003D A107                  CP        A, #0x7
   \   00003F 25C7                  JRC       L:??DS18_Write_0
   1143            return TRUE;
   \   000041 A601                  LD        A, #0x1
   \   000043 AC000000              JPF       L:?epilogue_w4
   1144          }

   \                                 In section .far_func.text, align 1, keep-with-next
   \                     ?Subroutine15:
   \   000000 8D000000              CALLF     ?Subroutine39
   \                     ??CrossCallReturnLabel_115:
   \   000004 87                    RETF

   \                                 In section .far_func.text, align 1, keep-with-next
   \                     ?Subroutine39:
   \   000000 A604                  LD        A, #0x4
   \   000002 AE500F                LDW       X, #0x500f
   \   000005 AC000000              JPF       GPIO_WriteHigh

   \                                 In section .far_func.text, align 1, keep-with-next
   \                     ?Subroutine11:
   \   000000 A604                  LD        A, #0x4
   \   000002                       REQUIRE ??Subroutine46_0
   \   000002                       ;               // Fall through to label ??Subroutine46_0
   1145          
   1146          

   \                                 In section .far_func.text, align 1, keep-with-next
   1147          u16  DS18_Read()
   1148          {
   \                     DS18_Read:
   \   000000 8D000000              CALLF     L:?push_w4
   \   000004 3B0000                PUSH      S:?b10
   1149            u16 data=0;
   \   000007 3F00                  CLR       S:?b9
   \   000009 3F00                  CLR       S:?b8
   1150          
   1151            for (u8 i=0;i<8;i++)
   \   00000B 3F00                  CLR       S:?b10
   1152            {
   1153              DS18(0);
   \                     ??DS18_Read_0:
   \   00000D 8D000000              CALLF     ?Subroutine11
   1154              Delay1(0); //Start time slot 4,5 us
   \                     ??CrossCallReturnLabel_139:
   \   000011 5F                    CLRW      X
   \   000012 8D000000              CALLF     ?Subroutine5
   1155              DS18(1);
   1156              Delay1(1); // Wait for ds18b20 set bit
   1157              data +=((1<<i)&(GPIO_ReadInputPin(GPIOD, ds18_data)));
   \                     ??CrossCallReturnLabel_134:
   \   000016 8D000000              CALLF     ?Subroutine19
   \                     ??CrossCallReturnLabel_51:
   \   00001A 5F                    CLRW      X
   \   00001B 97                    LD        XL, A
   \   00001C BF00                  LDW       S:?w0, X
   \   00001E 5F                    CLRW      X
   \   00001F 5C                    INCW      X
   \   000020 B600                  LD        A, S:?b10
   \   000022 8D000000              CALLF     L:?sll16_x_x_a
   \   000026 01                    RRWA      X, A
   \   000027 B400                  AND       A, S:?b1
   \   000029 01                    RRWA      X, A
   \   00002A B400                  AND       A, S:?b0
   \   00002C 01                    RRWA      X, A
   \   00002D 72BB0000              ADDW      X, S:?w4
   \   000031 BF00                  LDW       S:?w4, X
   1158              Delay1(2); // Wait 60 us until end of read slot
   \   000033 AE0002                LDW       X, #0x2
   \   000036 8D000000              CALLF     Delay1
   1159          
   1160            }
   \   00003A B600                  LD        A, S:?b10
   \   00003C 4C                    INC       A
   \   00003D B700                  LD        S:?b10, A
   \   00003F A108                  CP        A, #0x8
   \   000041 25CA                  JRC       L:??DS18_Read_0
   1161          
   1162             return data;
   \   000043 BE00                  LDW       X, S:?w4
   \   000045 320000                POP       S:?b10
   \   000048 AC000000              JPF       L:?epilogue_w4
   1163          }

   \                                 In section .far_func.text, align 1, keep-with-next
   \                     ?Subroutine5:
   \   000000 8D000000              CALLF     Delay1
   \   000004 8D000000              CALLF     ?Subroutine39
   \                     ??CrossCallReturnLabel_116:
   \   000008                       REQUIRE ??Subroutine45_0
   \   000008                       ;               // Fall through to label ??Subroutine45_0

   \                                 In section .far_func.text, align 1, keep-with-next
   \                     ?Subroutine19:
   \   000000 A604                  LD        A, #0x4
   \   000002 AE500F                LDW       X, #0x500f
   \   000005 AC000000              JPF       GPIO_ReadInputPin
   1164          

   \                                 In section .far_func.text, align 1, keep-with-next
   1165          bool DS18_Reset()
   1166          {
   1167             //Init Reset Pulse
   1168              DS18(0);
   \                     DS18_Reset:
   \   000000 8D000000              CALLF     ?Subroutine11
   1169              Delay1(25);    //25=524us
   \                     ??CrossCallReturnLabel_136:
   \   000004 AE0019                LDW       X, #0x19
   \   000007 8D000000              CALLF     ?Subroutine5
   1170              DS18(1);
   1171              Delay1(1);
   1172              timer2=0;
   \                     ??CrossCallReturnLabel_133:
   \   00000B 5F                    CLRW      X
   \   00000C CF0000                LDW       L:timer2, X
   1173              while ((timer2 < 10000) && (GPIO_ReadInputPin(GPIOD, ds18_data)));;   //Wait for ack from DS18B20
   \                     ??DS18_Reset_0:
   \   00000F CE0000                LDW       X, L:timer2
   \   000012 A32710                CPW       X, #0x2710
   \   000015 2408                  JRNC      L:??DS18_Reset_1
   \   000017 8D000000              CALLF     ?Subroutine19
   \                     ??CrossCallReturnLabel_50:
   \   00001B A100                  CP        A, #0x0
   \   00001D 26F0                  JRNE      L:??DS18_Reset_0
   1174              if (timer2>=10000) return FALSE;
   \                     ??DS18_Reset_1:
   \   00001F CE0000                LDW       X, L:timer2
   \   000022 A32710                CPW       X, #0x2710
   \   000025 2502                  JRC       L:??DS18_Reset_2
   \   000027 4F                    CLR       A
   \   000028 87                    RETF
   1175              // Delay1(10);
   1176              return TRUE;
   \                     ??DS18_Reset_2:
   \   000029 A601                  LD        A, #0x1
   \   00002B 87                    RETF
   1177          }
   1178          

   \                                 In section .far_func.text, align 1, keep-with-next
   1179          bool Read_DS18()
   1180          {
   \                     Read_DS18:
   \   000000 8D000000              CALLF     L:?push_w4
   1181          
   1182             //Init Reset Pulse
   1183              if(!DS18_Reset()) return FALSE;
   \   000004 8D000000              CALLF     DS18_Reset
   \   000008 A100                  CP        A, #0x0
   \   00000A 2605                  JRNE      L:??Read_DS18_0
   \                     ??Read_DS18_1:
   \   00000C 4F                    CLR       A
   \   00000D AC000000              JPF       L:?epilogue_w4
   1184             //Skip ROM Command 0xCC
   1185              DS18_Write(0xCC);
   \                     ??Read_DS18_0:
   \   000011 A6CC                  LD        A, #0xcc
   \   000013 8D000000              CALLF     DS18_Write
   1186             //Function command  CONVERT T [44h]
   1187              DS18_Write(0x44);
   \   000017 A644                  LD        A, #0x44
   \   000019 8D000000              CALLF     DS18_Write
   1188              //Wait util end convert
   1189              timer2=0;
   \   00001D 5F                    CLRW      X
   \   00001E CF0000                LDW       L:timer2, X
   1190               while ((timer2 < 10000) && !(DS18_Read()));;
   \                     ??Read_DS18_2:
   \   000021 CE0000                LDW       X, L:timer2
   \   000024 A32710                CPW       X, #0x2710
   \   000027 2407                  JRNC      L:??Read_DS18_3
   \   000029 8D000000              CALLF     DS18_Read
   \   00002D 5D                    TNZW      X
   \   00002E 27F1                  JREQ      L:??Read_DS18_2
   1191                if (timer2>10000) return FALSE;
   \                     ??Read_DS18_3:
   \   000030 CE0000                LDW       X, L:timer2
   \   000033 A32711                CPW       X, #0x2711
   \   000036 24D4                  JRNC      L:??Read_DS18_1
   1192          
   1193              //Init Reset Pulse
   1194              if(!DS18_Reset()) return FALSE;
   \   000038 8D000000              CALLF     DS18_Reset
   \   00003C A100                  CP        A, #0x0
   \   00003E 27CC                  JREQ      L:??Read_DS18_1
   1195              // Skip ROM Command 0xCC
   1196              DS18_Write(0xCC);
   \   000040 A6CC                  LD        A, #0xcc
   \   000042 8D000000              CALLF     DS18_Write
   1197              //Function command READ SCRATCHPAD [BEh]
   1198              DS18_Write(0xBE);
   \   000046 A6BE                  LD        A, #0xbe
   \   000048 8D000000              CALLF     DS18_Write
   1199               u8 temp1=DS18_Read();
   \   00004C 8D000000              CALLF     DS18_Read
   \   000050 BF00                  LDW       S:?w4, X
   1200               u8 temp2=DS18_Read();
   \   000052 8D000000              CALLF     DS18_Read
   1201          
   1202                line_lcd=0;
   \   000056 725F0000              CLR       L:line_lcd
   1203                printf("\n %x,%x",temp1,temp2);
   \   00005A 9F                    LD        A, XL
   \   00005B 5F                    CLRW      X
   \   00005C 97                    LD        XL, A
   \   00005D 89                    PUSHW     X
   \   00005E B600                  LD        A, S:?b9
   \   000060 41                    EXG       A, XL
   \   000061 89                    PUSHW     X
   \   000062 AE0000                LDW       X, #`?<Constant "\\n %x,%x">`
   \   000065 8D000000              CALLF     printf
   \   000069 5B04                  ADD       SP, #0x4
   1204                  while (!key_ok_on());
   \                     ??Read_DS18_4:
   \   00006B 8D000000              CALLF     ?Subroutine27
   \                     ??CrossCallReturnLabel_71:
   \   00006F 27FA                  JREQ      L:??Read_DS18_4
   1205          
   1206               //u8 temp3=DS18_Read();
   1207          
   1208          
   1209          
   1210          
   1211          
   1212          
   1213          
   1214          
   1215          
   1216              return TRUE;
   \   000071 A601                  LD        A, #0x1
   \   000073 AC000000              JPF       L:?epilogue_w4
   1217          }
   1218          
   1219           /*
   1220          u16 Average()
   1221          {
   1222           //Find average in measure
   1223            u8 i=0;
   1224            u16 Summa=0;
   1225            do
   1226            {
   1227             Summa+=measure[i++];
   1228            } while ( measure[i]!=0);
   1229             if(i!=0) Summa=Summa/i;
   1230             return Summa;
   1231          }
   1232             */
   1233          

   \                                 In section .far_func.text, align 1, keep-with-next
   1234          PUTCHAR_PROTOTYPE
   1235          {
   \                     fputc:
   \   000000 8D000000              CALLF     L:?push_w4
   \   000004 BF00                  LDW       S:?w4, X
   1236            /* Place your implementation of fputc here */
   1237            /* e.g. write a character to the USART */
   1238                //USART_SendData(USART3, (u8) ch);
   1239               LCD(ch);
   \   000006 B600                  LD        A, S:?b9
   \   000008 8D000000              CALLF     LCD
   1240             /* Loop until the end of transmission */
   1241              //while(USART_GetFlagStatus(USART3, USART_FLAG_TC) == RESET);;
   1242            return ch;
   \   00000C BE00                  LDW       X, S:?w4
   \   00000E AC000000              JPF       L:?epilogue_w4
   1243          }
   1244          
   1245          

   \                                 In section .far_func.text, align 1, keep-with-next
   1246          void Delay1(u16 Delay)
   1247          {
   \                     Delay1:
   \   000000 BF00                  LDW       S:?w0, X
   1248              //1 = 40us,2=60us,3=80us,10=200us, 15=320us,
   1249            timer1=0;
   \   000002 5F                    CLRW      X
   \   000003 CF0000                LDW       L:timer1, X
   1250            while ( timer1 < Delay); ;
   \                     ??Delay1_0:
   \   000006 CE0000                LDW       X, L:timer1
   \   000009 B300                  CPW       X, S:?w0
   \   00000B 25F9                  JRC       L:??Delay1_0
   1251          }
   \   00000D 87                    RETF
   1252          

   \                                 In section .far_func.text, align 1, keep-with-next
   1253           void Delay2(u16 Delay)
   1254          {
   \                     Delay2:
   \   000000 BF00                  LDW       S:?w0, X
   1255            timer2=0;
   \   000002 5F                    CLRW      X
   \   000003 CF0000                LDW       L:timer2, X
   1256            while ( timer2 < Delay); ;
   \                     ??Delay2_0:
   \   000006 CE0000                LDW       X, L:timer2
   \   000009 B300                  CPW       X, S:?w0
   \   00000B 25F9                  JRC       L:??Delay2_0
   1257          }
   \   00000D 87                    RETF
   1258          
   1259          
   1260          
   1261          /*
   1262          void Delay12 (u16 Delay)
   1263          {
   1264            timer2=0;
   1265            while ( timer2 < Delay); ;
   1266          }
   1267          */
   1268          
   1269          
   1270          #ifdef USE_FULL_ASSERT
   1271          
   1272          /**
   1273            * @brief  Reports the name of the source file and the source line number
   1274            *   where the assert_param error has occurred.
   1275            * @param file: pointer to the source file name
   1276            * @param line: assert_param error line source number
   1277            * @retval : None
   1278            */

   \                                 In section .far_func.text, align 1
   1279          void assert_failed(u8* file, u32 line)
   1280          {
   1281            /* User can add his own implementation to report the file name and line number,
   1282               ex: printf("Wrong parameters value: file %s on line %d\r\n", file, line) */
   1283          
   1284            /* Infinite loop */
   1285            while (1)
   \                     assert_failed:
   \                     ??assert_failed_0:
   \   000000 20FE                  JRA       L:??assert_failed_0
   1286            {
   1287          
   1288            }
   1289          }

   \                                 In section .near.rodata, align 1
   \                     `?<Constant "\\nDS_Err_I">`:
   \   000000 0A44535F4572          DC8 "\012DS_Err_I"

   \                                 In section .near.rodata, align 1
   \                     `?<Constant "\\n E2:%d">`:
   \   000000 0A2045323A25          DC8 "\012 E2:%d"

   \                                 In section .near.rodata, align 1
   \                     `?<Constant "\\n E:%d">`:
   \   000000 0A20453A2564          DC8 "\012 E:%d"

   \                                 In section .near.rodata, align 1
   \                     `?<Constant "\\nSetClock">`:
   \   000000 0A536574436C          DC8 "\012SetClock"

   \                                 In section .near.rodata, align 1
   \                     `?<Constant "\\n      ">`:
   \   000000 0A2020202020          DC8 "\012      "

   \                                 In section .near.rodata, align 1
   \                     `?<Constant "\\n%02d:%02d:%02d">`:
   \   000000 0A253032643A          DC8 "\012%02d:%02d:%02d"

   \                                 In section .near.rodata, align 1
   \                     `?<Constant "\\n ON">`:
   \   000000 0A204F4E00            DC8 "\012 ON"

   \                                 In section .near.rodata, align 1
   \                     `?<Constant "\\n OFF">`:
   \   000000 0A204F464600          DC8 "\012 OFF"

   \                                 In section .near.rodata, align 1
   \                     `?<Constant "\\nYears:">`:
   \   000000 0A5965617273          DC8 "\012Years:"

   \                                 In section .near.rodata, align 1
   \                     `?<Constant "\\nMounts:">`:
   \   000000 0A4D6F756E74          DC8 "\012Mounts:"

   \                                 In section .near.rodata, align 1
   \                     `?<Constant "\\nDate:">`:
   \   000000 0A446174653A          DC8 "\012Date:"

   \                                 In section .near.rodata, align 1
   \                     `?<Constant "\\nDays:">`:
   \   000000 0A446179733A          DC8 "\012Days:"

   \                                 In section .near.rodata, align 1
   \                     `?<Constant "\\n%02d">`:
   \   000000 0A2530326400          DC8 "\012%02d"

   \                                 In section .near.rodata, align 1
   \                     `?<Constant "\\nHours:">`:
   \   000000 0A486F757273          DC8 "\012Hours:"

   \                                 In section .near.rodata, align 1
   \                     `?<Constant "\\nMinutes:">`:
   \   000000 0A4D696E7574          DC8 "\012Minutes:"

   \                                 In section .near.rodata, align 1
   \                     `?<Constant "\\nSeconds:">`:
   \   000000 0A5365636F6E          DC8 "\012Seconds:"

   \                                 In section .near.rodata, align 1
   \                     `?<Constant "\\nH On:">`:
   \   000000 0A48204F6E3A          DC8 "\012H On:"

   \                                 In section .near.rodata, align 1
   \                     `?<Constant "\\n%02d:%02d">`:
   \   000000 0A253032643A          DC8 "\012%02d:%02d"

   \                                 In section .near.rodata, align 1
   \                     `?<Constant "\\nMin On:">`:
   \   000000 0A4D696E204F          DC8 "\012Min On:"

   \                                 In section .near.rodata, align 1
   \                     `?<Constant "\\nH Off:">`:
   \   000000 0A48204F6666          DC8 "\012H Off:"

   \                                 In section .near.rodata, align 1
   \                     `?<Constant "\\nMin Off:">`:
   \   000000 0A4D696E204F          DC8 "\012Min Off:"

   \                                 In section .near.rodata, align 1
   \                     `?<Constant "\\nLong :">`:
   \   000000 0A4C6F6E6720          DC8 "\012Long :"

   \                                 In section .near.rodata, align 1
   \                     `?<Constant "\\n%d">`:
   \   000000 0A256400              DC8 "\012%d"

   \                                 In section .near.rodata, align 1
   \                     `?<Constant "\\n %x,%x">`:
   \   000000 0A2025782C25          DC8 "\012 %x,%x"
   1290          #endif
   1291          
   1292          /******************* (C) COPYRIGHT 2011 STMicroelectronics *****END OF FILE****/

   Section sizes:

     Function/Label                 Bytes
     --------------                 -----
     timer1                            2
     timer2                            2
     timeout                           1
     adcdata                           2
     rx_data                           1
     data                             20
     measure                          40
     line_lcd                          1
     count                             1
     seconds                           1
     minutes                           1
     hours                             1
     days                              1
     date                              1
     mounts                            1
     years                             1
     error                             1
     temp_flag                         1
     temp2                             1
     daily_hour_on                     1
     daily_minute_on                   1
     daily_hour_off                    1
     daily_minute_off                  1
     daily_long_on                     2
     time_on                           2
     time_off                          2
     result                            4
     k                                 2
     ??Subroutine46_0                  7
     ?Subroutine27                     7
     main                            339
     ?Subroutine37                     2
     ??Subroutine50_0                 12
     ?Subroutine21                    16
     ?Subroutine16                    10
     ?Subroutine1                     35
     ?Subroutine43                    10
     InitI2C                          38
     I2C_Start                        38
     ?Subroutine36                     7
     I2C_WA                           38
     I2C_RA                           40
     I2C_WD                           36
     I2C_RD                           35
     ?Subroutine35                     1
     ??Subroutine49_0                  7
     ?Subroutine34                     9
     ?Subroutine33                    11
     ReadDS1307                      103
     ?Subroutine26                    11
     ?Subroutine23                     5
     ?Subroutine41                    10
     ?Subroutine22                    13
     ?Subroutine20                     8
     Check_DS1307                     64
     Set_DS1307                      108
     ?Subroutine32                    11
     convert_tobcd                    23
     bcd2hex                          23
     ?Subroutine40                     6
     Set_Clock                       395
     ?Subroutine25                     6
     ??Subroutine48_0                  5
     ?Subroutine17                    10
     ?Subroutine12                    16
     adj                              77
     key_ok_on                        41
     ?Subroutine42                     7
     key_plus_on                      37
     ?Subroutine24                     7
     ?Subroutine9                      7
     key_minus_on                     37
     key_ok_plus                      40
     ?Subroutine13                    26
     Set_Delay_Allarm                342
     ?Subroutine31                    15
     ?Subroutine10                    15
     ?Subroutine4                      9
     Read_Allarm                      82
     ?Subroutine3                      9
     EEPROM_INIT                      15
     GpioConfiguration               104
     ?Subroutine29                     9
     ?Subroutine28                     9
     InitClk                          56
     ?Subroutine30                     9
     InitAdc                          45
     SendChar                         15
     LCDDataOut                       87
     ?Subroutine6                      7
     ??Subroutine47_0                  5
     ?Subroutine38                     7
     ?Subroutine8                      2
     InitLcd                          92
     ?Subroutine14                    17
     ?Subroutine7                     11
     ?Subroutine0                     13
     ??Subroutine44_0                 10
     ?Subroutine18                    10
     LCDInstr                         11
     LCDData                          11
     LCDInstrNibble                   15
     PulseEnable                      16
     ?Subroutine2                     27
     LCD_Busy                         69
     LCD                             186
     ??Subroutine45_0                  6
     InitDelayTimer                   29
     DS18_Write                       71
     ?Subroutine15                     5
     ?Subroutine39                     9
     ?Subroutine11                     2
     DS18_Read                        76
     ?Subroutine5                      8
     ?Subroutine19                     9
     DS18_Reset                       44
     Read_DS18                       119
     fputc                            18
     Delay1                           14
     Delay2                           14
     assert_failed                     2
     ?<Constant "\nDS_Err_I">         10
     ?<Constant "\n E2:%d">            8
     ?<Constant "\n E:%d">             7
     ?<Constant "\nSetClock">         10
     ?<Constant "\n      ">            8
     ?<Constant "\n%02d:%02d:%02d">   16
     ?<Constant "\n ON">               5
     ?<Constant "\n OFF">              6
     ?<Constant "\nYears:">            8
     ?<Constant "\nMounts:">           9
     ?<Constant "\nDate:">             7
     ?<Constant "\nDays:">             7
     ?<Constant "\n%02d">              6
     ?<Constant "\nHours:">            8
     ?<Constant "\nMinutes:">         10
     ?<Constant "\nSeconds:">         10
     ?<Constant "\nH On:">             7
     ?<Constant "\n%02d:%02d">        11
     ?<Constant "\nMin On:">           9
     ?<Constant "\nH Off:">            8
     ?<Constant "\nMin Off:">         10
     ?<Constant "\nLong :">            8
     ?<Constant "\n%d">                4
     ?<Constant "\n %x,%x">            8

 
 3 550 bytes in section .far_func.text
    93 bytes in section .near.bss
     3 bytes in section .near.data
   200 bytes in section .near.rodata
 
 3 550 bytes of CODE  memory
   200 bytes of CONST memory
    96 bytes of DATA  memory

Errors: none
Warnings: none
