###############################################################################
#                                                                             #
# IAR C/C++ Compiler V1.30.1.50036 for STM8             11/Sep/2013  20:03:24 #
# Copyright 2010-2011 IAR Systems AB.                                         #
#                                                                             #
#    Source file  =  C:\Documents and Settings\Administrator\Desktop\stm8s105 #
#                    k-controller\Libraries\STM8S_StdPeriph_Driver\src\stm8s_ #
#                    tim2.c                                                   #
#    Command line =  "C:\Documents and Settings\Administrator\Desktop\stm8s10 #
#                    5k-controller\Libraries\STM8S_StdPeriph_Driver\src\stm8s #
#                    _tim2.c" -e -Ohz --debug --code_model medium             #
#                    --data_model medium -o "C:\Documents and                 #
#                    Settings\Administrator\Desktop\stm8s105k-controller\Proj #
#                    ect\STM8S_StdPeriph_Template\EWSTM8\STM8S105\Obj\"       #
#                    --dlib_config "C:\Program Files\IAR Systems\Embedded     #
#                    Workbench 6.0\stm8\LIB\dlstm8mmf.h" -D STM8S105 -lC      #
#                    "C:\Documents and Settings\Administrator\Desktop\stm8s10 #
#                    5k-controller\Project\STM8S_StdPeriph_Template\EWSTM8\ST #
#                    M8S105\List\" -lA "C:\Documents and                      #
#                    Settings\Administrator\Desktop\stm8s105k-controller\Proj #
#                    ect\STM8S_StdPeriph_Template\EWSTM8\STM8S105\List\" -I   #
#                    "C:\Documents and Settings\Administrator\Desktop\stm8s10 #
#                    5k-controller\Project\STM8S_StdPeriph_Template\EWSTM8\.. #
#                    \" -I "C:\Documents and Settings\Administrator\Desktop\s #
#                    tm8s105k-controller\Project\STM8S_StdPeriph_Template\EWS #
#                    TM8\..\..\..\Libraries\STM8S_StdPeriph_Driver\inc\"      #
#                    --vregs 16                                               #
#    List file    =  C:\Documents and Settings\Administrator\Desktop\stm8s105 #
#                    k-controller\Project\STM8S_StdPeriph_Template\EWSTM8\STM #
#                    8S105\List\stm8s_tim2.lst                                #
#    Object file  =  C:\Documents and Settings\Administrator\Desktop\stm8s105 #
#                    k-controller\Project\STM8S_StdPeriph_Template\EWSTM8\STM #
#                    8S105\Obj\stm8s_tim2.o                                   #
#                                                                             #
#                                                                             #
###############################################################################

C:\Documents and Settings\Administrator\Desktop\stm8s105k-controller\Libraries\STM8S_StdPeriph_Driver\src\stm8s_tim2.c
      1          /**
      2            ******************************************************************************
      3            * @file    stm8s_tim2.c
      4            * @author  MCD Application Team
      5            * @version V2.1.0
      6            * @date    18-November-2011
      7            * @brief   This file contains all the functions for the TIM2 peripheral.
      8            ******************************************************************************
      9            * @attention
     10            *
     11            * THE PRESENT FIRMWARE WHICH IS FOR GUIDANCE ONLY AIMS AT PROVIDING CUSTOMERS
     12            * WITH CODING INFORMATION REGARDING THEIR PRODUCTS IN ORDER FOR THEM TO SAVE
     13            * TIME. AS A RESULT, STMICROELECTRONICS SHALL NOT BE HELD LIABLE FOR ANY
     14            * DIRECT, INDIRECT OR CONSEQUENTIAL DAMAGES WITH RESPECT TO ANY CLAIMS ARISING
     15            * FROM THE CONTENT OF SUCH FIRMWARE AND/OR THE USE MADE BY CUSTOMERS OF THE
     16            * CODING INFORMATION CONTAINED HEREIN IN CONNECTION WITH THEIR PRODUCTS.
     17            *
     18            * <h2><center>&copy; COPYRIGHT 2011 STMicroelectronics</center></h2>
     19            ******************************************************************************
     20            */
     21          
     22          /* Includes ------------------------------------------------------------------*/
     23          #include "stm8s_tim2.h"
     24          
     25          /** @addtogroup STM8S_StdPeriph_Driver
     26            * @{
     27            */
     28          /* Private typedef -----------------------------------------------------------*/
     29          /* Private define ------------------------------------------------------------*/
     30          /* Private macro -------------------------------------------------------------*/
     31          /* Private variables ---------------------------------------------------------*/
     32          /* Private function prototypes -----------------------------------------------*/
     33          static void TI1_Config(uint8_t TIM2_ICPolarity, uint8_t TIM2_ICSelection, uint8_t TIM2_ICFilter);
     34          static void TI2_Config(uint8_t TIM2_ICPolarity, uint8_t TIM2_ICSelection, uint8_t TIM2_ICFilter);
     35          static void TI3_Config(uint8_t TIM2_ICPolarity, uint8_t TIM2_ICSelection, uint8_t TIM2_ICFilter);
     36          /**
     37            * @addtogroup TIM2_Public_Functions
     38            * @{
     39            */
     40          
     41          /**
     42            * @brief  Deinitializes the TIM2 peripheral registers to their default reset values.
     43            * @param  None
     44            * @retval None
     45            */

   \                                 In section .far_func.text, align 1
     46          void TIM2_DeInit(void)
     47          {
     48          
     49              TIM2->CR1 = (uint8_t)TIM2_CR1_RESET_VALUE;
   \                     TIM2_DeInit:
   \   000000 725F5300              CLR       L:0x5300
     50              TIM2->IER = (uint8_t)TIM2_IER_RESET_VALUE;
   \   000004 725F5301              CLR       L:0x5301
     51              TIM2->SR2 = (uint8_t)TIM2_SR2_RESET_VALUE;
   \   000008 725F5303              CLR       L:0x5303
     52          
     53              /* Disable channels */
     54              TIM2->CCER1 = (uint8_t)TIM2_CCER1_RESET_VALUE;
   \   00000C 725F5308              CLR       L:0x5308
     55              TIM2->CCER2 = (uint8_t)TIM2_CCER2_RESET_VALUE;
   \   000010 725F5309              CLR       L:0x5309
     56          
     57          
     58              /* Then reset channel registers: it also works if lock level is equal to 2 or 3 */
     59              TIM2->CCER1 = (uint8_t)TIM2_CCER1_RESET_VALUE;
   \   000014 725F5308              CLR       L:0x5308
     60              TIM2->CCER2 = (uint8_t)TIM2_CCER2_RESET_VALUE;
   \   000018 725F5309              CLR       L:0x5309
     61              TIM2->CCMR1 = (uint8_t)TIM2_CCMR1_RESET_VALUE;
   \   00001C 725F5305              CLR       L:0x5305
     62              TIM2->CCMR2 = (uint8_t)TIM2_CCMR2_RESET_VALUE;
   \   000020 725F5306              CLR       L:0x5306
     63              TIM2->CCMR3 = (uint8_t)TIM2_CCMR3_RESET_VALUE;
   \   000024 725F5307              CLR       L:0x5307
     64              TIM2->CNTRH = (uint8_t)TIM2_CNTRH_RESET_VALUE;
   \   000028 725F530A              CLR       L:0x530a
     65              TIM2->CNTRL = (uint8_t)TIM2_CNTRL_RESET_VALUE;
   \   00002C 725F530B              CLR       L:0x530b
     66              TIM2->PSCR = (uint8_t)TIM2_PSCR_RESET_VALUE;
   \   000030 725F530C              CLR       L:0x530c
     67              TIM2->ARRH  = (uint8_t)TIM2_ARRH_RESET_VALUE;
   \   000034 35FF530D              MOV       L:0x530d, #0xff
     68              TIM2->ARRL  = (uint8_t)TIM2_ARRL_RESET_VALUE;
   \   000038 35FF530E              MOV       L:0x530e, #0xff
     69              TIM2->CCR1H = (uint8_t)TIM2_CCR1H_RESET_VALUE;
   \   00003C 725F530F              CLR       L:0x530f
     70              TIM2->CCR1L = (uint8_t)TIM2_CCR1L_RESET_VALUE;
   \   000040 725F5310              CLR       L:0x5310
     71              TIM2->CCR2H = (uint8_t)TIM2_CCR2H_RESET_VALUE;
   \   000044 725F5311              CLR       L:0x5311
     72              TIM2->CCR2L = (uint8_t)TIM2_CCR2L_RESET_VALUE;
   \   000048 725F5312              CLR       L:0x5312
     73              TIM2->CCR3H = (uint8_t)TIM2_CCR3H_RESET_VALUE;
   \   00004C 725F5313              CLR       L:0x5313
     74              TIM2->CCR3L = (uint8_t)TIM2_CCR3L_RESET_VALUE;
   \   000050 725F5314              CLR       L:0x5314
     75              TIM2->SR1 = (uint8_t)TIM2_SR1_RESET_VALUE;
   \   000054 725F5302              CLR       L:0x5302
     76          }
   \   000058 87                    RETF
     77          
     78          
     79          /**
     80            * @brief  Initializes the TIM2 Time Base Unit according to the specified parameters.
     81            * @param    TIM2_Prescaler specifies the Prescaler from TIM2_Prescaler_TypeDef.
     82            * @param    TIM2_Period specifies the Period value.
     83            * @retval None
     84            */

   \                                 In section .far_func.text, align 1
     85          void TIM2_TimeBaseInit( TIM2_Prescaler_TypeDef TIM2_Prescaler,
     86                                  uint16_t TIM2_Period)
     87          {
   \                     TIM2_TimeBaseInit:
   \   000000 9093                  LDW       Y, X
     88              /* Set the Prescaler value */
     89              TIM2->PSCR = (uint8_t)(TIM2_Prescaler);
   \   000002 C7530C                LD        L:0x530c, A
     90              /* Set the Autoreload value */
     91              TIM2->ARRH = (uint8_t)(TIM2_Period >> 8);
   \   000005 8D000000              CALLF     ?Subroutine9
     92              TIM2->ARRL = (uint8_t)(TIM2_Period);
     93          }
   \                     ??CrossCallReturnLabel_68:
   \   000009 87                    RETF

   \                                 In section .far_func.text, align 1
   \                     ?Subroutine9:
   \   000000 4F                    CLR       A
   \   000001 01                    RRWA      X, A
   \   000002 9F                    LD        A, XL
   \   000003 C7530D                LD        L:0x530d, A
   \   000006 909F                  LD        A, YL
   \   000008 C7530E                LD        L:0x530e, A
   \   00000B 87                    RETF
     94          
     95          
     96          /**
     97            * @brief  Initializes the TIM2 Channel1 according to the specified parameters.
     98            * @param   TIM2_OCMode specifies the Output Compare mode  from @ref TIM2_OCMode_TypeDef.
     99            * @param   TIM2_OutputState specifies the Output State  from @ref TIM2_OutputState_TypeDef.
    100            * @param   TIM2_Pulse specifies the Pulse width  value.
    101            * @param   TIM2_OCPolarity specifies the Output Compare Polarity  from @ref TIM2_OCPolarity_TypeDef.
    102            * @retval None
    103            */

   \                                 In section .far_func.text, align 1, keep-with-next
   \                     ?Subroutine5:
   \   000000 BF00                  LDW       S:?w1, X
   \   000002 5F                    CLRW      X
   \   000003 BF00                  LDW       S:?w0, X
   \   000005 AE0000                LDW       X, #`?<Constant "C:\\\\Documents and Sett...">`
   \   000008 AC000000              JPF       assert_failed

   \                                 In section .far_func.text, align 1
   \                     ?Subroutine6:
   \   000000 B700                  LD        S:?b8, A
   \   000002 450000                MOV       S:?b9, S:?b0
   \   000005 BF00                  LDW       S:?w6, X
   \   000007 450000                MOV       S:?b10, S:?b1
   \   00000A 3D00                  TNZ       S:?b8
   \   00000C 87                    RETF

   \                                 In section .far_func.text, align 1
    104          void TIM2_OC1Init(TIM2_OCMode_TypeDef TIM2_OCMode,
    105                            TIM2_OutputState_TypeDef TIM2_OutputState,
    106                            uint16_t TIM2_Pulse,
    107                            TIM2_OCPolarity_TypeDef TIM2_OCPolarity)
    108          {
   \                     TIM2_OC1Init:
   \   000000 8D000000              CALLF     L:?push_w4
   \   000004 8D000000              CALLF     L:?push_w6
   \   000008 3B0000                PUSH      S:?b10
   \   00000B 8D000000              CALLF     ?Subroutine6
    109              /* Check the parameters */
    110              assert_param(IS_TIM2_OC_MODE_OK(TIM2_OCMode));
   \                     ??CrossCallReturnLabel_62:
   \   00000F 271B                  JREQ      L:??CrossCallReturnLabel_14
   \   000011 A110                  CP        A, #0x10
   \   000013 2717                  JREQ      L:??CrossCallReturnLabel_14
   \   000015 A120                  CP        A, #0x20
   \   000017 2713                  JREQ      L:??CrossCallReturnLabel_14
   \   000019 A130                  CP        A, #0x30
   \   00001B 270F                  JREQ      L:??CrossCallReturnLabel_14
   \   00001D A160                  CP        A, #0x60
   \   00001F 270B                  JREQ      L:??CrossCallReturnLabel_14
   \   000021 A170                  CP        A, #0x70
   \   000023 2707                  JREQ      L:??CrossCallReturnLabel_14
   \   000025 AE006E                LDW       X, #0x6e
   \   000028 8D000000              CALLF     ?Subroutine5
    111              assert_param(IS_TIM2_OUTPUT_STATE_OK(TIM2_OutputState));
   \                     ??CrossCallReturnLabel_14:
   \   00002C 3D00                  TNZ       S:?b9
   \   00002E 270D                  JREQ      L:??CrossCallReturnLabel_13
   \   000030 B600                  LD        A, S:?b9
   \   000032 A111                  CP        A, #0x11
   \   000034 2707                  JREQ      L:??CrossCallReturnLabel_13
   \   000036 AE006F                LDW       X, #0x6f
   \   000039 8D000000              CALLF     ?Subroutine5
    112              assert_param(IS_TIM2_OC_POLARITY_OK(TIM2_OCPolarity));
   \                     ??CrossCallReturnLabel_13:
   \   00003D 3D00                  TNZ       S:?b10
   \   00003F 270D                  JREQ      L:??CrossCallReturnLabel_12
   \   000041 B600                  LD        A, S:?b10
   \   000043 A122                  CP        A, #0x22
   \   000045 2707                  JREQ      L:??CrossCallReturnLabel_12
   \   000047 AE0070                LDW       X, #0x70
   \   00004A 8D000000              CALLF     ?Subroutine5
    113          
    114              /* Disable the Channel 1: Reset the CCE Bit, Set the Output State , the Output Polarity */
    115              TIM2->CCER1 &= (uint8_t)(~( TIM2_CCER1_CC1E | TIM2_CCER1_CC1P));
   \                     ??CrossCallReturnLabel_12:
   \   00004E C65308                LD        A, L:0x5308
   \   000051 A4FC                  AND       A, #0xfc
   \   000053 C75308                LD        L:0x5308, A
    116              /* Set the Output State &  Set the Output Polarity  */
    117              TIM2->CCER1 |= (uint8_t)((uint8_t)(TIM2_OutputState & TIM2_CCER1_CC1E ) | 
    118                                       (uint8_t)(TIM2_OCPolarity & TIM2_CCER1_CC1P));
   \   000056 B600                  LD        A, S:?b10
   \   000058 A402                  AND       A, #0x2
   \   00005A 8D000000              CALLF     ?Subroutine10
   \                     ??CrossCallReturnLabel_70:
   \   00005E CA5308                OR        A, L:0x5308
   \   000061 C75308                LD        L:0x5308, A
    119          
    120              /* Reset the Output Compare Bits  & Set the Ouput Compare Mode */
    121              TIM2->CCMR1 = (uint8_t)((uint8_t)(TIM2->CCMR1 & (uint8_t)(~TIM2_CCMR_OCM)) |
    122                                      (uint8_t)TIM2_OCMode);
   \   000064 8D000000              CALLF     ?Subroutine4
    123          
    124              /* Set the Pulse value */
    125              TIM2->CCR1H = (uint8_t)(TIM2_Pulse >> 8);
   \                     ??CrossCallReturnLabel_11:
   \   000068 BE00                  LDW       X, S:?w6
   \   00006A 4F                    CLR       A
   \   00006B 01                    RRWA      X, A
   \   00006C 9F                    LD        A, XL
   \   00006D C7530F                LD        L:0x530f, A
    126              TIM2->CCR1L = (uint8_t)(TIM2_Pulse);
   \   000070 B600                  LD        A, S:?b13
   \   000072 C75310                LD        L:0x5310, A
    127          }
   \   000075 320000                POP       S:?b10
   \   000078 8D000000              CALLF     L:?pop_w6
   \   00007C AC000000              JPF       L:?epilogue_w4

   \                                 In section .far_func.text, align 1
   \                     ?Subroutine10:
   \   000000 88                    PUSH      A
   \   000001 B600                  LD        A, S:?b9
   \   000003 A401                  AND       A, #0x1
   \   000005 B700                  LD        S:?b1, A
   \   000007 84                    POP       A
   \   000008 BA00                  OR        A, S:?b1
   \   00000A 87                    RETF

   \                                 In section .far_func.text, align 1
   \                     ?Subroutine4:
   \   000000 C65305                LD        A, L:0x5305
   \   000003 A48F                  AND       A, #0x8f
   \   000005 BA00                  OR        A, S:?b8
   \   000007 C75305                LD        L:0x5305, A
   \   00000A 87                    RETF
    128          
    129          
    130          /**
    131            * @brief  Initializes the TIM2 Channel2 according to the specified parameters.
    132            * @param   TIM2_OCMode specifies the Output Compare mode  from @ref TIM2_OCMode_TypeDef.
    133            * @param   TIM2_OutputState specifies the Output State  from @ref TIM2_OutputState_TypeDef.
    134            * @param   TIM2_Pulse specifies the Pulse width  value.
    135            * @param   TIM2_OCPolarity specifies the Output Compare Polarity  from @ref TIM2_OCPolarity_TypeDef.
    136            * @retval None
    137            */

   \                                 In section .far_func.text, align 1
    138          void TIM2_OC2Init(TIM2_OCMode_TypeDef TIM2_OCMode,
    139                            TIM2_OutputState_TypeDef TIM2_OutputState,
    140                            uint16_t TIM2_Pulse,
    141                            TIM2_OCPolarity_TypeDef TIM2_OCPolarity)
    142          {
   \                     TIM2_OC2Init:
   \   000000 8D000000              CALLF     L:?push_w4
   \   000004 8D000000              CALLF     L:?push_w6
   \   000008 3B0000                PUSH      S:?b10
   \   00000B 8D000000              CALLF     ?Subroutine6
    143              /* Check the parameters */
    144              assert_param(IS_TIM2_OC_MODE_OK(TIM2_OCMode));
   \                     ??CrossCallReturnLabel_61:
   \   00000F 271B                  JREQ      L:??CrossCallReturnLabel_17
   \   000011 A110                  CP        A, #0x10
   \   000013 2717                  JREQ      L:??CrossCallReturnLabel_17
   \   000015 A120                  CP        A, #0x20
   \   000017 2713                  JREQ      L:??CrossCallReturnLabel_17
   \   000019 A130                  CP        A, #0x30
   \   00001B 270F                  JREQ      L:??CrossCallReturnLabel_17
   \   00001D A160                  CP        A, #0x60
   \   00001F 270B                  JREQ      L:??CrossCallReturnLabel_17
   \   000021 A170                  CP        A, #0x70
   \   000023 2707                  JREQ      L:??CrossCallReturnLabel_17
   \   000025 AE0090                LDW       X, #0x90
   \   000028 8D000000              CALLF     ?Subroutine5
    145              assert_param(IS_TIM2_OUTPUT_STATE_OK(TIM2_OutputState));
   \                     ??CrossCallReturnLabel_17:
   \   00002C 3D00                  TNZ       S:?b9
   \   00002E 270D                  JREQ      L:??CrossCallReturnLabel_16
   \   000030 B600                  LD        A, S:?b9
   \   000032 A111                  CP        A, #0x11
   \   000034 2707                  JREQ      L:??CrossCallReturnLabel_16
   \   000036 AE0091                LDW       X, #0x91
   \   000039 8D000000              CALLF     ?Subroutine5
    146              assert_param(IS_TIM2_OC_POLARITY_OK(TIM2_OCPolarity));
   \                     ??CrossCallReturnLabel_16:
   \   00003D 3D00                  TNZ       S:?b10
   \   00003F 270D                  JREQ      L:??CrossCallReturnLabel_15
   \   000041 B600                  LD        A, S:?b10
   \   000043 A122                  CP        A, #0x22
   \   000045 2707                  JREQ      L:??CrossCallReturnLabel_15
   \   000047 AE0092                LDW       X, #0x92
   \   00004A 8D000000              CALLF     ?Subroutine5
    147          
    148          
    149              /* Disable the Channel 1: Reset the CCE Bit, Set the Output State, the Output Polarity */
    150              TIM2->CCER1 &= (uint8_t)(~( TIM2_CCER1_CC2E |  TIM2_CCER1_CC2P ));
   \                     ??CrossCallReturnLabel_15:
   \   00004E C65308                LD        A, L:0x5308
   \   000051 A4CF                  AND       A, #0xcf
   \   000053 C75308                LD        L:0x5308, A
    151              /* Set the Output State & Set the Output Polarity */
    152              TIM2->CCER1 |= (uint8_t)((uint8_t)(TIM2_OutputState  & TIM2_CCER1_CC2E ) |
    153                                  (uint8_t)(TIM2_OCPolarity & TIM2_CCER1_CC2P));
   \   000056 B600                  LD        A, S:?b10
   \   000058 A420                  AND       A, #0x20
   \   00005A 88                    PUSH      A
   \   00005B B600                  LD        A, S:?b9
   \   00005D A410                  AND       A, #0x10
   \   00005F B700                  LD        S:?b1, A
   \   000061 84                    POP       A
   \   000062 BA00                  OR        A, S:?b1
   \   000064 CA5308                OR        A, L:0x5308
   \   000067 C75308                LD        L:0x5308, A
    154          
    155          
    156              /* Reset the Output Compare Bits & Set the Output Compare Mode */
    157              TIM2->CCMR2 = (uint8_t)((uint8_t)(TIM2->CCMR2 & (uint8_t)(~TIM2_CCMR_OCM)) | 
    158                                      (uint8_t)TIM2_OCMode);
   \   00006A 8D000000              CALLF     ?Subroutine3
    159          
    160          
    161              /* Set the Pulse value */
    162              TIM2->CCR2H = (uint8_t)(TIM2_Pulse >> 8);
   \                     ??CrossCallReturnLabel_9:
   \   00006E BE00                  LDW       X, S:?w6
   \   000070 4F                    CLR       A
   \   000071 01                    RRWA      X, A
   \   000072 9F                    LD        A, XL
   \   000073 C75311                LD        L:0x5311, A
    163              TIM2->CCR2L = (uint8_t)(TIM2_Pulse);
   \   000076 B600                  LD        A, S:?b13
   \   000078 C75312                LD        L:0x5312, A
    164          }
   \   00007B 320000                POP       S:?b10
   \   00007E 8D000000              CALLF     L:?pop_w6
   \   000082 AC000000              JPF       L:?epilogue_w4

   \                                 In section .far_func.text, align 1
   \                     ?Subroutine3:
   \   000000 C65306                LD        A, L:0x5306
   \   000003 A48F                  AND       A, #0x8f
   \   000005 BA00                  OR        A, S:?b8
   \   000007 C75306                LD        L:0x5306, A
   \   00000A 87                    RETF
    165          
    166          
    167          /**
    168            * @brief  Initializes the TIM2 Channel3 according to the specified parameters.
    169            * @param   TIM2_OCMode specifies the Output Compare mode from @ref TIM2_OCMode_TypeDef.
    170            * @param   TIM2_OutputState specifies the Output State from @ref TIM2_OutputState_TypeDef.
    171            * @param   TIM2_Pulse specifies the Pulse width value.
    172            * @param   TIM2_OCPolarity specifies the Output Compare Polarity  from @ref TIM2_OCPolarity_TypeDef.
    173            * @retval None
    174            */

   \                                 In section .far_func.text, align 1
    175          void TIM2_OC3Init(TIM2_OCMode_TypeDef TIM2_OCMode,
    176                            TIM2_OutputState_TypeDef TIM2_OutputState,
    177                            uint16_t TIM2_Pulse,
    178                            TIM2_OCPolarity_TypeDef TIM2_OCPolarity)
    179          {
   \                     TIM2_OC3Init:
   \   000000 8D000000              CALLF     L:?push_w4
   \   000004 8D000000              CALLF     L:?push_w6
   \   000008 3B0000                PUSH      S:?b10
   \   00000B 8D000000              CALLF     ?Subroutine6
    180              /* Check the parameters */
    181              assert_param(IS_TIM2_OC_MODE_OK(TIM2_OCMode));
   \                     ??CrossCallReturnLabel_60:
   \   00000F 271B                  JREQ      L:??CrossCallReturnLabel_20
   \   000011 A110                  CP        A, #0x10
   \   000013 2717                  JREQ      L:??CrossCallReturnLabel_20
   \   000015 A120                  CP        A, #0x20
   \   000017 2713                  JREQ      L:??CrossCallReturnLabel_20
   \   000019 A130                  CP        A, #0x30
   \   00001B 270F                  JREQ      L:??CrossCallReturnLabel_20
   \   00001D A160                  CP        A, #0x60
   \   00001F 270B                  JREQ      L:??CrossCallReturnLabel_20
   \   000021 A170                  CP        A, #0x70
   \   000023 2707                  JREQ      L:??CrossCallReturnLabel_20
   \   000025 AE00B5                LDW       X, #0xb5
   \   000028 8D000000              CALLF     ?Subroutine5
    182              assert_param(IS_TIM2_OUTPUT_STATE_OK(TIM2_OutputState));
   \                     ??CrossCallReturnLabel_20:
   \   00002C 3D00                  TNZ       S:?b9
   \   00002E 270D                  JREQ      L:??CrossCallReturnLabel_19
   \   000030 B600                  LD        A, S:?b9
   \   000032 A111                  CP        A, #0x11
   \   000034 2707                  JREQ      L:??CrossCallReturnLabel_19
   \   000036 AE00B6                LDW       X, #0xb6
   \   000039 8D000000              CALLF     ?Subroutine5
    183              assert_param(IS_TIM2_OC_POLARITY_OK(TIM2_OCPolarity));
   \                     ??CrossCallReturnLabel_19:
   \   00003D 3D00                  TNZ       S:?b10
   \   00003F 270D                  JREQ      L:??CrossCallReturnLabel_18
   \   000041 B600                  LD        A, S:?b10
   \   000043 A122                  CP        A, #0x22
   \   000045 2707                  JREQ      L:??CrossCallReturnLabel_18
   \   000047 AE00B7                LDW       X, #0xb7
   \   00004A 8D000000              CALLF     ?Subroutine5
    184              /* Disable the Channel 1: Reset the CCE Bit, Set the Output State, the Output Polarity */
    185              TIM2->CCER2 &= (uint8_t)(~( TIM2_CCER2_CC3E  | TIM2_CCER2_CC3P));
   \                     ??CrossCallReturnLabel_18:
   \   00004E C65309                LD        A, L:0x5309
   \   000051 A4FC                  AND       A, #0xfc
   \   000053 C75309                LD        L:0x5309, A
    186              /* Set the Output State & Set the Output Polarity */
    187              TIM2->CCER2 |= (uint8_t)((uint8_t)(TIM2_OutputState & TIM2_CCER2_CC3E) |  
    188                                       (uint8_t)(TIM2_OCPolarity & TIM2_CCER2_CC3P));
   \   000056 B600                  LD        A, S:?b10
   \   000058 A402                  AND       A, #0x2
   \   00005A 8D000000              CALLF     ?Subroutine10
   \                     ??CrossCallReturnLabel_69:
   \   00005E CA5309                OR        A, L:0x5309
   \   000061 C75309                LD        L:0x5309, A
    189          
    190              /* Reset the Output Compare Bits & Set the Output Compare Mode */
    191              TIM2->CCMR3 = (uint8_t)((uint8_t)(TIM2->CCMR3 & (uint8_t)(~TIM2_CCMR_OCM)) |
    192                                      (uint8_t)TIM2_OCMode);
   \   000064 8D000000              CALLF     ?Subroutine2
    193          
    194              /* Set the Pulse value */
    195              TIM2->CCR3H = (uint8_t)(TIM2_Pulse >> 8);
   \                     ??CrossCallReturnLabel_7:
   \   000068 BE00                  LDW       X, S:?w6
   \   00006A 4F                    CLR       A
   \   00006B 01                    RRWA      X, A
   \   00006C 9F                    LD        A, XL
   \   00006D C75313                LD        L:0x5313, A
    196              TIM2->CCR3L = (uint8_t)(TIM2_Pulse);
   \   000070 B600                  LD        A, S:?b13
   \   000072 C75314                LD        L:0x5314, A
    197          
    198          }
   \   000075 320000                POP       S:?b10
   \   000078 8D000000              CALLF     L:?pop_w6
   \   00007C AC000000              JPF       L:?epilogue_w4

   \                                 In section .far_func.text, align 1
   \                     ?Subroutine2:
   \   000000 C65307                LD        A, L:0x5307
   \   000003 A48F                  AND       A, #0x8f
   \   000005 BA00                  OR        A, S:?b8
   \   000007 C75307                LD        L:0x5307, A
   \   00000A 87                    RETF
    199          
    200          
    201          /**
    202            * @brief  Initializes the TIM2 peripheral according to the specified parameters.
    203            * @param    TIM2_Channel specifies the Input Capture Channel from @ref TIM2_Channel_TypeDef.
    204            * @param   TIM2_ICPolarity specifies the Input Capture Polarity from @ref TIM2_ICPolarity_TypeDef.
    205            * @param   TIM2_ICSelection specifies the Input Capture Selection from @ref TIM2_ICSelection_TypeDef.
    206            * @param   TIM2_ICPrescaler specifies the Input Capture Prescaler from @ref TIM2_ICPSC_TypeDef.
    207            * @param   TIM2_ICFilter specifies the Input Capture Filter value (value can be an integer from 0x00 to 0x0F).
    208            * @retval None
    209            */

   \                                 In section .far_func.text, align 1, keep-with-next
    210          void TIM2_ICInit(TIM2_Channel_TypeDef TIM2_Channel,
    211                           TIM2_ICPolarity_TypeDef TIM2_ICPolarity,
    212                           TIM2_ICSelection_TypeDef TIM2_ICSelection,
    213                           TIM2_ICPSC_TypeDef TIM2_ICPrescaler,
    214                           uint8_t TIM2_ICFilter)
    215          {
   \                     TIM2_ICInit:
   \   000000 8D000000              CALLF     L:?push_l2
   \   000004 3B0000                PUSH      S:?b12
   \   000007 8D000000              CALLF     ?Subroutine11
    216              /* Check the parameters */
    217              assert_param(IS_TIM2_CHANNEL_OK(TIM2_Channel));
   \                     ??CrossCallReturnLabel_72:
   \   00000B 270F                  JREQ      L:??CrossCallReturnLabel_25
   \   00000D A101                  CP        A, #0x1
   \   00000F 270B                  JREQ      L:??CrossCallReturnLabel_25
   \   000011 A102                  CP        A, #0x2
   \   000013 2707                  JREQ      L:??CrossCallReturnLabel_25
   \   000015 AE00D9                LDW       X, #0xd9
   \   000018 8D000000              CALLF     ?Subroutine5
    218              assert_param(IS_TIM2_IC_POLARITY_OK(TIM2_ICPolarity));
   \                     ??CrossCallReturnLabel_25:
   \   00001C 3D00                  TNZ       S:?b8
   \   00001E 270D                  JREQ      L:??CrossCallReturnLabel_24
   \   000020 B600                  LD        A, S:?b8
   \   000022 A144                  CP        A, #0x44
   \   000024 2707                  JREQ      L:??CrossCallReturnLabel_24
   \   000026 AE00DA                LDW       X, #0xda
   \   000029 8D000000              CALLF     ?Subroutine5
    219              assert_param(IS_TIM2_IC_SELECTION_OK(TIM2_ICSelection));
   \                     ??CrossCallReturnLabel_24:
   \   00002D B600                  LD        A, S:?b9
   \   00002F A101                  CP        A, #0x1
   \   000031 270F                  JREQ      L:??CrossCallReturnLabel_23
   \   000033 A102                  CP        A, #0x2
   \   000035 270B                  JREQ      L:??CrossCallReturnLabel_23
   \   000037 A103                  CP        A, #0x3
   \   000039 2707                  JREQ      L:??CrossCallReturnLabel_23
   \   00003B AE00DB                LDW       X, #0xdb
   \   00003E 8D000000              CALLF     ?Subroutine5
    220              assert_param(IS_TIM2_IC_PRESCALER_OK(TIM2_ICPrescaler));
   \                     ??CrossCallReturnLabel_23:
   \   000042 3D00                  TNZ       S:?b10
   \   000044 2715                  JREQ      L:??CrossCallReturnLabel_22
   \   000046 B600                  LD        A, S:?b10
   \   000048 A104                  CP        A, #0x4
   \   00004A 270F                  JREQ      L:??CrossCallReturnLabel_22
   \   00004C A108                  CP        A, #0x8
   \   00004E 270B                  JREQ      L:??CrossCallReturnLabel_22
   \   000050 A10C                  CP        A, #0xc
   \   000052 2707                  JREQ      L:??CrossCallReturnLabel_22
   \   000054 AE00DC                LDW       X, #0xdc
   \   000057 8D000000              CALLF     ?Subroutine5
    221              assert_param(IS_TIM2_IC_FILTER_OK(TIM2_ICFilter));
   \                     ??CrossCallReturnLabel_22:
   \   00005B B600                  LD        A, S:?b11
   \   00005D A110                  CP        A, #0x10
   \   00005F 2507                  JRC       L:??CrossCallReturnLabel_21
   \   000061 AE00DD                LDW       X, #0xdd
   \   000064 8D000000              CALLF     ?Subroutine5
    222          
    223              if (TIM2_Channel == TIM2_CHANNEL_1)
   \                     ??CrossCallReturnLabel_21:
   \   000068 3D00                  TNZ       S:?b12
   \   00006A 260C                  JRNE      L:??TIM2_ICInit_0
    224              {
    225                  /* TI1 Configuration */
    226                  TI1_Config((uint8_t)TIM2_ICPolarity,
    227                             (uint8_t)TIM2_ICSelection,
    228                             (uint8_t)TIM2_ICFilter);
   \   00006C 450000                MOV       S:?b1, S:?b11
   \   00006F 450000                MOV       S:?b0, S:?b9
   \   000072 8D000000              CALLF     ?Subroutine7
    229          
    230                  /* Set the Input Capture Prescaler value */
    231                  TIM2_SetIC1Prescaler(TIM2_ICPrescaler);
    232              }
   \                     ??CrossCallReturnLabel_64:
   \   000076 201E                  JRA       L:??TIM2_ICInit_1
    233              else if (TIM2_Channel == TIM2_CHANNEL_2)
   \                     ??TIM2_ICInit_0:
   \   000078 B600                  LD        A, S:?b12
   \   00007A A101                  CP        A, #0x1
   \   00007C 450000                MOV       S:?b1, S:?b11
   \   00007F 450000                MOV       S:?b0, S:?b9
   \   000082 2606                  JRNE      L:??TIM2_ICInit_2
    234              {
    235                  /* TI2 Configuration */
    236                  TI2_Config((uint8_t)TIM2_ICPolarity,
    237                             (uint8_t)TIM2_ICSelection,
    238                             (uint8_t)TIM2_ICFilter);
   \   000084 8D000000              CALLF     ?Subroutine8
    239          
    240                  /* Set the Input Capture Prescaler value */
    241                  TIM2_SetIC2Prescaler(TIM2_ICPrescaler);
    242              }
   \                     ??CrossCallReturnLabel_66:
   \   000088 200C                  JRA       L:??TIM2_ICInit_1
    243              else
    244              {
    245                  /* TI3 Configuration */
    246                  TI3_Config((uint8_t)TIM2_ICPolarity,
    247                             (uint8_t)TIM2_ICSelection,
    248                             (uint8_t)TIM2_ICFilter);
   \                     ??TIM2_ICInit_2:
   \   00008A B600                  LD        A, S:?b8
   \   00008C 8D000000              CALLF     TI3_Config
    249          
    250                  /* Set the Input Capture Prescaler value */
    251                  TIM2_SetIC3Prescaler(TIM2_ICPrescaler);
   \   000090 B600                  LD        A, S:?b10
   \   000092 8D000000              CALLF     TIM2_SetIC3Prescaler
    252              }
    253          }
   \                     ??TIM2_ICInit_1:
   \   000096 320000                POP       S:?b12
   \   000099 AC000000              JPF       L:?epilogue_l2

   \                                 In section .far_func.text, align 1, keep-with-next
   \                     ?Subroutine11:
   \   000000 B700                  LD        S:?b12, A
   \   000002 450000                MOV       S:?b8, S:?b0
   \   000005 450000                MOV       S:?b9, S:?b1
   \   000008 450000                MOV       S:?b10, S:?b2
   \   00000B 450000                MOV       S:?b11, S:?b3
   \   00000E 87                    RETF

   \                                 In section .far_func.text, align 1, keep-with-next
   \                     ?Subroutine8:
   \   000000 B600                  LD        A, S:?b8
   \   000002 8D000000              CALLF     ?Subroutine12
   \                     ??CrossCallReturnLabel_73:
   \   000006 87                    RETF

   \                                 In section .far_func.text, align 1, keep-with-next
   \                     ?Subroutine12:
   \   000000 8D000000              CALLF     TI2_Config
   \   000004 B600                  LD        A, S:?b10
   \   000006 AC000000              JPF       TIM2_SetIC2Prescaler

   \                                 In section .far_func.text, align 1, keep-with-next
   \                     ?Subroutine7:
   \   000000 B600                  LD        A, S:?b8
   \   000002 8D000000              CALLF     ?Subroutine13
   \                     ??CrossCallReturnLabel_75:
   \   000006 87                    RETF

   \                                 In section .far_func.text, align 1
   \                     ?Subroutine13:
   \   000000 8D000000              CALLF     TI1_Config
   \   000004 B600                  LD        A, S:?b10
   \   000006 AC000000              JPF       TIM2_SetIC1Prescaler
    254          
    255          
    256          /**
    257            * @brief  Configures the TIM2 peripheral in PWM Input Mode according to the specified parameters.
    258              * @param    TIM2_Channel specifies the Input Capture Channel from @ref TIM2_Channel_TypeDef.
    259            * @param   TIM2_ICPolarity specifies the Input Capture Polarity from @ref TIM2_ICPolarity_TypeDef.
    260            * @param   TIM2_ICSelection specifies the Input Capture Selection from @ref TIM2_ICSelection_TypeDef.
    261            * @param   TIM2_ICPrescaler specifies the Input Capture Prescaler from @ref TIM2_ICPSC_TypeDef.
    262            * @param   TIM2_ICFilter specifies the Input Capture Filter value (value can be an integer from 0x00 to 0x0F).
    263            * @retval None
    264            */

   \                                 In section .far_func.text, align 1, keep-with-next
    265          void TIM2_PWMIConfig(TIM2_Channel_TypeDef TIM2_Channel,
    266                               TIM2_ICPolarity_TypeDef TIM2_ICPolarity,
    267                               TIM2_ICSelection_TypeDef TIM2_ICSelection,
    268                               TIM2_ICPSC_TypeDef TIM2_ICPrescaler,
    269                               uint8_t TIM2_ICFilter)
    270          {
   \                     TIM2_PWMIConfig:
   \   000000 8D000000              CALLF     L:?push_l2
   \   000004 8D000000              CALLF     L:?push_w6
   \   000008 3B0000                PUSH      S:?b14
   \   00000B 8D000000              CALLF     ?Subroutine11
    271              uint8_t icpolarity = (uint8_t)TIM2_ICPOLARITY_RISING;
    272              uint8_t icselection = (uint8_t)TIM2_ICSELECTION_DIRECTTI;
    273          
    274              /* Check the parameters */
    275              assert_param(IS_TIM2_PWMI_CHANNEL_OK(TIM2_Channel));
   \                     ??CrossCallReturnLabel_71:
   \   00000F 270B                  JREQ      L:??CrossCallReturnLabel_29
   \   000011 A101                  CP        A, #0x1
   \   000013 2707                  JREQ      L:??CrossCallReturnLabel_29
   \   000015 AE0113                LDW       X, #0x113
   \   000018 8D000000              CALLF     ?Subroutine5
    276              assert_param(IS_TIM2_IC_POLARITY_OK(TIM2_ICPolarity));
   \                     ??CrossCallReturnLabel_29:
   \   00001C 3D00                  TNZ       S:?b8
   \   00001E 270D                  JREQ      L:??CrossCallReturnLabel_28
   \   000020 B600                  LD        A, S:?b8
   \   000022 A144                  CP        A, #0x44
   \   000024 2707                  JREQ      L:??CrossCallReturnLabel_28
   \   000026 AE0114                LDW       X, #0x114
   \   000029 8D000000              CALLF     ?Subroutine5
    277              assert_param(IS_TIM2_IC_SELECTION_OK(TIM2_ICSelection));
   \                     ??CrossCallReturnLabel_28:
   \   00002D B600                  LD        A, S:?b9
   \   00002F A101                  CP        A, #0x1
   \   000031 270F                  JREQ      L:??CrossCallReturnLabel_27
   \   000033 A102                  CP        A, #0x2
   \   000035 270B                  JREQ      L:??CrossCallReturnLabel_27
   \   000037 A103                  CP        A, #0x3
   \   000039 2707                  JREQ      L:??CrossCallReturnLabel_27
   \   00003B AE0115                LDW       X, #0x115
   \   00003E 8D000000              CALLF     ?Subroutine5
    278              assert_param(IS_TIM2_IC_PRESCALER_OK(TIM2_ICPrescaler));
   \                     ??CrossCallReturnLabel_27:
   \   000042 3D00                  TNZ       S:?b10
   \   000044 2715                  JREQ      L:??CrossCallReturnLabel_26
   \   000046 B600                  LD        A, S:?b10
   \   000048 A104                  CP        A, #0x4
   \   00004A 270F                  JREQ      L:??CrossCallReturnLabel_26
   \   00004C A108                  CP        A, #0x8
   \   00004E 270B                  JREQ      L:??CrossCallReturnLabel_26
   \   000050 A10C                  CP        A, #0xc
   \   000052 2707                  JREQ      L:??CrossCallReturnLabel_26
   \   000054 AE0116                LDW       X, #0x116
   \   000057 8D000000              CALLF     ?Subroutine5
    279          
    280              /* Select the Opposite Input Polarity */
    281              if (TIM2_ICPolarity != TIM2_ICPOLARITY_FALLING)
   \                     ??CrossCallReturnLabel_26:
   \   00005B B600                  LD        A, S:?b8
   \   00005D A144                  CP        A, #0x44
   \   00005F 2706                  JREQ      L:??TIM2_PWMIConfig_0
    282              {
    283                  icpolarity = (uint8_t)TIM2_ICPOLARITY_FALLING;
   \   000061 35440000              MOV       S:?b14, #0x44
   \   000065 2002                  JRA       L:??TIM2_PWMIConfig_1
    284              }
    285              else
    286              {
    287                  icpolarity = (uint8_t)TIM2_ICPOLARITY_RISING;
   \                     ??TIM2_PWMIConfig_0:
   \   000067 3F00                  CLR       S:?b14
    288              }
    289          
    290              /* Select the Opposite Input */
    291              if (TIM2_ICSelection == TIM2_ICSELECTION_DIRECTTI)
   \                     ??TIM2_PWMIConfig_1:
   \   000069 B600                  LD        A, S:?b9
   \   00006B A101                  CP        A, #0x1
   \   00006D 2606                  JRNE      L:??TIM2_PWMIConfig_2
    292              {
    293                  icselection = (uint8_t)TIM2_ICSELECTION_INDIRECTTI;
   \   00006F 35020000              MOV       S:?b13, #0x2
   \   000073 2004                  JRA       L:??TIM2_PWMIConfig_3
    294              }
    295              else
    296              {
    297                  icselection = (uint8_t)TIM2_ICSELECTION_DIRECTTI;
   \                     ??TIM2_PWMIConfig_2:
   \   000075 35010000              MOV       S:?b13, #0x1
    298              }
    299          
    300              if (TIM2_Channel == TIM2_CHANNEL_1)
   \                     ??TIM2_PWMIConfig_3:
   \   000079 3D00                  TNZ       S:?b12
   \   00007B 450000                MOV       S:?b1, S:?b11
   \   00007E 450000                MOV       S:?b0, S:?b9
   \   000081 2612                  JRNE      L:??TIM2_PWMIConfig_4
    301              {
    302                  /* TI1 Configuration */
    303                  TI1_Config((uint8_t)TIM2_ICPolarity, (uint8_t)TIM2_ICSelection,
    304                             (uint8_t)TIM2_ICFilter);
   \   000083 8D000000              CALLF     ?Subroutine7
    305          
    306                  /* Set the Input Capture Prescaler value */
    307                  TIM2_SetIC1Prescaler(TIM2_ICPrescaler);
    308          
    309                  /* TI2 Configuration */
    310                  TI2_Config(icpolarity, icselection, TIM2_ICFilter);
   \                     ??CrossCallReturnLabel_63:
   \   000087 450000                MOV       S:?b1, S:?b11
   \   00008A 450000                MOV       S:?b0, S:?b13
   \   00008D B600                  LD        A, S:?b14
   \   00008F 8D000000              CALLF     ?Subroutine12
    311          
    312                  /* Set the Input Capture Prescaler value */
    313                  TIM2_SetIC2Prescaler(TIM2_ICPrescaler);
    314              }
   \                     ??CrossCallReturnLabel_74:
   \   000093 2010                  JRA       L:??CrossCallReturnLabel_76
    315              else
    316              {
    317                  /* TI2 Configuration */
    318                  TI2_Config((uint8_t)TIM2_ICPolarity, (uint8_t)TIM2_ICSelection,
    319                             (uint8_t)TIM2_ICFilter);
   \                     ??TIM2_PWMIConfig_4:
   \   000095 8D000000              CALLF     ?Subroutine8
    320          
    321                  /* Set the Input Capture Prescaler value */
    322                  TIM2_SetIC2Prescaler(TIM2_ICPrescaler);
    323          
    324                  /* TI1 Configuration */
    325                  TI1_Config((uint8_t)icpolarity, icselection, (uint8_t)TIM2_ICFilter);
   \                     ??CrossCallReturnLabel_65:
   \   000099 450000                MOV       S:?b1, S:?b11
   \   00009C 450000                MOV       S:?b0, S:?b13
   \   00009F B600                  LD        A, S:?b14
   \   0000A1 8D000000              CALLF     ?Subroutine13
    326          
    327                  /* Set the Input Capture Prescaler value */
    328                  TIM2_SetIC1Prescaler(TIM2_ICPrescaler);
    329              }
    330          }
   \                     ??CrossCallReturnLabel_76:
   \   0000A5 320000                POP       S:?b14
   \   0000A8 AC000000              JPF       L:?epilogue_l2_w6
    331          
    332          
    333          /**
    334            * @brief  Enables or disables the TIM2 peripheral.
    335            * @param   NewState new state of the TIM2 peripheral. This parameter can
    336            * be ENABLE or DISABLE.
    337            * @retval None
    338            */

   \                                 In section .far_func.text, align 1, keep-with-next
    339          void TIM2_Cmd(FunctionalState NewState)
    340          {
    341              /* Check the parameters */
    342              assert_param(IS_FUNCTIONALSTATE_OK(NewState));
   \                     TIM2_Cmd:
   \   000000 4D                    TNZ       A
   \   000001 2710                  JREQ      L:??TIM2_Cmd_0
   \   000003 A101                  CP        A, #0x1
   \   000005 2707                  JREQ      L:??CrossCallReturnLabel_30
   \   000007 AE0156                LDW       X, #0x156
   \   00000A 8D000000              CALLF     ?Subroutine5
    343          
    344              /* set or Reset the CEN Bit */
    345              if (NewState != DISABLE)
    346              {
    347                  TIM2->CR1 |= (uint8_t)TIM2_CR1_CEN;
   \                     ??CrossCallReturnLabel_30:
   \   00000E 72105300              BSET      L:0x5300, #0x0
   \   000012 87                    RETF
    348              }
    349              else
    350              {
    351                  TIM2->CR1 &= (uint8_t)(~TIM2_CR1_CEN);
   \                     ??TIM2_Cmd_0:
   \   000013 72115300              BRES      L:0x5300, #0x0
    352              }
    353          }
   \   000017 87                    RETF
    354          
    355          
    356          /**
    357            * @brief  Enables or disables the specified TIM2 interrupts.
    358            * @param   NewState new state of the TIM2 peripheral.
    359            * This parameter can be: ENABLE or DISABLE.
    360            * @param   TIM2_IT specifies the TIM2 interrupts sources to be enabled or disabled.
    361            * This parameter can be any combination of the following values:
    362            *                       - TIM2_IT_UPDATE: TIM2 update Interrupt source
    363            *                       - TIM2_IT_CC1: TIM2 Capture Compare 1 Interrupt source
    364            *                       - TIM2_IT_CC2: TIM2 Capture Compare 2 Interrupt source
    365            *                       - TIM2_IT_CC3: TIM2 Capture Compare 3 Interrupt source
    366            * @param   NewState new state of the TIM2 peripheral.
    367            * @retval None
    368            */

   \                                 In section .far_func.text, align 1, keep-with-next
    369          void TIM2_ITConfig(TIM2_IT_TypeDef TIM2_IT, FunctionalState NewState)
    370          {
   \                     TIM2_ITConfig:
   \   000000 8D000000              CALLF     L:?push_w4
   \   000004 B700                  LD        S:?b8, A
   \   000006 450000                MOV       S:?b9, S:?b0
    371              /* Check the parameters */
    372              assert_param(IS_TIM2_IT_OK(TIM2_IT));
   \   000009 2704                  JREQ      L:??TIM2_ITConfig_0
   \   00000B A110                  CP        A, #0x10
   \   00000D 2507                  JRC       L:??CrossCallReturnLabel_32
   \                     ??TIM2_ITConfig_0:
   \   00000F AE0174                LDW       X, #0x174
   \   000012 8D000000              CALLF     ?Subroutine5
    373              assert_param(IS_FUNCTIONALSTATE_OK(NewState));
   \                     ??CrossCallReturnLabel_32:
   \   000016 3D00                  TNZ       S:?b9
   \   000018 2714                  JREQ      L:??TIM2_ITConfig_1
   \   00001A B600                  LD        A, S:?b9
   \   00001C A101                  CP        A, #0x1
   \   00001E 2707                  JREQ      L:??CrossCallReturnLabel_31
   \   000020 AE0175                LDW       X, #0x175
   \   000023 8D000000              CALLF     ?Subroutine5
    374          
    375              if (NewState != DISABLE)
    376              {
    377                  /* Enable the Interrupt sources */
    378                  TIM2->IER |= (uint8_t)TIM2_IT;
   \                     ??CrossCallReturnLabel_31:
   \   000027 B600                  LD        A, S:?b8
   \   000029 CA5301                OR        A, L:0x5301
   \   00002C 2007                  JRA       ??TIM2_ITConfig_2
    379              }
    380              else
    381              {
    382                  /* Disable the Interrupt sources */
    383                  TIM2->IER &= (uint8_t)(~TIM2_IT);
   \                     ??TIM2_ITConfig_1:
   \   00002E 3300                  CPL       S:?b8
   \   000030 B600                  LD        A, S:?b8
   \   000032 C45301                AND       A, L:0x5301
   \                     ??TIM2_ITConfig_2:
   \   000035 C75301                LD        L:0x5301, A
    384              }
    385          }
   \   000038 AC000000              JPF       L:?epilogue_w4
    386          
    387          
    388          /**
    389            * @brief  Enables or Disables the TIM2 Update event.
    390            * @param   NewState new state of the TIM2 peripheral Preload register. This parameter can
    391            * be ENABLE or DISABLE.
    392            * @retval None
    393            */

   \                                 In section .far_func.text, align 1, keep-with-next
    394          void TIM2_UpdateDisableConfig(FunctionalState NewState)
    395          {
    396              /* Check the parameters */
    397              assert_param(IS_FUNCTIONALSTATE_OK(NewState));
   \                     TIM2_UpdateDisableConfig:
   \   000000 4D                    TNZ       A
   \   000001 2710                  JREQ      L:??TIM2_UpdateDisableConfig_0
   \   000003 A101                  CP        A, #0x1
   \   000005 2707                  JREQ      L:??CrossCallReturnLabel_33
   \   000007 AE018D                LDW       X, #0x18d
   \   00000A 8D000000              CALLF     ?Subroutine5
    398          
    399              /* Set or Reset the UDIS Bit */
    400              if (NewState != DISABLE)
    401              {
    402                  TIM2->CR1 |= (uint8_t)TIM2_CR1_UDIS;
   \                     ??CrossCallReturnLabel_33:
   \   00000E 72125300              BSET      L:0x5300, #0x1
   \   000012 87                    RETF
    403              }
    404              else
    405              {
    406                  TIM2->CR1 &= (uint8_t)(~TIM2_CR1_UDIS);
   \                     ??TIM2_UpdateDisableConfig_0:
   \   000013 72135300              BRES      L:0x5300, #0x1
    407              }
    408          }
   \   000017 87                    RETF
    409          
    410          /**
    411            * @brief  Selects the TIM2 Update Request Interrupt source.
    412            * @param   TIM2_UpdateSource specifies the Update source.
    413            * This parameter can be one of the following values
    414            *                       - TIM2_UPDATESOURCE_REGULAR
    415            *                       - TIM2_UPDATESOURCE_GLOBAL
    416            * @retval None
    417            */

   \                                 In section .far_func.text, align 1, keep-with-next
    418          void TIM2_UpdateRequestConfig(TIM2_UpdateSource_TypeDef TIM2_UpdateSource)
    419          {
    420              /* Check the parameters */
    421              assert_param(IS_TIM2_UPDATE_SOURCE_OK(TIM2_UpdateSource));
   \                     TIM2_UpdateRequestConfig:
   \   000000 4D                    TNZ       A
   \   000001 2710                  JREQ      L:??TIM2_UpdateRequestConfig_0
   \   000003 A101                  CP        A, #0x1
   \   000005 2707                  JREQ      L:??CrossCallReturnLabel_34
   \   000007 AE01A5                LDW       X, #0x1a5
   \   00000A 8D000000              CALLF     ?Subroutine5
    422          
    423              /* Set or Reset the URS Bit */
    424              if (TIM2_UpdateSource != TIM2_UPDATESOURCE_GLOBAL)
    425              {
    426                  TIM2->CR1 |= (uint8_t)TIM2_CR1_URS;
   \                     ??CrossCallReturnLabel_34:
   \   00000E 72145300              BSET      L:0x5300, #0x2
   \   000012 87                    RETF
    427              }
    428              else
    429              {
    430                  TIM2->CR1 &= (uint8_t)(~TIM2_CR1_URS);
   \                     ??TIM2_UpdateRequestConfig_0:
   \   000013 72155300              BRES      L:0x5300, #0x2
    431              }
    432          }
   \   000017 87                    RETF
    433          
    434          
    435          /**
    436            * @brief  Selects the TIM2s One Pulse Mode.
    437            * @param   TIM2_OPMode specifies the OPM Mode to be used.
    438            * This parameter can be one of the following values
    439            *                    - TIM2_OPMODE_SINGLE
    440            *                    - TIM2_OPMODE_REPETITIVE
    441            * @retval None
    442            */

   \                                 In section .far_func.text, align 1, keep-with-next
    443          void TIM2_SelectOnePulseMode(TIM2_OPMode_TypeDef TIM2_OPMode)
    444          {
    445              /* Check the parameters */
    446              assert_param(IS_TIM2_OPM_MODE_OK(TIM2_OPMode));
   \                     TIM2_SelectOnePulseMode:
   \   000000 A101                  CP        A, #0x1
   \   000002 270A                  JREQ      L:??CrossCallReturnLabel_35
   \   000004 4D                    TNZ       A
   \   000005 270C                  JREQ      L:??TIM2_SelectOnePulseMode_0
   \   000007 AE01BE                LDW       X, #0x1be
   \   00000A 8D000000              CALLF     ?Subroutine5
    447          
    448              /* Set or Reset the OPM Bit */
    449              if (TIM2_OPMode != TIM2_OPMODE_REPETITIVE)
    450              {
    451                  TIM2->CR1 |= (uint8_t)TIM2_CR1_OPM;
   \                     ??CrossCallReturnLabel_35:
   \   00000E 72165300              BSET      L:0x5300, #0x3
   \   000012 87                    RETF
    452              }
    453              else
    454              {
    455                  TIM2->CR1 &= (uint8_t)(~TIM2_CR1_OPM);
   \                     ??TIM2_SelectOnePulseMode_0:
   \   000013 72175300              BRES      L:0x5300, #0x3
    456              }
    457          
    458          }
   \   000017 87                    RETF
    459          
    460          
    461          /**
    462            * @brief  Configures the TIM2 Prescaler.
    463            * @param   Prescaler specifies the Prescaler Register value
    464            * This parameter can be one of the following values
    465            *                       -  TIM2_PRESCALER_1
    466            *                       -  TIM2_PRESCALER_2
    467            *                       -  TIM2_PRESCALER_4
    468            *                       -  TIM2_PRESCALER_8
    469            *                       -  TIM2_PRESCALER_16
    470            *                       -  TIM2_PRESCALER_32
    471            *                       -  TIM2_PRESCALER_64
    472            *                       -  TIM2_PRESCALER_128
    473            *                       -  TIM2_PRESCALER_256
    474            *                       -  TIM2_PRESCALER_512
    475            *                       -  TIM2_PRESCALER_1024
    476            *                       -  TIM2_PRESCALER_2048
    477            *                       -  TIM2_PRESCALER_4096
    478            *                       -  TIM2_PRESCALER_8192
    479            *                       -  TIM2_PRESCALER_16384
    480            *                       -  TIM2_PRESCALER_32768
    481            * @param   TIM2_PSCReloadMode specifies the TIM2 Prescaler Reload mode.
    482            * This parameter can be one of the following values
    483            *                       - TIM2_PSCRELOADMODE_IMMEDIATE: The Prescaler is loaded
    484            *                         immediately.
    485            *                       - TIM2_PSCRELOADMODE_UPDATE: The Prescaler is loaded at
    486            *                         the update event.
    487            * @retval None
    488            */

   \                                 In section .far_func.text, align 1, keep-with-next
    489          void TIM2_PrescalerConfig(TIM2_Prescaler_TypeDef Prescaler,
    490                                    TIM2_PSCReloadMode_TypeDef TIM2_PSCReloadMode)
    491          {
   \                     TIM2_PrescalerConfig:
   \   000000 8D000000              CALLF     L:?push_w4
   \   000004 B700                  LD        S:?b9, A
   \   000006 450000                MOV       S:?b8, S:?b0
    492              /* Check the parameters */
    493              assert_param(IS_TIM2_PRESCALER_RELOAD_OK(TIM2_PSCReloadMode));
   \   000009 3D00                  TNZ       S:?b8
   \   00000B 270D                  JREQ      L:??CrossCallReturnLabel_37
   \   00000D B600                  LD        A, S:?b8
   \   00000F A101                  CP        A, #0x1
   \   000011 2707                  JREQ      L:??CrossCallReturnLabel_37
   \   000013 AE01ED                LDW       X, #0x1ed
   \   000016 8D000000              CALLF     ?Subroutine5
    494              assert_param(IS_TIM2_PRESCALER_OK(Prescaler));
   \                     ??CrossCallReturnLabel_37:
   \   00001A 3D00                  TNZ       S:?b9
   \   00001C 2745                  JREQ      L:??CrossCallReturnLabel_36
   \   00001E B600                  LD        A, S:?b9
   \   000020 A101                  CP        A, #0x1
   \   000022 273F                  JREQ      L:??CrossCallReturnLabel_36
   \   000024 A102                  CP        A, #0x2
   \   000026 273B                  JREQ      L:??CrossCallReturnLabel_36
   \   000028 A103                  CP        A, #0x3
   \   00002A 2737                  JREQ      L:??CrossCallReturnLabel_36
   \   00002C A104                  CP        A, #0x4
   \   00002E 2733                  JREQ      L:??CrossCallReturnLabel_36
   \   000030 A105                  CP        A, #0x5
   \   000032 272F                  JREQ      L:??CrossCallReturnLabel_36
   \   000034 A106                  CP        A, #0x6
   \   000036 272B                  JREQ      L:??CrossCallReturnLabel_36
   \   000038 A107                  CP        A, #0x7
   \   00003A 2727                  JREQ      L:??CrossCallReturnLabel_36
   \   00003C A108                  CP        A, #0x8
   \   00003E 2723                  JREQ      L:??CrossCallReturnLabel_36
   \   000040 A109                  CP        A, #0x9
   \   000042 271F                  JREQ      L:??CrossCallReturnLabel_36
   \   000044 A10A                  CP        A, #0xa
   \   000046 271B                  JREQ      L:??CrossCallReturnLabel_36
   \   000048 A10B                  CP        A, #0xb
   \   00004A 2717                  JREQ      L:??CrossCallReturnLabel_36
   \   00004C A10C                  CP        A, #0xc
   \   00004E 2713                  JREQ      L:??CrossCallReturnLabel_36
   \   000050 A10D                  CP        A, #0xd
   \   000052 270F                  JREQ      L:??CrossCallReturnLabel_36
   \   000054 A10E                  CP        A, #0xe
   \   000056 270B                  JREQ      L:??CrossCallReturnLabel_36
   \   000058 A10F                  CP        A, #0xf
   \   00005A 2707                  JREQ      L:??CrossCallReturnLabel_36
   \   00005C AE01EE                LDW       X, #0x1ee
   \   00005F 8D000000              CALLF     ?Subroutine5
    495          
    496              /* Set the Prescaler value */
    497              TIM2->PSCR = (uint8_t)Prescaler;
   \                     ??CrossCallReturnLabel_36:
   \   000063 B600                  LD        A, S:?b9
   \   000065 C7530C                LD        L:0x530c, A
    498          
    499              /* Set or reset the UG Bit */
    500              TIM2->EGR = (uint8_t)TIM2_PSCReloadMode;
   \   000068 B600                  LD        A, S:?b8
   \   00006A C75304                LD        L:0x5304, A
    501          }
   \   00006D AC000000              JPF       L:?epilogue_w4
    502          
    503          /**
    504            * @brief  Forces the TIM2 Channel1 output waveform to active or inactive level.
    505            * @param   TIM2_ForcedAction specifies the forced Action to be set to the output waveform.
    506            * This parameter can be one of the following values:
    507            *                       - TIM2_FORCEDACTION_ACTIVE: Force active level on OC1REF
    508            *                       - TIM2_FORCEDACTION_INACTIVE: Force inactive level on
    509            *                         OC1REF.
    510            * @retval None
    511            */

   \                                 In section .far_func.text, align 1, keep-with-next
    512          void TIM2_ForcedOC1Config(TIM2_ForcedAction_TypeDef TIM2_ForcedAction)
    513          {
   \                     TIM2_ForcedOC1Config:
   \   000000 3B0000                PUSH      S:?b8
   \   000003 B700                  LD        S:?b8, A
    514              /* Check the parameters */
    515              assert_param(IS_TIM2_FORCED_ACTION_OK(TIM2_ForcedAction));
   \   000005 A150                  CP        A, #0x50
   \   000007 270B                  JREQ      L:??CrossCallReturnLabel_38
   \   000009 A140                  CP        A, #0x40
   \   00000B 2707                  JREQ      L:??CrossCallReturnLabel_38
   \   00000D AE0203                LDW       X, #0x203
   \   000010 8D000000              CALLF     ?Subroutine5
    516          
    517              /* Reset the OCM Bits & Configure the Forced output Mode */
    518              TIM2->CCMR1  =  (uint8_t)((uint8_t)(TIM2->CCMR1 & (uint8_t)(~TIM2_CCMR_OCM))  
    519                                        | (uint8_t)TIM2_ForcedAction);
   \                     ??CrossCallReturnLabel_38:
   \   000014 8D000000              CALLF     ?Subroutine4
    520          }
   \                     ??CrossCallReturnLabel_10:
   \   000018 320000                POP       S:?b8
   \   00001B 87                    RETF
    521          
    522          /**
    523            * @brief  Forces the TIM2 Channel2 output waveform to active or inactive level.
    524            * @param   TIM2_ForcedAction specifies the forced Action to be set to the output waveform.
    525            * This parameter can be one of the following values:
    526            *                       - TIM2_FORCEDACTION_ACTIVE: Force active level on OC2REF
    527            *                       - TIM2_FORCEDACTION_INACTIVE: Force inactive level on
    528            *                         OC2REF.
    529            * @retval None
    530            */

   \                                 In section .far_func.text, align 1, keep-with-next
    531          void TIM2_ForcedOC2Config(TIM2_ForcedAction_TypeDef TIM2_ForcedAction)
    532          {
   \                     TIM2_ForcedOC2Config:
   \   000000 3B0000                PUSH      S:?b8
   \   000003 B700                  LD        S:?b8, A
    533              /* Check the parameters */
    534              assert_param(IS_TIM2_FORCED_ACTION_OK(TIM2_ForcedAction));
   \   000005 A150                  CP        A, #0x50
   \   000007 270B                  JREQ      L:??CrossCallReturnLabel_39
   \   000009 A140                  CP        A, #0x40
   \   00000B 2707                  JREQ      L:??CrossCallReturnLabel_39
   \   00000D AE0216                LDW       X, #0x216
   \   000010 8D000000              CALLF     ?Subroutine5
    535          
    536              /* Reset the OCM Bits & Configure the Forced output Mode */
    537              TIM2->CCMR2 = (uint8_t)((uint8_t)(TIM2->CCMR2 & (uint8_t)(~TIM2_CCMR_OCM))  
    538                                      | (uint8_t)TIM2_ForcedAction);
   \                     ??CrossCallReturnLabel_39:
   \   000014 8D000000              CALLF     ?Subroutine3
    539          }
   \                     ??CrossCallReturnLabel_8:
   \   000018 320000                POP       S:?b8
   \   00001B 87                    RETF
    540          
    541          /**
    542            * @brief  Forces the TIM2 Channel3 output waveform to active or inactive level.
    543            * @param   TIM2_ForcedAction specifies the forced Action to be set to the output waveform.
    544            * This parameter can be one of the following values:
    545            *                       - TIM2_FORCEDACTION_ACTIVE: Force active level on OC3REF
    546            *                       - TIM2_FORCEDACTION_INACTIVE: Force inactive level on
    547            *                         OC3REF.
    548            * @retval None
    549            */

   \                                 In section .far_func.text, align 1, keep-with-next
    550          void TIM2_ForcedOC3Config(TIM2_ForcedAction_TypeDef TIM2_ForcedAction)
    551          {
   \                     TIM2_ForcedOC3Config:
   \   000000 3B0000                PUSH      S:?b8
   \   000003 B700                  LD        S:?b8, A
    552              /* Check the parameters */
    553              assert_param(IS_TIM2_FORCED_ACTION_OK(TIM2_ForcedAction));
   \   000005 A150                  CP        A, #0x50
   \   000007 270B                  JREQ      L:??CrossCallReturnLabel_40
   \   000009 A140                  CP        A, #0x40
   \   00000B 2707                  JREQ      L:??CrossCallReturnLabel_40
   \   00000D AE0229                LDW       X, #0x229
   \   000010 8D000000              CALLF     ?Subroutine5
    554          
    555              /* Reset the OCM Bits & Configure the Forced output Mode */
    556              TIM2->CCMR3  =  (uint8_t)((uint8_t)(TIM2->CCMR3 & (uint8_t)(~TIM2_CCMR_OCM))
    557                                        | (uint8_t)TIM2_ForcedAction);
   \                     ??CrossCallReturnLabel_40:
   \   000014 8D000000              CALLF     ?Subroutine2
    558          }
   \                     ??CrossCallReturnLabel_6:
   \   000018 320000                POP       S:?b8
   \   00001B 87                    RETF
    559          
    560          
    561          /**
    562            * @brief  Enables or disables TIM2 peripheral Preload register on ARR.
    563            * @param   NewState new state of the TIM2 peripheral Preload register.
    564            * This parameter can be ENABLE or DISABLE.
    565            * @retval None
    566            */

   \                                 In section .far_func.text, align 1, keep-with-next
    567          void TIM2_ARRPreloadConfig(FunctionalState NewState)
    568          {
    569              /* Check the parameters */
    570              assert_param(IS_FUNCTIONALSTATE_OK(NewState));
   \                     TIM2_ARRPreloadConfig:
   \   000000 4D                    TNZ       A
   \   000001 2710                  JREQ      L:??TIM2_ARRPreloadConfig_0
   \   000003 A101                  CP        A, #0x1
   \   000005 2707                  JREQ      L:??CrossCallReturnLabel_41
   \   000007 AE023A                LDW       X, #0x23a
   \   00000A 8D000000              CALLF     ?Subroutine5
    571          
    572              /* Set or Reset the ARPE Bit */
    573              if (NewState != DISABLE)
    574              {
    575                  TIM2->CR1 |= (uint8_t)TIM2_CR1_ARPE;
   \                     ??CrossCallReturnLabel_41:
   \   00000E 721E5300              BSET      L:0x5300, #0x7
   \   000012 87                    RETF
    576              }
    577              else
    578              {
    579                  TIM2->CR1 &= (uint8_t)(~TIM2_CR1_ARPE);
   \                     ??TIM2_ARRPreloadConfig_0:
   \   000013 721F5300              BRES      L:0x5300, #0x7
    580              }
    581          }
   \   000017 87                    RETF
    582          
    583          
    584          /**
    585            * @brief  Enables or disables the TIM2 peripheral Preload Register on CCR1.
    586            * @param   NewState new state of the Capture Compare Preload register.
    587            * This parameter can be ENABLE or DISABLE.
    588            * @retval None
    589            */

   \                                 In section .far_func.text, align 1, keep-with-next
    590          void TIM2_OC1PreloadConfig(FunctionalState NewState)
    591          {
    592              /* Check the parameters */
    593              assert_param(IS_FUNCTIONALSTATE_OK(NewState));
   \                     TIM2_OC1PreloadConfig:
   \   000000 4D                    TNZ       A
   \   000001 2710                  JREQ      L:??TIM2_OC1PreloadConfig_0
   \   000003 A101                  CP        A, #0x1
   \   000005 2707                  JREQ      L:??CrossCallReturnLabel_42
   \   000007 AE0251                LDW       X, #0x251
   \   00000A 8D000000              CALLF     ?Subroutine5
    594          
    595              /* Set or Reset the OC1PE Bit */
    596              if (NewState != DISABLE)
    597              {
    598                  TIM2->CCMR1 |= (uint8_t)TIM2_CCMR_OCxPE;
   \                     ??CrossCallReturnLabel_42:
   \   00000E 72165305              BSET      L:0x5305, #0x3
   \   000012 87                    RETF
    599              }
    600              else
    601              {
    602                  TIM2->CCMR1 &= (uint8_t)(~TIM2_CCMR_OCxPE);
   \                     ??TIM2_OC1PreloadConfig_0:
   \   000013 72175305              BRES      L:0x5305, #0x3
    603              }
    604          }
   \   000017 87                    RETF
    605          
    606          
    607          /**
    608            * @brief  Enables or disables the TIM2 peripheral Preload Register on CCR2.
    609            * @param   NewState new state of the Capture Compare Preload register.
    610            * This parameter can be ENABLE or DISABLE.
    611            * @retval None
    612            */

   \                                 In section .far_func.text, align 1, keep-with-next
    613          void TIM2_OC2PreloadConfig(FunctionalState NewState)
    614          {
    615              /* Check the parameters */
    616              assert_param(IS_FUNCTIONALSTATE_OK(NewState));
   \                     TIM2_OC2PreloadConfig:
   \   000000 4D                    TNZ       A
   \   000001 2710                  JREQ      L:??TIM2_OC2PreloadConfig_0
   \   000003 A101                  CP        A, #0x1
   \   000005 2707                  JREQ      L:??CrossCallReturnLabel_43
   \   000007 AE0268                LDW       X, #0x268
   \   00000A 8D000000              CALLF     ?Subroutine5
    617          
    618              /* Set or Reset the OC2PE Bit */
    619              if (NewState != DISABLE)
    620              {
    621                  TIM2->CCMR2 |= (uint8_t)TIM2_CCMR_OCxPE;
   \                     ??CrossCallReturnLabel_43:
   \   00000E 72165306              BSET      L:0x5306, #0x3
   \   000012 87                    RETF
    622              }
    623              else
    624              {
    625                  TIM2->CCMR2 &= (uint8_t)(~TIM2_CCMR_OCxPE);
   \                     ??TIM2_OC2PreloadConfig_0:
   \   000013 72175306              BRES      L:0x5306, #0x3
    626              }
    627          }
   \   000017 87                    RETF
    628          
    629          
    630          /**
    631            * @brief  Enables or disables the TIM2 peripheral Preload Register on CCR3.
    632            * @param   NewState new state of the Capture Compare Preload register.
    633            * This parameter can be ENABLE or DISABLE.
    634            * @retval None
    635            */

   \                                 In section .far_func.text, align 1, keep-with-next
    636          void TIM2_OC3PreloadConfig(FunctionalState NewState)
    637          {
    638              /* Check the parameters */
    639              assert_param(IS_FUNCTIONALSTATE_OK(NewState));
   \                     TIM2_OC3PreloadConfig:
   \   000000 4D                    TNZ       A
   \   000001 2710                  JREQ      L:??TIM2_OC3PreloadConfig_0
   \   000003 A101                  CP        A, #0x1
   \   000005 2707                  JREQ      L:??CrossCallReturnLabel_44
   \   000007 AE027F                LDW       X, #0x27f
   \   00000A 8D000000              CALLF     ?Subroutine5
    640          
    641              /* Set or Reset the OC3PE Bit */
    642              if (NewState != DISABLE)
    643              {
    644                  TIM2->CCMR3 |= (uint8_t)TIM2_CCMR_OCxPE;
   \                     ??CrossCallReturnLabel_44:
   \   00000E 72165307              BSET      L:0x5307, #0x3
   \   000012 87                    RETF
    645              }
    646              else
    647              {
    648                  TIM2->CCMR3 &= (uint8_t)(~TIM2_CCMR_OCxPE);
   \                     ??TIM2_OC3PreloadConfig_0:
   \   000013 72175307              BRES      L:0x5307, #0x3
    649              }
    650          }
   \   000017 87                    RETF
    651          
    652          
    653          /**
    654            * @brief  Configures the TIM2 event to be generated by software.
    655            * @param   TIM2_EventSource specifies the event source.
    656            * This parameter can be one of the following values:
    657            *                       - TIM2_EVENTSOURCE_UPDATE: TIM2 update Event source
    658            *                       - TIM2_EVENTSOURCE_CC1: TIM2 Capture Compare 1 Event source
    659            *                       - TIM2_EVENTSOURCE_CC2: TIM2 Capture Compare 2 Event source
    660            *                       - TIM2_EVENTSOURCE_CC3: TIM2 Capture Compare 3 Event source
    661            * @retval None
    662            */

   \                                 In section .far_func.text, align 1, keep-with-next
    663          void TIM2_GenerateEvent(TIM2_EventSource_TypeDef TIM2_EventSource)
    664          {
   \                     TIM2_GenerateEvent:
   \   000000 3B0000                PUSH      S:?b8
   \   000003 B700                  LD        S:?b8, A
    665              /* Check the parameters */
    666              assert_param(IS_TIM2_EVENT_SOURCE_OK(TIM2_EventSource));
   \   000005 2607                  JRNE      L:??CrossCallReturnLabel_45
   \   000007 AE029A                LDW       X, #0x29a
   \   00000A 8D000000              CALLF     ?Subroutine5
    667          
    668              /* Set the event sources */
    669              TIM2->EGR = (uint8_t)TIM2_EventSource;
   \                     ??CrossCallReturnLabel_45:
   \   00000E B600                  LD        A, S:?b8
   \   000010 C75304                LD        L:0x5304, A
    670          }
   \   000013 320000                POP       S:?b8
   \   000016 87                    RETF
    671          
    672          
    673          /**
    674            * @brief  Configures the TIM2 Channel 1 polarity.
    675            * @param   TIM2_OCPolarity specifies the OC1 Polarity.
    676            * This parameter can be one of the following values:
    677            *                       - TIM2_OCPOLARITY_LOW: Output Compare active low
    678            *                       - TIM2_OCPOLARITY_HIGH: Output Compare active high
    679            * @retval None
    680            */

   \                                 In section .far_func.text, align 1, keep-with-next
    681          void TIM2_OC1PolarityConfig(TIM2_OCPolarity_TypeDef TIM2_OCPolarity)
    682          {
    683              /* Check the parameters */
    684              assert_param(IS_TIM2_OC_POLARITY_OK(TIM2_OCPolarity));
   \                     TIM2_OC1PolarityConfig:
   \   000000 4D                    TNZ       A
   \   000001 2710                  JREQ      L:??TIM2_OC1PolarityConfig_0
   \   000003 A122                  CP        A, #0x22
   \   000005 2707                  JREQ      L:??CrossCallReturnLabel_46
   \   000007 AE02AC                LDW       X, #0x2ac
   \   00000A 8D000000              CALLF     ?Subroutine5
    685          
    686              /* Set or Reset the CC1P Bit */
    687              if (TIM2_OCPolarity != TIM2_OCPOLARITY_HIGH)
    688              {
    689                  TIM2->CCER1 |= (uint8_t)TIM2_CCER1_CC1P;
   \                     ??CrossCallReturnLabel_46:
   \   00000E 72125308              BSET      L:0x5308, #0x1
   \   000012 87                    RETF
    690              }
    691              else
    692              {
    693                  TIM2->CCER1 &= (uint8_t)(~TIM2_CCER1_CC1P);
   \                     ??TIM2_OC1PolarityConfig_0:
   \   000013 72135308              BRES      L:0x5308, #0x1
    694              }
    695          }
   \   000017 87                    RETF
    696          
    697          
    698          /**
    699            * @brief  Configures the TIM2 Channel 2 polarity.
    700            * @param   TIM2_OCPolarity specifies the OC2 Polarity.
    701            * This parameter can be one of the following values:
    702            *                       - TIM2_OCPOLARITY_LOW: Output Compare active low
    703            *                       - TIM2_OCPOLARITY_HIGH: Output Compare active high
    704            * @retval None
    705            */

   \                                 In section .far_func.text, align 1, keep-with-next
    706          void TIM2_OC2PolarityConfig(TIM2_OCPolarity_TypeDef TIM2_OCPolarity)
    707          {
    708              /* Check the parameters */
    709              assert_param(IS_TIM2_OC_POLARITY_OK(TIM2_OCPolarity));
   \                     TIM2_OC2PolarityConfig:
   \   000000 4D                    TNZ       A
   \   000001 2710                  JREQ      L:??TIM2_OC2PolarityConfig_0
   \   000003 A122                  CP        A, #0x22
   \   000005 2707                  JREQ      L:??CrossCallReturnLabel_47
   \   000007 AE02C5                LDW       X, #0x2c5
   \   00000A 8D000000              CALLF     ?Subroutine5
    710          
    711              /* Set or Reset the CC2P Bit */
    712              if (TIM2_OCPolarity != TIM2_OCPOLARITY_HIGH)
    713              {
    714                  TIM2->CCER1 |= TIM2_CCER1_CC2P;
   \                     ??CrossCallReturnLabel_47:
   \   00000E 721A5308              BSET      L:0x5308, #0x5
   \   000012 87                    RETF
    715              }
    716              else
    717              {
    718                  TIM2->CCER1 &= (uint8_t)(~TIM2_CCER1_CC2P);
   \                     ??TIM2_OC2PolarityConfig_0:
   \   000013 721B5308              BRES      L:0x5308, #0x5
    719              }
    720          }
   \   000017 87                    RETF
    721          
    722          
    723          /**
    724            * @brief  Configures the TIM2 Channel 3 polarity.
    725            * @param   TIM2_OCPolarity specifies the OC3 Polarity.
    726            * This parameter can be one of the following values:
    727            *                       - TIM2_OCPOLARITY_LOW: Output Compare active low
    728            *                       - TIM2_OCPOLARITY_HIGH: Output Compare active high
    729            * @retval None
    730            */

   \                                 In section .far_func.text, align 1, keep-with-next
    731          void TIM2_OC3PolarityConfig(TIM2_OCPolarity_TypeDef TIM2_OCPolarity)
    732          {
    733              /* Check the parameters */
    734              assert_param(IS_TIM2_OC_POLARITY_OK(TIM2_OCPolarity));
   \                     TIM2_OC3PolarityConfig:
   \   000000 4D                    TNZ       A
   \   000001 2710                  JREQ      L:??TIM2_OC3PolarityConfig_0
   \   000003 A122                  CP        A, #0x22
   \   000005 2707                  JREQ      L:??CrossCallReturnLabel_48
   \   000007 AE02DE                LDW       X, #0x2de
   \   00000A 8D000000              CALLF     ?Subroutine5
    735          
    736              /* Set or Reset the CC3P Bit */
    737              if (TIM2_OCPolarity != TIM2_OCPOLARITY_HIGH)
    738              {
    739                  TIM2->CCER2 |= (uint8_t)TIM2_CCER2_CC3P;
   \                     ??CrossCallReturnLabel_48:
   \   00000E 72125309              BSET      L:0x5309, #0x1
   \   000012 87                    RETF
    740              }
    741              else
    742              {
    743                  TIM2->CCER2 &= (uint8_t)(~TIM2_CCER2_CC3P);
   \                     ??TIM2_OC3PolarityConfig_0:
   \   000013 72135309              BRES      L:0x5309, #0x1
    744              }
    745          }
   \   000017 87                    RETF
    746          
    747          
    748          /**
    749            * @brief  Enables or disables the TIM2 Capture Compare Channel x.
    750            * @param   TIM2_Channel specifies the TIM2 Channel.
    751            * This parameter can be one of the following values:
    752            *                       - TIM2_CHANNEL_1: TIM2 Channel1
    753            *                       - TIM2_CHANNEL_2: TIM2 Channel2
    754            *                       - TIM2_CHANNEL_3: TIM2 Channel3
    755            * @param   NewState specifies the TIM2 Channel CCxE bit new state.
    756            * This parameter can be: ENABLE or DISABLE.
    757            * @retval None
    758            */

   \                                 In section .far_func.text, align 1, keep-with-next
    759          void TIM2_CCxCmd(TIM2_Channel_TypeDef TIM2_Channel, FunctionalState NewState)
    760          {
   \                     TIM2_CCxCmd:
   \   000000 8D000000              CALLF     L:?push_w4
   \   000004 B700                  LD        S:?b8, A
   \   000006 450000                MOV       S:?b9, S:?b0
    761              /* Check the parameters */
    762              assert_param(IS_TIM2_CHANNEL_OK(TIM2_Channel));
   \   000009 270F                  JREQ      L:??CrossCallReturnLabel_50
   \   00000B A101                  CP        A, #0x1
   \   00000D 270B                  JREQ      L:??CrossCallReturnLabel_50
   \   00000F A102                  CP        A, #0x2
   \   000011 2707                  JREQ      L:??CrossCallReturnLabel_50
   \   000013 AE02FA                LDW       X, #0x2fa
   \   000016 8D000000              CALLF     ?Subroutine5
    763              assert_param(IS_FUNCTIONALSTATE_OK(NewState));
   \                     ??CrossCallReturnLabel_50:
   \   00001A 3D00                  TNZ       S:?b9
   \   00001C 270D                  JREQ      L:??CrossCallReturnLabel_49
   \   00001E B600                  LD        A, S:?b9
   \   000020 A101                  CP        A, #0x1
   \   000022 2707                  JREQ      L:??CrossCallReturnLabel_49
   \   000024 AE02FB                LDW       X, #0x2fb
   \   000027 8D000000              CALLF     ?Subroutine5
    764          
    765              if (TIM2_Channel == TIM2_CHANNEL_1)
   \                     ??CrossCallReturnLabel_49:
   \   00002B 3D00                  TNZ       S:?b8
   \   00002D 2614                  JRNE      L:??TIM2_CCxCmd_0
    766              {
    767                  /* Set or Reset the CC1E Bit */
    768                  if (NewState != DISABLE)
   \   00002F 3D00                  TNZ       S:?b9
   \   000031 2708                  JREQ      L:??TIM2_CCxCmd_1
    769                  {
    770                      TIM2->CCER1 |= (uint8_t)TIM2_CCER1_CC1E;
   \   000033 72105308              BSET      L:0x5308, #0x0
   \   000037 AC000000              JPF       L:?epilogue_w4
    771                  }
    772                  else
    773                  {
    774                      TIM2->CCER1 &= (uint8_t)(~TIM2_CCER1_CC1E);
   \                     ??TIM2_CCxCmd_1:
   \   00003B 72115308              BRES      L:0x5308, #0x0
   \   00003F AC000000              JPF       L:?epilogue_w4
    775                  }
    776          
    777              }
    778              else if (TIM2_Channel == TIM2_CHANNEL_2)
   \                     ??TIM2_CCxCmd_0:
   \   000043 B600                  LD        A, S:?b8
   \   000045 A101                  CP        A, #0x1
   \   000047 2614                  JRNE      L:??TIM2_CCxCmd_2
    779              {
    780                  /* Set or Reset the CC2E Bit */
    781                  if (NewState != DISABLE)
   \   000049 3D00                  TNZ       S:?b9
   \   00004B 2708                  JREQ      L:??TIM2_CCxCmd_3
    782                  {
    783                      TIM2->CCER1 |= (uint8_t)TIM2_CCER1_CC2E;
   \   00004D 72185308              BSET      L:0x5308, #0x4
   \   000051 AC000000              JPF       L:?epilogue_w4
    784                  }
    785                  else
    786                  {
    787                      TIM2->CCER1 &= (uint8_t)(~TIM2_CCER1_CC2E);
   \                     ??TIM2_CCxCmd_3:
   \   000055 72195308              BRES      L:0x5308, #0x4
   \   000059 AC000000              JPF       L:?epilogue_w4
    788                  }
    789              }
    790              else
    791              {
    792                  /* Set or Reset the CC3E Bit */
    793                  if (NewState != DISABLE)
   \                     ??TIM2_CCxCmd_2:
   \   00005D 3D00                  TNZ       S:?b9
   \   00005F 2708                  JREQ      L:??TIM2_CCxCmd_4
    794                  {
    795                      TIM2->CCER2 |= (uint8_t)TIM2_CCER2_CC3E;
   \   000061 72105309              BSET      L:0x5309, #0x0
   \   000065 AC000000              JPF       L:?epilogue_w4
    796                  }
    797                  else
    798                  {
    799                      TIM2->CCER2 &= (uint8_t)(~TIM2_CCER2_CC3E);
   \                     ??TIM2_CCxCmd_4:
   \   000069 72115309              BRES      L:0x5309, #0x0
    800                  }
    801              }
    802          }
   \   00006D AC000000              JPF       L:?epilogue_w4
    803          
    804          /**
    805            * @brief  Selects the TIM2 Output Compare Mode. This function disables the
    806            * selected channel before changing the Output Compare Mode. User has to
    807            * enable this channel using TIM2_CCxCmd and TIM2_CCxNCmd functions.
    808            * @param   TIM2_Channel specifies the TIM2 Channel.
    809            * This parameter can be one of the following values:
    810            *                       - TIM2_CHANNEL_1: TIM2 Channel1
    811            *                       - TIM2_CHANNEL_2: TIM2 Channel2
    812            *                       - TIM2_CHANNEL_3: TIM2 Channel3
    813            * @param   TIM2_OCMode specifies the TIM2 Output Compare Mode.
    814            * This paramter can be one of the following values:
    815            *                       - TIM2_OCMODE_TIMING
    816            *                       - TIM2_OCMODE_ACTIVE
    817            *                       - TIM2_OCMODE_TOGGLE
    818            *                       - TIM2_OCMODE_PWM1
    819            *                       - TIM2_OCMODE_PWM2
    820            *                       - TIM2_FORCEDACTION_ACTIVE
    821            *                       - TIM2_FORCEDACTION_INACTIVE
    822            * @retval None
    823            */

   \                                 In section .far_func.text, align 1, keep-with-next
    824          void TIM2_SelectOCxM(TIM2_Channel_TypeDef TIM2_Channel, TIM2_OCMode_TypeDef TIM2_OCMode)
    825          {
   \                     TIM2_SelectOCxM:
   \   000000 8D000000              CALLF     L:?push_w4
   \   000004 B700                  LD        S:?b8, A
   \   000006 450000                MOV       S:?b9, S:?b0
    826              /* Check the parameters */
    827              assert_param(IS_TIM2_CHANNEL_OK(TIM2_Channel));
   \   000009 270F                  JREQ      L:??CrossCallReturnLabel_52
   \   00000B A101                  CP        A, #0x1
   \   00000D 270B                  JREQ      L:??CrossCallReturnLabel_52
   \   00000F A102                  CP        A, #0x2
   \   000011 2707                  JREQ      L:??CrossCallReturnLabel_52
   \   000013 AE033B                LDW       X, #0x33b
   \   000016 8D000000              CALLF     ?Subroutine5
    828              assert_param(IS_TIM2_OCM_OK(TIM2_OCMode));
   \                     ??CrossCallReturnLabel_52:
   \   00001A 3D00                  TNZ       S:?b9
   \   00001C 2725                  JREQ      L:??CrossCallReturnLabel_51
   \   00001E B600                  LD        A, S:?b9
   \   000020 A110                  CP        A, #0x10
   \   000022 271F                  JREQ      L:??CrossCallReturnLabel_51
   \   000024 A120                  CP        A, #0x20
   \   000026 271B                  JREQ      L:??CrossCallReturnLabel_51
   \   000028 A130                  CP        A, #0x30
   \   00002A 2717                  JREQ      L:??CrossCallReturnLabel_51
   \   00002C A160                  CP        A, #0x60
   \   00002E 2713                  JREQ      L:??CrossCallReturnLabel_51
   \   000030 A170                  CP        A, #0x70
   \   000032 270F                  JREQ      L:??CrossCallReturnLabel_51
   \   000034 A150                  CP        A, #0x50
   \   000036 270B                  JREQ      L:??CrossCallReturnLabel_51
   \   000038 A140                  CP        A, #0x40
   \   00003A 2707                  JREQ      L:??CrossCallReturnLabel_51
   \   00003C AE033C                LDW       X, #0x33c
   \   00003F 8D000000              CALLF     ?Subroutine5
    829          
    830              if (TIM2_Channel == TIM2_CHANNEL_1)
   \                     ??CrossCallReturnLabel_51:
   \   000043 3D00                  TNZ       S:?b8
   \   000045 2612                  JRNE      L:??TIM2_SelectOCxM_0
    831              {
    832                  /* Disable the Channel 1: Reset the CCE Bit */
    833                  TIM2->CCER1 &= (uint8_t)(~TIM2_CCER1_CC1E);
   \   000047 72115308              BRES      L:0x5308, #0x0
    834          
    835                  /* Reset the Output Compare Bits & Set the Output Compare Mode */
    836                  TIM2->CCMR1 = (uint8_t)((uint8_t)(TIM2->CCMR1 & (uint8_t)(~TIM2_CCMR_OCM))
    837                                         | (uint8_t)TIM2_OCMode);
   \   00004B C65305                LD        A, L:0x5305
   \   00004E A48F                  AND       A, #0x8f
   \   000050 BA00                  OR        A, S:?b9
   \   000052 C75305                LD        L:0x5305, A
   \   000055 AC000000              JPF       L:?epilogue_w4
    838              }
    839              else if (TIM2_Channel == TIM2_CHANNEL_2)
   \                     ??TIM2_SelectOCxM_0:
   \   000059 B600                  LD        A, S:?b8
   \   00005B A101                  CP        A, #0x1
   \   00005D 2612                  JRNE      L:??TIM2_SelectOCxM_1
    840              {
    841                  /* Disable the Channel 2: Reset the CCE Bit */
    842                  TIM2->CCER1 &= (uint8_t)(~TIM2_CCER1_CC2E);
   \   00005F 72195308              BRES      L:0x5308, #0x4
    843          
    844                  /* Reset the Output Compare Bits & Set the Output Compare Mode */
    845                  TIM2->CCMR2 = (uint8_t)((uint8_t)(TIM2->CCMR2 & (uint8_t)(~TIM2_CCMR_OCM))
    846                                          | (uint8_t)TIM2_OCMode);
   \   000063 C65306                LD        A, L:0x5306
   \   000066 A48F                  AND       A, #0x8f
   \   000068 BA00                  OR        A, S:?b9
   \   00006A C75306                LD        L:0x5306, A
   \   00006D AC000000              JPF       L:?epilogue_w4
    847              }
    848              else
    849              {
    850                  /* Disable the Channel 3: Reset the CCE Bit */
    851                  TIM2->CCER2 &= (uint8_t)(~TIM2_CCER2_CC3E);
   \                     ??TIM2_SelectOCxM_1:
   \   000071 72115309              BRES      L:0x5309, #0x0
    852          
    853                  /* Reset the Output Compare Bits & Set the Output Compare Mode */
    854                  TIM2->CCMR3 = (uint8_t)((uint8_t)(TIM2->CCMR3 & (uint8_t)(~TIM2_CCMR_OCM))
    855                                          | (uint8_t)TIM2_OCMode);
   \   000075 C65307                LD        A, L:0x5307
   \   000078 A48F                  AND       A, #0x8f
   \   00007A BA00                  OR        A, S:?b9
   \   00007C C75307                LD        L:0x5307, A
    856              }
    857          }
   \   00007F AC000000              JPF       L:?epilogue_w4
    858          
    859          
    860          /**
    861            * @brief  Sets the TIM2 Counter Register value.
    862            * @param   Counter specifies the Counter register new value.
    863            * This parameter is between 0x0000 and 0xFFFF.
    864            * @retval None
    865            */

   \                                 In section .far_func.text, align 1, keep-with-next
    866          void TIM2_SetCounter(uint16_t Counter)
    867          {
   \                     TIM2_SetCounter:
   \   000000 9093                  LDW       Y, X
    868              /* Set the Counter Register value */
    869              TIM2->CNTRH = (uint8_t)(Counter >> 8);
   \   000002 4F                    CLR       A
   \   000003 01                    RRWA      X, A
   \   000004 9F                    LD        A, XL
   \   000005 C7530A                LD        L:0x530a, A
    870              TIM2->CNTRL = (uint8_t)(Counter);
   \   000008 909F                  LD        A, YL
   \   00000A C7530B                LD        L:0x530b, A
    871          
    872          }
   \   00000D 87                    RETF
    873          
    874          
    875          /**
    876            * @brief  Sets the TIM2 Autoreload Register value.
    877            * @param   Autoreload specifies the Autoreload register new value.
    878            * This parameter is between 0x0000 and 0xFFFF.
    879            * @retval None
    880            */

   \                                 In section .far_func.text, align 1, keep-with-next
    881          void TIM2_SetAutoreload(uint16_t Autoreload)
    882          {
   \                     TIM2_SetAutoreload:
   \   000000 9093                  LDW       Y, X
    883          
    884              /* Set the Autoreload Register value */
    885              TIM2->ARRH = (uint8_t)(Autoreload >> 8);
   \   000002 8D000000              CALLF     ?Subroutine9
    886              TIM2->ARRL = (uint8_t)(Autoreload);
    887          
    888          }
   \                     ??CrossCallReturnLabel_67:
   \   000006 87                    RETF
    889          
    890          
    891          /**
    892            * @brief  Sets the TIM2 Capture Compare1 Register value.
    893            * @param   Compare1 specifies the Capture Compare1 register new value.
    894            * This parameter is between 0x0000 and 0xFFFF.
    895            * @retval None
    896            */

   \                                 In section .far_func.text, align 1, keep-with-next
    897          void TIM2_SetCompare1(uint16_t Compare1)
    898          {
   \                     TIM2_SetCompare1:
   \   000000 9093                  LDW       Y, X
    899              /* Set the Capture Compare1 Register value */
    900              TIM2->CCR1H = (uint8_t)(Compare1 >> 8);
   \   000002 4F                    CLR       A
   \   000003 01                    RRWA      X, A
   \   000004 9F                    LD        A, XL
   \   000005 C7530F                LD        L:0x530f, A
    901              TIM2->CCR1L = (uint8_t)(Compare1);
   \   000008 909F                  LD        A, YL
   \   00000A C75310                LD        L:0x5310, A
    902          
    903          }
   \   00000D 87                    RETF
    904          
    905          
    906          /**
    907            * @brief  Sets the TIM2 Capture Compare2 Register value.
    908            * @param   Compare2 specifies the Capture Compare2 register new value.
    909            * This parameter is between 0x0000 and 0xFFFF.
    910            * @retval None
    911            */

   \                                 In section .far_func.text, align 1, keep-with-next
    912          void TIM2_SetCompare2(uint16_t Compare2)
    913          {
   \                     TIM2_SetCompare2:
   \   000000 9093                  LDW       Y, X
    914              /* Set the Capture Compare2 Register value */
    915              TIM2->CCR2H = (uint8_t)(Compare2 >> 8);
   \   000002 4F                    CLR       A
   \   000003 01                    RRWA      X, A
   \   000004 9F                    LD        A, XL
   \   000005 C75311                LD        L:0x5311, A
    916              TIM2->CCR2L = (uint8_t)(Compare2);
   \   000008 909F                  LD        A, YL
   \   00000A C75312                LD        L:0x5312, A
    917          
    918          }
   \   00000D 87                    RETF
    919          
    920          
    921          /**
    922            * @brief  Sets the TIM2 Capture Compare3 Register value.
    923            * @param   Compare3 specifies the Capture Compare3 register new value.
    924            * This parameter is between 0x0000 and 0xFFFF.
    925            * @retval None
    926            */

   \                                 In section .far_func.text, align 1, keep-with-next
    927          void TIM2_SetCompare3(uint16_t Compare3)
    928          {
   \                     TIM2_SetCompare3:
   \   000000 9093                  LDW       Y, X
    929              /* Set the Capture Compare3 Register value */
    930              TIM2->CCR3H = (uint8_t)(Compare3 >> 8);
   \   000002 4F                    CLR       A
   \   000003 01                    RRWA      X, A
   \   000004 9F                    LD        A, XL
   \   000005 C75313                LD        L:0x5313, A
    931              TIM2->CCR3L = (uint8_t)(Compare3);
   \   000008 909F                  LD        A, YL
   \   00000A C75314                LD        L:0x5314, A
    932          
    933          }
   \   00000D 87                    RETF
    934          
    935          
    936          /**
    937            * @brief  Sets the TIM2 Input Capture 1 Prescaler.
    938            * @param   TIM2_IC1Prescaler specifies the Input Capture prescaler new value
    939            * This parameter can be one of the following values:
    940            *                       - TIM2_ICPSC_DIV1: no prescaler
    941            *                       - TIM2_ICPSC_DIV2: capture is done once every 2 events
    942            *                       - TIM2_ICPSC_DIV4: capture is done once every 4 events
    943            *                       - TIM2_ICPSC_DIV8: capture is done once every 8 events
    944            * @retval None
    945            */

   \                                 In section .far_func.text, align 1, keep-with-next
    946          void TIM2_SetIC1Prescaler(TIM2_ICPSC_TypeDef TIM2_IC1Prescaler)
    947          {
   \                     TIM2_SetIC1Prescaler:
   \   000000 3B0000                PUSH      S:?b8
   \   000003 B700                  LD        S:?b8, A
    948              /* Check the parameters */
    949              assert_param(IS_TIM2_IC_PRESCALER_OK(TIM2_IC1Prescaler));
   \   000005 2713                  JREQ      L:??CrossCallReturnLabel_53
   \   000007 A104                  CP        A, #0x4
   \   000009 270F                  JREQ      L:??CrossCallReturnLabel_53
   \   00000B A108                  CP        A, #0x8
   \   00000D 270B                  JREQ      L:??CrossCallReturnLabel_53
   \   00000F A10C                  CP        A, #0xc
   \   000011 2707                  JREQ      L:??CrossCallReturnLabel_53
   \   000013 AE03B5                LDW       X, #0x3b5
   \   000016 8D000000              CALLF     ?Subroutine5
    950          
    951              /* Reset the IC1PSC Bits &Set the IC1PSC value */
    952              TIM2->CCMR1 = (uint8_t)((uint8_t)(TIM2->CCMR1 & (uint8_t)(~TIM2_CCMR_ICxPSC))
    953                                      | (uint8_t)TIM2_IC1Prescaler);
   \                     ??CrossCallReturnLabel_53:
   \   00001A C65305                LD        A, L:0x5305
   \   00001D A4F3                  AND       A, #0xf3
   \   00001F BA00                  OR        A, S:?b8
   \   000021 C75305                LD        L:0x5305, A
    954          }
   \   000024 320000                POP       S:?b8
   \   000027 87                    RETF
    955          
    956          /**
    957            * @brief  Sets the TIM2 Input Capture 2 prescaler.
    958            * @param   TIM2_IC2Prescaler specifies the Input Capture prescaler new value
    959            * This parameter can be one of the following values:
    960            *                       - TIM2_ICPSC_DIV1: no prescaler
    961            *                       - TIM2_ICPSC_DIV2: capture is done once every 2 events
    962            *                       - TIM2_ICPSC_DIV4: capture is done once every 4 events
    963            *                       - TIM2_ICPSC_DIV8: capture is done once every 8 events
    964            * @retval None
    965            */

   \                                 In section .far_func.text, align 1, keep-with-next
    966          void TIM2_SetIC2Prescaler(TIM2_ICPSC_TypeDef TIM2_IC2Prescaler)
    967          {
   \                     TIM2_SetIC2Prescaler:
   \   000000 3B0000                PUSH      S:?b8
   \   000003 B700                  LD        S:?b8, A
    968              /* Check the parameters */
    969              assert_param(IS_TIM2_IC_PRESCALER_OK(TIM2_IC2Prescaler));
   \   000005 2713                  JREQ      L:??CrossCallReturnLabel_54
   \   000007 A104                  CP        A, #0x4
   \   000009 270F                  JREQ      L:??CrossCallReturnLabel_54
   \   00000B A108                  CP        A, #0x8
   \   00000D 270B                  JREQ      L:??CrossCallReturnLabel_54
   \   00000F A10C                  CP        A, #0xc
   \   000011 2707                  JREQ      L:??CrossCallReturnLabel_54
   \   000013 AE03C9                LDW       X, #0x3c9
   \   000016 8D000000              CALLF     ?Subroutine5
    970          
    971              /* Reset the IC1PSC Bits &Set the IC1PSC value */
    972              TIM2->CCMR2 = (uint8_t)((uint8_t)(TIM2->CCMR2 & (uint8_t)(~TIM2_CCMR_ICxPSC))
    973                                      | (uint8_t)TIM2_IC2Prescaler);
   \                     ??CrossCallReturnLabel_54:
   \   00001A C65306                LD        A, L:0x5306
   \   00001D A4F3                  AND       A, #0xf3
   \   00001F BA00                  OR        A, S:?b8
   \   000021 C75306                LD        L:0x5306, A
    974          }
   \   000024 320000                POP       S:?b8
   \   000027 87                    RETF
    975          
    976          /**
    977            * @brief  Sets the TIM2 Input Capture 3 prescaler.
    978            * @param   TIM2_IC3Prescaler specifies the Input Capture prescaler new value
    979            * This parameter can be one of the following values:
    980            *                       - TIM2_ICPSC_DIV1: no prescaler
    981            *                       - TIM2_ICPSC_DIV2: capture is done once every 2 events
    982            *                       - TIM2_ICPSC_DIV4: capture is done once every 4 events
    983            *                       - TIM2_ICPSC_DIV8: capture is done once every 8 events
    984            * @retval None
    985            */

   \                                 In section .far_func.text, align 1
    986          void TIM2_SetIC3Prescaler(TIM2_ICPSC_TypeDef TIM2_IC3Prescaler)
    987          {
   \                     TIM2_SetIC3Prescaler:
   \   000000 3B0000                PUSH      S:?b8
   \   000003 B700                  LD        S:?b8, A
    988          
    989              /* Check the parameters */
    990              assert_param(IS_TIM2_IC_PRESCALER_OK(TIM2_IC3Prescaler));
   \   000005 2713                  JREQ      L:??CrossCallReturnLabel_55
   \   000007 A104                  CP        A, #0x4
   \   000009 270F                  JREQ      L:??CrossCallReturnLabel_55
   \   00000B A108                  CP        A, #0x8
   \   00000D 270B                  JREQ      L:??CrossCallReturnLabel_55
   \   00000F A10C                  CP        A, #0xc
   \   000011 2707                  JREQ      L:??CrossCallReturnLabel_55
   \   000013 AE03DE                LDW       X, #0x3de
   \   000016 8D000000              CALLF     ?Subroutine5
    991              /* Reset the IC1PSC Bits &Set the IC1PSC value */
    992              TIM2->CCMR3 = (uint8_t)((uint8_t)(TIM2->CCMR3 & (uint8_t)(~TIM2_CCMR_ICxPSC))
    993                                      | (uint8_t)TIM2_IC3Prescaler);
   \                     ??CrossCallReturnLabel_55:
   \   00001A C65307                LD        A, L:0x5307
   \   00001D A4F3                  AND       A, #0xf3
   \   00001F BA00                  OR        A, S:?b8
   \   000021 C75307                LD        L:0x5307, A
    994          }
   \   000024 320000                POP       S:?b8
   \   000027 87                    RETF
    995          
    996          /**
    997            * @brief  Gets the TIM2 Input Capture 1 value.
    998            * @param  None
    999            * @retval Capture Compare 1 Register value.
   1000            */

   \                                 In section .far_func.text, align 1
   \                     ?Subroutine0:
   \   000000 B700                  LD        S:?b0, A
   \   000002 5F                    CLRW      X
   \   000003 41                    EXG       A, XL
   \   000004 B600                  LD        A, S:?b1
   \   000006 41                    EXG       A, XL
   \   000007 4F                    CLR       A
   \   000008 02                    RLWA      X, A
   \   000009 905F                  CLRW      Y
   \   00000B B600                  LD        A, S:?b0
   \   00000D 61                    EXG       A, YL
   \   00000E BF00                  LDW       S:?w0, X
   \   000010 93                    LDW       X, Y
   \   000011 02                    RLWA      X, A
   \   000012 BA00                  OR        A, S:?b0
   \   000014 01                    RRWA      X, A
   \   000015 87                    RETF

   \                                 In section .far_func.text, align 1
   1001          uint16_t TIM2_GetCapture1(void)
   1002          {
   1003              /* Get the Capture 1 Register value */
   1004              uint16_t tmpccr1 = 0;
   1005              uint8_t tmpccr1l=0, tmpccr1h=0;
   1006          
   1007              tmpccr1h = TIM2->CCR1H;
   \                     TIM2_GetCapture1:
   \   000000 C6530F                LD        A, L:0x530f
   \   000003 B700                  LD        S:?b1, A
   1008              tmpccr1l = TIM2->CCR1L;
   \   000005 C65310                LD        A, L:0x5310
   \   000008 8D000000              CALLF     ?Subroutine0
   1009          
   1010              tmpccr1 = (uint16_t)(tmpccr1l);
   1011              tmpccr1 |= (uint16_t)((uint16_t)tmpccr1h << 8);
   1012              /* Get the Capture 1 Register value */
   1013              return (uint16_t)tmpccr1;
   \                     ??CrossCallReturnLabel_2:
   \   00000C 87                    RETF
   1014          }
   1015          
   1016          /**
   1017            * @brief  Gets the TIM2 Input Capture 2 value.
   1018            * @param  None
   1019            * @retval Capture Compare 2 Register value.
   1020            */

   \                                 In section .far_func.text, align 1
   1021          uint16_t TIM2_GetCapture2(void)
   1022          {
   1023              /* Get the Capture 2 Register value */
   1024              uint16_t tmpccr2 = 0;
   1025              uint8_t tmpccr2l=0, tmpccr2h=0;
   1026          
   1027              tmpccr2h = TIM2->CCR2H;
   \                     TIM2_GetCapture2:
   \   000000 C65311                LD        A, L:0x5311
   \   000003 B700                  LD        S:?b1, A
   1028              tmpccr2l = TIM2->CCR2L;
   \   000005 C65312                LD        A, L:0x5312
   \   000008 8D000000              CALLF     ?Subroutine0
   1029          
   1030              tmpccr2 = (uint16_t)(tmpccr2l);
   1031              tmpccr2 |= (uint16_t)((uint16_t)tmpccr2h << 8);
   1032              /* Get the Capture 2 Register value */
   1033              return (uint16_t)tmpccr2;
   \                     ??CrossCallReturnLabel_1:
   \   00000C 87                    RETF
   1034          }
   1035          
   1036          /**
   1037            * @brief  Gets the TIM2 Input Capture 3 value.
   1038            * @param  None
   1039            * @retval Capture Compare 3 Register value.
   1040            */

   \                                 In section .far_func.text, align 1
   1041          uint16_t TIM2_GetCapture3(void)
   1042          {
   1043              /* Get the Capture 3 Register value */
   1044              uint16_t tmpccr3 = 0;
   1045              uint8_t tmpccr3l=0, tmpccr3h=0;
   1046          
   1047              tmpccr3h = TIM2->CCR3H;
   \                     TIM2_GetCapture3:
   \   000000 C65313                LD        A, L:0x5313
   \   000003 B700                  LD        S:?b1, A
   1048              tmpccr3l = TIM2->CCR3L;
   \   000005 C65314                LD        A, L:0x5314
   \   000008 8D000000              CALLF     ?Subroutine0
   1049          
   1050              tmpccr3 = (uint16_t)(tmpccr3l);
   1051              tmpccr3 |= (uint16_t)((uint16_t)tmpccr3h << 8);
   1052              /* Get the Capture 3 Register value */
   1053              return (uint16_t)tmpccr3;
   \                     ??CrossCallReturnLabel_0:
   \   00000C 87                    RETF
   1054          }
   1055          
   1056          /**
   1057            * @brief  Gets the TIM2 Counter value.
   1058            * @param  None
   1059            * @retval Counter Register value.
   1060            */

   \                                 In section .far_func.text, align 1
   1061          uint16_t TIM2_GetCounter(void)
   1062          {
   1063               uint16_t tmpcntr = 0;
   1064               
   1065              tmpcntr =  ((uint16_t)TIM2->CNTRH << 8);
   \                     TIM2_GetCounter:
   \   000000 C6530A                LD        A, L:0x530a
   1066              /* Get the Counter Register value */
   1067              return (uint16_t)( tmpcntr| (uint16_t)(TIM2->CNTRL));
   \   000003 5F                    CLRW      X
   \   000004 97                    LD        XL, A
   \   000005 4F                    CLR       A
   \   000006 02                    RLWA      X, A
   \   000007 C6530B                LD        A, L:0x530b
   \   00000A 905F                  CLRW      Y
   \   00000C 9097                  LD        YL, A
   \   00000E 90BF00                LDW       S:?w0, Y
   \   000011 01                    RRWA      X, A
   \   000012 BA00                  OR        A, S:?b1
   \   000014 02                    RLWA      X, A
   \   000015 87                    RETF
   1068          }
   1069          
   1070          
   1071          /**
   1072            * @brief  Gets the TIM2 Prescaler value.
   1073            * @param  None
   1074            * @retval Prescaler Register configuration value  @ref TIM2_Prescaler_TypeDef.
   1075            */

   \                                 In section .far_func.text, align 1
   1076          TIM2_Prescaler_TypeDef TIM2_GetPrescaler(void)
   1077          {
   1078              /* Get the Prescaler Register value */
   1079              return (TIM2_Prescaler_TypeDef)(TIM2->PSCR);
   \                     TIM2_GetPrescaler:
   \   000000 C6530C                LD        A, L:0x530c
   \   000003 87                    RETF
   1080          }
   1081          
   1082          
   1083          /**
   1084            * @brief  Checks whether the specified TIM2 flag is set or not.
   1085            * @param   TIM2_FLAG specifies the flag to check.
   1086            * This parameter can be one of the following values:
   1087            *                       - TIM2_FLAG_UPDATE: TIM2 update Flag
   1088            *                       - TIM2_FLAG_CC1: TIM2 Capture Compare 1 Flag
   1089            *                       - TIM2_FLAG_CC2: TIM2 Capture Compare 2 Flag
   1090            *                       - TIM2_FLAG_CC3: TIM2 Capture Compare 3 Flag
   1091            *                       - TIM2_FLAG_CC1OF: TIM2 Capture Compare 1 over capture Flag
   1092            *                       - TIM2_FLAG_CC2OF: TIM2 Capture Compare 2 over capture Flag
   1093            *                       - TIM2_FLAG_CC3OF: TIM2 Capture Compare 3 over capture Flag
   1094            * @retval FlagStatus The new state of TIM2_FLAG (SET or RESET).
   1095            */

   \                                 In section .far_func.text, align 1
   1096          FlagStatus TIM2_GetFlagStatus(TIM2_FLAG_TypeDef TIM2_FLAG)
   1097          {
   \                     TIM2_GetFlagStatus:
   \   000000 8D000000              CALLF     L:?push_w4
   \   000004 BF00                  LDW       S:?w4, X
   1098              FlagStatus bitstatus = RESET;
   1099              uint8_t tim2_flag_l = 0, tim2_flag_h = 0;
   1100          
   1101              /* Check the parameters */
   1102              assert_param(IS_TIM2_GET_FLAG_OK(TIM2_FLAG));
   \   000006 A30001                CPW       X, #0x1
   \   000009 2725                  JREQ      L:??CrossCallReturnLabel_56
   \   00000B A30002                CPW       X, #0x2
   \   00000E 2720                  JREQ      L:??CrossCallReturnLabel_56
   \   000010 A30004                CPW       X, #0x4
   \   000013 271B                  JREQ      L:??CrossCallReturnLabel_56
   \   000015 A30008                CPW       X, #0x8
   \   000018 2716                  JREQ      L:??CrossCallReturnLabel_56
   \   00001A A30200                CPW       X, #0x200
   \   00001D 2711                  JREQ      L:??CrossCallReturnLabel_56
   \   00001F A30400                CPW       X, #0x400
   \   000022 270C                  JREQ      L:??CrossCallReturnLabel_56
   \   000024 A30800                CPW       X, #0x800
   \   000027 2707                  JREQ      L:??CrossCallReturnLabel_56
   \   000029 AE044E                LDW       X, #0x44e
   \   00002C 8D000000              CALLF     ?Subroutine5
   1103          
   1104              tim2_flag_l = (uint8_t)(TIM2->SR1 & (uint8_t)TIM2_FLAG);
   \                     ??CrossCallReturnLabel_56:
   \   000030 C65302                LD        A, L:0x5302
   \   000033 B700                  LD        S:?b1, A
   1105              tim2_flag_h = (uint8_t)((uint16_t)TIM2_FLAG >> 8);
   1106          
   1107              if ((tim2_flag_l | (uint8_t)(TIM2->SR2 & tim2_flag_h)) != (uint8_t)RESET )
   \   000035 BE00                  LDW       X, S:?w4
   \   000037 4F                    CLR       A
   \   000038 01                    RRWA      X, A
   \   000039 9F                    LD        A, XL
   \   00003A C45303                AND       A, L:0x5303
   \   00003D 88                    PUSH      A
   \   00003E B600                  LD        A, S:?b9
   \   000040 B400                  AND       A, S:?b1
   \   000042 B700                  LD        S:?b1, A
   \   000044 84                    POP       A
   \   000045 BA00                  OR        A, S:?b1
   \   000047 2706                  JREQ      L:??TIM2_GetFlagStatus_0
   1108              {
   1109                  bitstatus = SET;
   \   000049 A601                  LD        A, #0x1
   \   00004B AC000000              JPF       L:?epilogue_w4
   1110              }
   1111              else
   1112              {
   1113                  bitstatus = RESET;
   \                     ??TIM2_GetFlagStatus_0:
   \   00004F 4F                    CLR       A
   1114              }
   1115              return (FlagStatus)bitstatus;
   \   000050 AC000000              JPF       L:?epilogue_w4
   1116          }
   1117          
   1118          
   1119          /**
   1120            * @brief  Clears the TIM2s pending flags.
   1121            * @param   TIM2_FLAG specifies the flag to clear.
   1122            * This parameter can be one of the following values:
   1123            *                       - TIM2_FLAG_UPDATE: TIM2 update Flag
   1124            *                       - TIM2_FLAG_CC1: TIM2 Capture Compare 1 Flag
   1125            *                       - TIM2_FLAG_CC2: TIM2 Capture Compare 2 Flag
   1126            *                       - TIM2_FLAG_CC3: TIM2 Capture Compare 3 Flag
   1127            *                       - TIM2_FLAG_CC1OF: TIM2 Capture Compare 1 over capture Flag
   1128            *                       - TIM2_FLAG_CC2OF: TIM2 Capture Compare 2 over capture Flag
   1129            *                       - TIM2_FLAG_CC3OF: TIM2 Capture Compare 3 over capture Flag
   1130            * @retval None.
   1131            */

   \                                 In section .far_func.text, align 1
   1132          void TIM2_ClearFlag(TIM2_FLAG_TypeDef TIM2_FLAG)
   1133          {
   \                     TIM2_ClearFlag:
   \   000000 8D000000              CALLF     L:?push_w4
   \   000004 BF00                  LDW       S:?w4, X
   1134              /* Check the parameters */
   1135              assert_param(IS_TIM2_CLEAR_FLAG_OK(TIM2_FLAG));
   \   000006 02                    RLWA      X, A
   \   000007 A4F1                  AND       A, #0xf1
   \   000009 02                    RLWA      X, A
   \   00000A A4F0                  AND       A, #0xf0
   \   00000C 02                    RLWA      X, A
   \   00000D 5D                    TNZW      X
   \   00000E 2604                  JRNE      L:??TIM2_ClearFlag_0
   \   000010 BE00                  LDW       X, S:?w4
   \   000012 2607                  JRNE      L:??CrossCallReturnLabel_57
   \                     ??TIM2_ClearFlag_0:
   \   000014 AE046F                LDW       X, #0x46f
   \   000017 8D000000              CALLF     ?Subroutine5
   1136          
   1137              /* Clear the flags (rc_w0) clear this bit by writing 0. Writing 1 has no effect*/
   1138              TIM2->SR1 = (uint8_t)(~((uint8_t)(TIM2_FLAG)));
   \                     ??CrossCallReturnLabel_57:
   \   00001B B600                  LD        A, S:?b9
   \   00001D 43                    CPL       A
   \   00001E C75302                LD        L:0x5302, A
   1139              TIM2->SR2 = (uint8_t)(~((uint8_t)((uint8_t)TIM2_FLAG >> 8)));
   \   000021 35FF5303              MOV       L:0x5303, #0xff
   1140          }
   \   000025 AC000000              JPF       L:?epilogue_w4
   1141          
   1142          
   1143          /**
   1144            * @brief  Checks whether the TIM2 interrupt has occurred or not.
   1145            * @param   TIM2_IT specifies the TIM2 interrupt source to check.
   1146            * This parameter can be one of the following values:
   1147            *                       - TIM2_IT_UPDATE: TIM2 update Interrupt source
   1148            *                       - TIM2_IT_CC1: TIM2 Capture Compare 1 Interrupt source
   1149            *                       - TIM2_IT_CC2: TIM2 Capture Compare 2 Interrupt source
   1150            *                       - TIM2_IT_CC3: TIM2 Capture Compare 3 Interrupt source
   1151            * @retval ITStatus The new state of the TIM2_IT(SET or RESET).
   1152            */
   1153          

   \                                 In section .far_func.text, align 1
   1154          ITStatus TIM2_GetITStatus(TIM2_IT_TypeDef TIM2_IT)
   1155          {
   \                     TIM2_GetITStatus:
   \   000000 3B0000                PUSH      S:?b8
   \   000003 B700                  LD        S:?b8, A
   1156              ITStatus bitstatus = RESET;
   1157              uint8_t TIM2_itStatus = 0, TIM2_itEnable = 0;
   1158          
   1159              /* Check the parameters */
   1160              assert_param(IS_TIM2_GET_IT_OK(TIM2_IT));
   \   000005 A101                  CP        A, #0x1
   \   000007 2713                  JREQ      L:??CrossCallReturnLabel_58
   \   000009 A102                  CP        A, #0x2
   \   00000B 270F                  JREQ      L:??CrossCallReturnLabel_58
   \   00000D A104                  CP        A, #0x4
   \   00000F 270B                  JREQ      L:??CrossCallReturnLabel_58
   \   000011 A108                  CP        A, #0x8
   \   000013 2707                  JREQ      L:??CrossCallReturnLabel_58
   \   000015 AE0488                LDW       X, #0x488
   \   000018 8D000000              CALLF     ?Subroutine5
   1161          
   1162              TIM2_itStatus = (uint8_t)(TIM2->SR1 & TIM2_IT);
   \                     ??CrossCallReturnLabel_58:
   \   00001C C65302                LD        A, L:0x5302
   \   00001F B700                  LD        S:?b1, A
   1163          
   1164              TIM2_itEnable = (uint8_t)(TIM2->IER & TIM2_IT);
   \   000021 B600                  LD        A, S:?b8
   \   000023 C45301                AND       A, L:0x5301
   \   000026 B700                  LD        S:?b0, A
   1165          
   1166              if ((TIM2_itStatus != (uint8_t)RESET ) && (TIM2_itEnable != (uint8_t)RESET ))
   \   000028 B600                  LD        A, S:?b8
   \   00002A B500                  BCP       A, S:?b1
   \   00002C 2708                  JREQ      L:??TIM2_GetITStatus_0
   \   00002E 3D00                  TNZ       S:?b0
   \   000030 2704                  JREQ      L:??TIM2_GetITStatus_0
   1167              {
   1168                  bitstatus = SET;
   \   000032 A601                  LD        A, #0x1
   \   000034 2001                  JRA       L:??TIM2_GetITStatus_1
   1169              }
   1170              else
   1171              {
   1172                  bitstatus = RESET;
   \                     ??TIM2_GetITStatus_0:
   \   000036 4F                    CLR       A
   1173              }
   1174              return (ITStatus)(bitstatus);
   \                     ??TIM2_GetITStatus_1:
   \   000037 320000                POP       S:?b8
   \   00003A 87                    RETF
   1175          }
   1176          
   1177          
   1178          /**
   1179            * @brief  Clears the TIM2's interrupt pending bits.
   1180            * @param   TIM2_IT specifies the pending bit to clear.
   1181            * This parameter can be one of the following values:
   1182            *                       - TIM2_IT_UPDATE: TIM2 update Interrupt source
   1183            *                       - TIM2_IT_CC1: TIM2 Capture Compare 1 Interrupt source
   1184            *                       - TIM2_IT_CC2: TIM2 Capture Compare 2 Interrupt source
   1185            *                       - TIM2_IT_CC3: TIM2 Capture Compare 3 Interrupt source
   1186            * @retval None.
   1187            */

   \                                 In section .far_func.text, align 1
   1188          void TIM2_ClearITPendingBit(TIM2_IT_TypeDef TIM2_IT)
   1189          {
   \                     TIM2_ClearITPendingBit:
   \   000000 3B0000                PUSH      S:?b8
   \   000003 B700                  LD        S:?b8, A
   1190              /* Check the parameters */
   1191              assert_param(IS_TIM2_IT_OK(TIM2_IT));
   \   000005 2704                  JREQ      L:??TIM2_ClearITPendingBit_0
   \   000007 A110                  CP        A, #0x10
   \   000009 2507                  JRC       L:??CrossCallReturnLabel_59
   \                     ??TIM2_ClearITPendingBit_0:
   \   00000B AE04A7                LDW       X, #0x4a7
   \   00000E 8D000000              CALLF     ?Subroutine5
   1192          
   1193              /* Clear the IT pending Bit */
   1194              TIM2->SR1 = (uint8_t)(~TIM2_IT);
   \                     ??CrossCallReturnLabel_59:
   \   000012 3300                  CPL       S:?b8
   \   000014 B600                  LD        A, S:?b8
   \   000016 C75302                LD        L:0x5302, A
   1195          }
   \   000019 320000                POP       S:?b8
   \   00001C 87                    RETF
   1196          
   1197          
   1198          /**
   1199            * @brief  Configure the TI1 as Input.
   1200            * @param   TIM2_ICPolarity  The Input Polarity.
   1201            * This parameter can be one of the following values:
   1202            *                       - TIM2_ICPOLARITY_FALLING
   1203            *                       - TIM2_ICPOLARITY_RISING
   1204            * @param   TIM2_ICSelection specifies the input to be used.
   1205            * This parameter can be one of the following values:
   1206            *                       - TIM2_ICSELECTION_DIRECTTI: TIM2 Input 1 is selected to
   1207            *                         be connected to IC1.
   1208            *                       - TIM2_ICSELECTION_INDIRECTTI: TIM2 Input 1 is selected to
   1209            *                         be connected to IC2.
   1210            * @param   TIM2_ICFilter Specifies the Input Capture Filter.
   1211            * This parameter must be a value between 0x00 and 0x0F.
   1212            * @retval None
   1213            */

   \                                 In section .far_func.text, align 1
   \                     ?Subroutine1:
   \   000000 A40C                  AND       A, #0xc
   \   000002 BA00                  OR        A, S:?b0
   \   000004 B700                  LD        S:?b0, A
   \   000006 B600                  LD        A, S:?b1
   \   000008 4E                    SWAP      A
   \   000009 A4F0                  AND       A, #0xf0
   \   00000B BA00                  OR        A, S:?b0
   \   00000D 87                    RETF

   \                                 In section .far_func.text, align 1
   1214          static void TI1_Config(uint8_t TIM2_ICPolarity,
   1215                                 uint8_t TIM2_ICSelection,
   1216                                 uint8_t TIM2_ICFilter)
   1217          {
   \                     TI1_Config:
   \   000000 B700                  LD        S:?b2, A
   1218              /* Disable the Channel 1: Reset the CCE Bit */
   1219              TIM2->CCER1 &= (uint8_t)(~TIM2_CCER1_CC1E);
   \   000002 72115308              BRES      L:0x5308, #0x0
   1220          
   1221              /* Select the Input and set the filter */
   1222              TIM2->CCMR1  = (uint8_t)((uint8_t)(TIM2->CCMR1 & (uint8_t)(~(uint8_t)( TIM2_CCMR_CCxS | TIM2_CCMR_ICxF )))
   1223                                       | (uint8_t)(((TIM2_ICSelection)) | ((uint8_t)( TIM2_ICFilter << 4))));
   \   000006 C65305                LD        A, L:0x5305
   \   000009 8D000000              CALLF     ?Subroutine1
   \                     ??CrossCallReturnLabel_5:
   \   00000D C75305                LD        L:0x5305, A
   1224          
   1225              /* Select the Polarity */
   1226              if (TIM2_ICPolarity != TIM2_ICPOLARITY_RISING)
   \   000010 3D00                  TNZ       S:?b2
   \   000012 2706                  JREQ      L:??TI1_Config_0
   1227              {
   1228                  TIM2->CCER1 |= TIM2_CCER1_CC1P;
   \   000014 72125308              BSET      L:0x5308, #0x1
   \   000018 2004                  JRA       L:??TI1_Config_1
   1229              }
   1230              else
   1231              {
   1232                  TIM2->CCER1 &= (uint8_t)(~TIM2_CCER1_CC1P);
   \                     ??TI1_Config_0:
   \   00001A 72135308              BRES      L:0x5308, #0x1
   1233              }
   1234              /* Set the CCE Bit */
   1235              TIM2->CCER1 |= TIM2_CCER1_CC1E;
   \                     ??TI1_Config_1:
   \   00001E 72105308              BSET      L:0x5308, #0x0
   1236          }
   \   000022 87                    RETF
   1237          
   1238          
   1239          /**
   1240            * @brief  Configure the TI2 as Input.
   1241            * @param   TIM2_ICPolarity  The Input Polarity.
   1242            * This parameter can be one of the following values:
   1243            *                       - TIM2_ICPOLARITY_FALLING
   1244            *                       - TIM2_ICPOLARITY_RISING
   1245            * @param   TIM2_ICSelection specifies the input to be used.
   1246            * This parameter can be one of the following values:
   1247            *                       - TIM2_ICSELECTION_DIRECTTI: TIM2 Input 2 is selected to
   1248            *                         be connected to IC2.
   1249            *                       - TIM2_ICSELECTION_INDIRECTTI: TIM2 Input 2 is selected to
   1250            *                         be connected to IC1.
   1251            * @param   TIM2_ICFilter Specifies the Input Capture Filter.
   1252            * This parameter must be a value between 0x00 and 0x0F.
   1253            * @retval None
   1254            */

   \                                 In section .far_func.text, align 1
   1255          static void TI2_Config(uint8_t TIM2_ICPolarity,
   1256                                 uint8_t TIM2_ICSelection,
   1257                                 uint8_t TIM2_ICFilter)
   1258          {
   \                     TI2_Config:
   \   000000 B700                  LD        S:?b2, A
   1259              /* Disable the Channel 2: Reset the CCE Bit */
   1260              TIM2->CCER1 &= (uint8_t)(~TIM2_CCER1_CC2E);
   \   000002 72195308              BRES      L:0x5308, #0x4
   1261          
   1262              /* Select the Input and set the filter */
   1263              TIM2->CCMR2 = (uint8_t)((uint8_t)(TIM2->CCMR2 & (uint8_t)(~(uint8_t)( TIM2_CCMR_CCxS | TIM2_CCMR_ICxF ))) 
   1264                                      | (uint8_t)(( (TIM2_ICSelection)) | ((uint8_t)( TIM2_ICFilter << 4))));
   \   000006 C65306                LD        A, L:0x5306
   \   000009 8D000000              CALLF     ?Subroutine1
   \                     ??CrossCallReturnLabel_4:
   \   00000D C75306                LD        L:0x5306, A
   1265          
   1266          
   1267              /* Select the Polarity */
   1268              if (TIM2_ICPolarity != TIM2_ICPOLARITY_RISING)
   \   000010 3D00                  TNZ       S:?b2
   \   000012 2706                  JREQ      L:??TI2_Config_0
   1269              {
   1270                  TIM2->CCER1 |= TIM2_CCER1_CC2P;
   \   000014 721A5308              BSET      L:0x5308, #0x5
   \   000018 2004                  JRA       L:??TI2_Config_1
   1271              }
   1272              else
   1273              {
   1274                  TIM2->CCER1 &= (uint8_t)(~TIM2_CCER1_CC2P);
   \                     ??TI2_Config_0:
   \   00001A 721B5308              BRES      L:0x5308, #0x5
   1275              }
   1276          
   1277              /* Set the CCE Bit */
   1278              TIM2->CCER1 |= TIM2_CCER1_CC2E;
   \                     ??TI2_Config_1:
   \   00001E 72185308              BSET      L:0x5308, #0x4
   1279          
   1280          }
   \   000022 87                    RETF
   1281          
   1282          /**
   1283            * @brief  Configure the TI3 as Input.
   1284            * @param   TIM2_ICPolarity  The Input Polarity.
   1285            * This parameter can be one of the following values:
   1286            *                       - TIM2_ICPOLARITY_FALLING
   1287            *                       - TIM2_ICPOLARITY_RISING
   1288            * @param   TIM2_ICSelection specifies the input to be used.
   1289            * This parameter can be one of the following values:
   1290            *                       - TIM2_ICSELECTION_DIRECTTI: TIM2 Input 3 is selected to
   1291            *                         be connected to IC3.
   1292            * @param   TIM2_ICFilter Specifies the Input Capture Filter.
   1293            * This parameter must be a value between 0x00 and 0x0F.
   1294            * @retval None
   1295            */

   \                                 In section .far_func.text, align 1
   1296          static void TI3_Config(uint8_t TIM2_ICPolarity, uint8_t TIM2_ICSelection,
   1297                                 uint8_t TIM2_ICFilter)
   1298          {
   \                     TI3_Config:
   \   000000 B700                  LD        S:?b2, A
   1299              /* Disable the Channel 3: Reset the CCE Bit */
   1300              TIM2->CCER2 &=  (uint8_t)(~TIM2_CCER2_CC3E);
   \   000002 72115309              BRES      L:0x5309, #0x0
   1301          
   1302              /* Select the Input and set the filter */
   1303              TIM2->CCMR3 = (uint8_t)((uint8_t)(TIM2->CCMR3 & (uint8_t)(~( TIM2_CCMR_CCxS | TIM2_CCMR_ICxF))) 
   1304                                      | (uint8_t)(( (TIM2_ICSelection)) | ((uint8_t)( TIM2_ICFilter << 4))));
   \   000006 C65307                LD        A, L:0x5307
   \   000009 8D000000              CALLF     ?Subroutine1
   \                     ??CrossCallReturnLabel_3:
   \   00000D C75307                LD        L:0x5307, A
   1305          
   1306          
   1307              /* Select the Polarity */
   1308              if (TIM2_ICPolarity != TIM2_ICPOLARITY_RISING)
   \   000010 3D00                  TNZ       S:?b2
   \   000012 2706                  JREQ      L:??TI3_Config_0
   1309              {
   1310                  TIM2->CCER2 |= TIM2_CCER2_CC3P;
   \   000014 72125309              BSET      L:0x5309, #0x1
   \   000018 2004                  JRA       L:??TI3_Config_1
   1311              }
   1312              else
   1313              {
   1314                  TIM2->CCER2 &= (uint8_t)(~TIM2_CCER2_CC3P);
   \                     ??TI3_Config_0:
   \   00001A 72135309              BRES      L:0x5309, #0x1
   1315              }
   1316              /* Set the CCE Bit */
   1317              TIM2->CCER2 |= TIM2_CCER2_CC3E;
   \                     ??TI3_Config_1:
   \   00001E 72105309              BSET      L:0x5309, #0x0
   1318          }
   \   000022 87                    RETF

   \                                 In section .near.rodata, align 1
   \                     `?<Constant "C:\\\\Documents and Sett...">`:
   \   000000 433A5C446F63          DC8 43H, 3AH, 5CH, 44H, 6FH, 63H, 75H, 6DH
   \   000008 656E74732061          DC8 65H, 6EH, 74H, 73H, 20H, 61H, 6EH, 64H
   \   000010 205365747469          DC8 20H, 53H, 65H, 74H, 74H, 69H, 6EH, 67H
   \   000018 735C41646D69          DC8 73H, 5CH, 41H, 64H, 6DH, 69H, 6EH, 69H
   \   000020 73747261746F          DC8 73H, 74H, 72H, 61H, 74H, 6FH, 72H, 5CH
   \   000028 4465736B746F          DC8 44H, 65H, 73H, 6BH, 74H, 6FH, 70H, 5CH
   \   000030 73746D387331          DC8 73H, 74H, 6DH, 38H, 73H, 31H, 30H, 35H
   \   000038 6B2D636F6E74          DC8 6BH, 2DH, 63H, 6FH, 6EH, 74H, 72H, 6FH
   \   000040 6C6C65725C4C          DC8 6CH, 6CH, 65H, 72H, 5CH, 4CH, 69H, 62H
   \   000048 726172696573          DC8 72H, 61H, 72H, 69H, 65H, 73H, 5CH, 53H
   \   000050 544D38535F53          DC8 54H, 4DH, 38H, 53H, 5FH, 53H, 74H, 64H
   \   000058 506572697068          DC8 50H, 65H, 72H, 69H, 70H, 68H, 5FH, 44H
   \   000060 72697665725C          DC8 72H, 69H, 76H, 65H, 72H, 5CH, 73H, 72H
   \   000068 635C73746D38          DC8 63H, 5CH, 73H, 74H, 6DH, 38H, 73H, 5FH
   \   000070 74696D322E63          DC8 74H, 69H, 6DH, 32H, 2EH, 63H, 0
   1319          /**
   1320            * @}
   1321            */
   1322            
   1323            /**
   1324            * @}
   1325            */
   1326          /******************* (C) COPYRIGHT 2011 STMicroelectronics *****END OF FILE****/

   Section sizes:

     Function/Label                          Bytes
     --------------                          -----
     TIM2_DeInit                               89
     TIM2_TimeBaseInit                         10
     ?Subroutine9                              12
     ?Subroutine5                              12
     ?Subroutine6                              13
     TIM2_OC1Init                             128
     ?Subroutine10                             11
     ?Subroutine4                              11
     TIM2_OC2Init                             134
     ?Subroutine3                              11
     TIM2_OC3Init                             128
     ?Subroutine2                              11
     TIM2_ICInit                              157
     ?Subroutine11                             15
     ?Subroutine8                               7
     ?Subroutine12                             10
     ?Subroutine7                               7
     ?Subroutine13                             10
     TIM2_PWMIConfig                          172
     TIM2_Cmd                                  24
     TIM2_ITConfig                             60
     TIM2_UpdateDisableConfig                  24
     TIM2_UpdateRequestConfig                  24
     TIM2_SelectOnePulseMode                   24
     TIM2_PrescalerConfig                     113
     TIM2_ForcedOC1Config                      28
     TIM2_ForcedOC2Config                      28
     TIM2_ForcedOC3Config                      28
     TIM2_ARRPreloadConfig                     24
     TIM2_OC1PreloadConfig                     24
     TIM2_OC2PreloadConfig                     24
     TIM2_OC3PreloadConfig                     24
     TIM2_GenerateEvent                        23
     TIM2_OC1PolarityConfig                    24
     TIM2_OC2PolarityConfig                    24
     TIM2_OC3PolarityConfig                    24
     TIM2_CCxCmd                              113
     TIM2_SelectOCxM                          131
     TIM2_SetCounter                           14
     TIM2_SetAutoreload                         7
     TIM2_SetCompare1                          14
     TIM2_SetCompare2                          14
     TIM2_SetCompare3                          14
     TIM2_SetIC1Prescaler                      40
     TIM2_SetIC2Prescaler                      40
     TIM2_SetIC3Prescaler                      40
     ?Subroutine0                              22
     TIM2_GetCapture1                          13
     TIM2_GetCapture2                          13
     TIM2_GetCapture3                          13
     TIM2_GetCounter                           22
     TIM2_GetPrescaler                          4
     TIM2_GetFlagStatus                        84
     TIM2_ClearFlag                            41
     TIM2_GetITStatus                          59
     TIM2_ClearITPendingBit                    29
     ?Subroutine1                              14
     TI1_Config                                35
     TI2_Config                                35
     TI3_Config                                35
     ?<Constant "C:\\Documents and Sett...">  119

 
 2 338 bytes in section .far_func.text
   119 bytes in section .near.rodata
 
 2 338 bytes of CODE  memory
   119 bytes of CONST memory

Errors: none
Warnings: none
