###############################################################################
#                                                                             #
# IAR C/C++ Compiler V1.30.1.50036 for STM8             14/Aug/2013  09:25:07 #
# Copyright 2010-2011 IAR Systems AB.                                         #
#                                                                             #
#    Source file  =  C:\Users\Administrator\Desktop\stm8s105k-controller\Libr #
#                    aries\STM8S_StdPeriph_Driver\src\stm8s_awu.c             #
#    Command line =  C:\Users\Administrator\Desktop\stm8s105k-controller\Libr #
#                    aries\STM8S_StdPeriph_Driver\src\stm8s_awu.c -e -Ohz     #
#                    --debug --code_model medium --data_model medium -o       #
#                    C:\Users\Administrator\Desktop\stm8s105k-controller\Proj #
#                    ect\STM8S_StdPeriph_Template\EWSTM8\STM8S105\Obj\        #
#                    --dlib_config "C:\Program Files (x86)\IAR                #
#                    Systems\Embedded Workbench 6.0\stm8\LIB\dlstm8mmf.h" -D  #
#                    STM8S105 -lC C:\Users\Administrator\Desktop\stm8s105k-co #
#                    ntroller\Project\STM8S_StdPeriph_Template\EWSTM8\STM8S10 #
#                    5\List\ -lA C:\Users\Administrator\Desktop\stm8s105k-con #
#                    troller\Project\STM8S_StdPeriph_Template\EWSTM8\STM8S105 #
#                    \List\ -I C:\Users\Administrator\Desktop\stm8s105k-contr #
#                    oller\Project\STM8S_StdPeriph_Template\EWSTM8\..\ -I     #
#                    C:\Users\Administrator\Desktop\stm8s105k-controller\Proj #
#                    ect\STM8S_StdPeriph_Template\EWSTM8\..\..\..\Libraries\S #
#                    TM8S_StdPeriph_Driver\inc\ --vregs 16                    #
#    List file    =  C:\Users\Administrator\Desktop\stm8s105k-controller\Proj #
#                    ect\STM8S_StdPeriph_Template\EWSTM8\STM8S105\List\stm8s_ #
#                    awu.lst                                                  #
#    Object file  =  C:\Users\Administrator\Desktop\stm8s105k-controller\Proj #
#                    ect\STM8S_StdPeriph_Template\EWSTM8\STM8S105\Obj\stm8s_a #
#                    wu.o                                                     #
#                                                                             #
#                                                                             #
###############################################################################

C:\Users\Administrator\Desktop\stm8s105k-controller\Libraries\STM8S_StdPeriph_Driver\src\stm8s_awu.c
      1          /**
      2            ******************************************************************************
      3            * @file    stm8s_awu.c
      4            * @author  MCD Application Team
      5            * @version V2.1.0
      6            * @date    18-November-2011
      7            * @brief   This file contains all the functions for the AWU peripheral.  
      8            ******************************************************************************
      9            * @attention
     10            *
     11            * THE PRESENT FIRMWARE WHICH IS FOR GUIDANCE ONLY AIMS AT PROVIDING CUSTOMERS
     12            * WITH CODING INFORMATION REGARDING THEIR PRODUCTS IN ORDER FOR THEM TO SAVE
     13            * TIME. AS A RESULT, STMICROELECTRONICS SHALL NOT BE HELD LIABLE FOR ANY
     14            * DIRECT, INDIRECT OR CONSEQUENTIAL DAMAGES WITH RESPECT TO ANY CLAIMS ARISING
     15            * FROM THE CONTENT OF SUCH FIRMWARE AND/OR THE USE MADE BY CUSTOMERS OF THE
     16            * CODING INFORMATION CONTAINED HEREIN IN CONNECTION WITH THEIR PRODUCTS.
     17            *
     18            * <h2><center>&copy; COPYRIGHT 2011 STMicroelectronics</center></h2>
     19            ******************************************************************************
     20            */
     21          
     22          /* Includes ------------------------------------------------------------------*/
     23          #include "stm8s_awu.h"
     24          
     25          /** @addtogroup STM8S_StdPeriph_Driver
     26            * @{
     27            */
     28          /* Private typedef -----------------------------------------------------------*/
     29          /* Private define ------------------------------------------------------------*/
     30          /* Private macro -------------------------------------------------------------*/
     31          /* Private variables ---------------------------------------------------------*/
     32          /* Private function prototypes -----------------------------------------------*/
     33          /* Private functions ---------------------------------------------------------*/
     34          
     35          /* See also AWU_Timebase_TypeDef structure in stm8s_awu.h file :
     36                                    N   2   5   1   2   4   8   1   3   6   1   2   5   1   2   1   3
     37                                    O   5   0   m   m   m   m   6   2   4   2   5   1   s   s   2   0
     38                                    I   0   0   s   s   s   s   m   m   m   8   6   2           s   s
     39                                    T   u   u                   s   s   s   m   m   m
     40                                        s   s                               s   s   s
     41          */
     42          /** Contains the different values to write in the APR register (used by AWU_Init function) */

   \                                 In section .near.rodata, align 1
     43          CONST uint8_t APR_Array[17] =
   \                     APR_Array:
   \   000000 001E1E1E1E1E          DC8 0, 30, 30, 30, 30, 30, 30, 30, 30, 30, 30, 30, 30, 61, 23, 23, 62
     44              {
     45                  0, 30, 30, 30, 30, 30, 30, 30, 30, 30, 30, 30, 30, 61, 23, 23, 62
     46              };
     47          
     48          /** Contains the different values to write in the TBR register (used by AWU_Init function) */

   \                                 In section .near.rodata, align 1
     49          CONST uint8_t TBR_Array[17] =
   \                     TBR_Array:
   \   000000 000102030405          DC8 0, 1, 2, 3, 4, 5, 6, 7, 8, 9, 10, 11, 12, 12, 14, 15, 15
     50              {
     51                  0,  1,  2,  3,  4,  5,  6,  7,  8,  9, 10, 11, 12, 12, 14, 15, 15
     52              };
     53          
     54          /* Public functions ----------------------------------------------------------*/
     55          
     56          /**
     57            * @addtogroup AWU_Public_Functions
     58            * @{
     59            */
     60          
     61          /**
     62            * @brief  Deinitializes the AWU peripheral registers to their default reset
     63            * values.
     64            * @param  None
     65            * @retval None
     66            */

   \                                 In section .far_func.text, align 1
     67          void AWU_DeInit(void)
     68          {
     69              AWU->CSR = AWU_CSR_RESET_VALUE;
   \                     AWU_DeInit:
   \   000000 725F50F0              CLR       L:0x50f0
     70              AWU->APR = AWU_APR_RESET_VALUE;
   \   000004 353F50F1              MOV       L:0x50f1, #0x3f
     71              AWU->TBR = AWU_TBR_RESET_VALUE;
   \   000008 725F50F2              CLR       L:0x50f2
     72          }
   \   00000C 87                    RETF
     73          
     74          /**
     75            * @brief  Initializes the AWU peripheral according to the specified parameters.
     76            * @param   AWU_TimeBase : Time base selection (interval between AWU interrupts).
     77            * can be one of the values of @ref AWU_Timebase_TypeDef.
     78            * @retval None
     79            * @par Required preconditions:
     80            * The LS RC calibration must be performed before calling this function.
     81            */

   \                                 In section .far_func.text, align 1
     82          void AWU_Init(AWU_Timebase_TypeDef AWU_TimeBase)
     83          {
   \                     AWU_Init:
   \   000000 3B0000                PUSH      S:?b8
   \   000003 B700                  LD        S:?b8, A
     84          
     85              /* Check parameter */
     86              assert_param(IS_AWU_TIMEBASE_OK(AWU_TimeBase));
   \   000005 2747                  JREQ      L:??CrossCallReturnLabel_0
   \   000007 A101                  CP        A, #0x1
   \   000009 2743                  JREQ      L:??CrossCallReturnLabel_0
   \   00000B A102                  CP        A, #0x2
   \   00000D 273F                  JREQ      L:??CrossCallReturnLabel_0
   \   00000F A103                  CP        A, #0x3
   \   000011 273B                  JREQ      L:??CrossCallReturnLabel_0
   \   000013 A104                  CP        A, #0x4
   \   000015 2737                  JREQ      L:??CrossCallReturnLabel_0
   \   000017 A105                  CP        A, #0x5
   \   000019 2733                  JREQ      L:??CrossCallReturnLabel_0
   \   00001B A106                  CP        A, #0x6
   \   00001D 272F                  JREQ      L:??CrossCallReturnLabel_0
   \   00001F A107                  CP        A, #0x7
   \   000021 272B                  JREQ      L:??CrossCallReturnLabel_0
   \   000023 A108                  CP        A, #0x8
   \   000025 2727                  JREQ      L:??CrossCallReturnLabel_0
   \   000027 A109                  CP        A, #0x9
   \   000029 2723                  JREQ      L:??CrossCallReturnLabel_0
   \   00002B A10A                  CP        A, #0xa
   \   00002D 271F                  JREQ      L:??CrossCallReturnLabel_0
   \   00002F A10B                  CP        A, #0xb
   \   000031 271B                  JREQ      L:??CrossCallReturnLabel_0
   \   000033 A10C                  CP        A, #0xc
   \   000035 2717                  JREQ      L:??CrossCallReturnLabel_0
   \   000037 A10D                  CP        A, #0xd
   \   000039 2713                  JREQ      L:??CrossCallReturnLabel_0
   \   00003B A10E                  CP        A, #0xe
   \   00003D 270F                  JREQ      L:??CrossCallReturnLabel_0
   \   00003F A10F                  CP        A, #0xf
   \   000041 270B                  JREQ      L:??CrossCallReturnLabel_0
   \   000043 A110                  CP        A, #0x10
   \   000045 2707                  JREQ      L:??CrossCallReturnLabel_0
   \   000047 AE0056                LDW       X, #0x56
   \   00004A 8D000000              CALLF     ?Subroutine0
     87          
     88              /* Enable the AWU peripheral */
     89              AWU->CSR |= AWU_CSR_AWUEN;
   \                     ??CrossCallReturnLabel_0:
   \   00004E 721850F0              BSET      L:0x50f0, #0x4
     90          
     91              /* Set the TimeBase */
     92              AWU->TBR &= (uint8_t)(~AWU_TBR_AWUTB);
   \   000052 C650F2                LD        A, L:0x50f2
   \   000055 A4F0                  AND       A, #0xf0
   \   000057 C750F2                LD        L:0x50f2, A
     93              AWU->TBR |= TBR_Array[(uint8_t)AWU_TimeBase];
   \   00005A 5F                    CLRW      X
   \   00005B 41                    EXG       A, XL
   \   00005C B600                  LD        A, S:?b8
   \   00005E 41                    EXG       A, XL
   \   00005F C650F2                LD        A, L:0x50f2
   \   000062 DA0000                OR        A, (L:TBR_Array,X)
   \   000065 C750F2                LD        L:0x50f2, A
     94          
     95              /* Set the APR divider */
     96              AWU->APR &= (uint8_t)(~AWU_APR_APR);
   \   000068 C650F1                LD        A, L:0x50f1
   \   00006B A4C0                  AND       A, #0xc0
   \   00006D C750F1                LD        L:0x50f1, A
     97              AWU->APR |= APR_Array[(uint8_t)AWU_TimeBase];
   \   000070 C650F1                LD        A, L:0x50f1
   \   000073 DA0000                OR        A, (L:APR_Array,X)
   \   000076 C750F1                LD        L:0x50f1, A
     98          
     99          }
   \   000079 320000                POP       S:?b8
   \   00007C 87                    RETF

   \                                 In section .far_func.text, align 1
   \                     ?Subroutine0:
   \   000000 BF00                  LDW       S:?w1, X
   \   000002 5F                    CLRW      X
   \   000003 BF00                  LDW       S:?w0, X
   \   000005 AE0000                LDW       X, #`?<Constant "C:\\\\Users\\\\Administrato...">`
   \   000008 AC000000              JPF       assert_failed
    100          
    101          /**
    102            * @brief  Enable or disable the AWU peripheral.
    103            * @param   NewState Indicates the new state of the AWU peripheral.
    104            * @retval None
    105            * @par Required preconditions:
    106            * Initialisation of AWU and LS RC calibration must be done before.
    107            */

   \                                 In section .far_func.text, align 1
    108          void AWU_Cmd(FunctionalState NewState)
    109          {
    110              if (NewState != DISABLE)
   \                     AWU_Cmd:
   \   000000 4D                    TNZ       A
   \   000001 2705                  JREQ      L:??AWU_Cmd_0
    111              {
    112                  /* Enable the AWU peripheral */
    113                  AWU->CSR |= AWU_CSR_AWUEN;
   \   000003 721850F0              BSET      L:0x50f0, #0x4
   \   000007 87                    RETF
    114              }
    115              else
    116              {
    117                  /* Disable the AWU peripheral */
    118                  AWU->CSR &= (uint8_t)(~AWU_CSR_AWUEN);
   \                     ??AWU_Cmd_0:
   \   000008 721950F0              BRES      L:0x50f0, #0x4
    119              }
    120          }
   \   00000C 87                    RETF
    121          
    122          /**
    123            * @brief  Update APR register with the measured LSI frequency.
    124            * @par Note on the APR calculation:
    125            * A is the integer part of lsifreqkhz/4 and x the decimal part.
    126            * x <= A/(1+2A) is equivalent to A >= x(1+2A) and also to 4A >= 4x(1+2A) [F1]
    127            * but we know that A + x = lsifreqkhz/4 ==> 4x = lsifreqkhz-4A
    128            * so [F1] can be written :
    129            * 4A >= (lsifreqkhz-4A)(1+2A)
    130            * @param   LSIFreqHz Low Speed RC frequency measured by timer (in Hz).
    131            * @retval None
    132            * @par Required preconditions:
    133            * - AWU must be disabled to avoid unwanted interrupts.
    134            */

   \                                 In section .far_func.text, align 1
    135          void AWU_LSICalibrationConfig(uint32_t LSIFreqHz)
    136          {
   \                     AWU_LSICalibrationConfig:
   \   000000 8D000000              CALLF     L:?push_l2
   \   000004 8D000000              CALLF     L:?mov_l2_l0
    137          
    138              uint16_t lsifreqkhz = 0x0;
    139              uint16_t A = 0x0;
    140          
    141              /* Check parameter */
    142              assert_param(IS_LSI_FREQUENCY_OK(LSIFreqHz));
   \   000008 AE5250                LDW       X, #0x5250
   \   00000B BF00                  LDW       S:?w1, X
   \   00000D AEFFFE                LDW       X, #0xfffe
   \   000010 BF00                  LDW       S:?w0, X
   \   000012 8D000000              CALLF     L:?mov_l1_l2
   \   000016 8D000000              CALLF     L:?add32_l0_l0_l1
   \   00001A BE00                  LDW       X, S:?w0
   \   00001C A30000                CPW       X, #0x0
   \   00001F 2605                  JRNE      L:??AWU_LSICalibrationConfig_0
   \   000021 BE00                  LDW       X, S:?w1
   \   000023 A39C41                CPW       X, #0x9c41
   \                     ??AWU_LSICalibrationConfig_0:
   \   000026 2507                  JRC       L:??CrossCallReturnLabel_1
   \   000028 AE008E                LDW       X, #0x8e
   \   00002B 8D000000              CALLF     ?Subroutine0
    143          
    144              lsifreqkhz = (uint16_t)(LSIFreqHz / 1000); /* Converts value in kHz */
   \                     ??CrossCallReturnLabel_1:
   \   00002F 8D000000              CALLF     L:?mov_l0_l2
   \   000033 8D000000              CALLF     L:?udiv32_l0_l0_dl
   \   000037 000003E8              DC32      0x3e8
   \   00003B 90BE00                LDW       Y, S:?w1
    145          
    146              /* Calculation of AWU calibration value */
    147          
    148              A = (uint16_t)(lsifreqkhz >> 2U); /* Division by 4, keep integer part only */
   \   00003E 93                    LDW       X, Y
   \   00003F 54                    SRLW      X
   \   000040 54                    SRLW      X
   \   000041 BF00                  LDW       S:?w1, X
    149          
    150              if ((4U * A) >= ((lsifreqkhz - (4U * A)) * (1U + (2U * A))))
   \   000043 58                    SLLW      X
   \   000044 58                    SLLW      X
   \   000045 BF00                  LDW       S:?w2, X
   \   000047 BE00                  LDW       X, S:?w1
   \   000049 58                    SLLW      X
   \   00004A 5C                    INCW      X
   \   00004B BF00                  LDW       S:?w0, X
   \   00004D 72B20000              SUBW      Y, S:?w2
   \   000051 93                    LDW       X, Y
   \   000052 8D000000              CALLF     L:?mul16_x_x_w0
   \   000056 BF00                  LDW       S:?w0, X
   \   000058 BE00                  LDW       X, S:?w2
   \   00005A B300                  CPW       X, S:?w0
   \   00005C B600                  LD        A, S:?b3
   \   00005E 2504                  JRC       L:??AWU_LSICalibrationConfig_1
    151              {
    152                  AWU->APR = (uint8_t)(A - 2U);
   \   000060 ABFE                  ADD       A, #0xfe
   \   000062 2001                  JRA       ??AWU_LSICalibrationConfig_2
    153              }
    154              else
    155              {
    156                  AWU->APR = (uint8_t)(A - 1U);
   \                     ??AWU_LSICalibrationConfig_1:
   \   000064 4A                    DEC       A
   \                     ??AWU_LSICalibrationConfig_2:
   \   000065 C750F1                LD        L:0x50f1, A
    157              }
    158          }
   \   000068 AC000000              JPF       L:?epilogue_l2
    159          
    160          /**
    161            * @brief  Configures AWU in Idle mode to reduce power consumption.
    162            * @param  None
    163            * @retval None
    164            */

   \                                 In section .far_func.text, align 1
    165          void AWU_IdleModeEnable(void)
    166          {
    167              /* Disable AWU peripheral */
    168              AWU->CSR &= (uint8_t)(~AWU_CSR_AWUEN);
   \                     AWU_IdleModeEnable:
   \   000000 721950F0              BRES      L:0x50f0, #0x4
    169          
    170              /* No AWU timebase */
    171              AWU->TBR = (uint8_t)(~AWU_TBR_AWUTB);
   \   000004 35F050F2              MOV       L:0x50f2, #0xf0
    172          }
   \   000008 87                    RETF
    173          
    174          /**
    175            * @brief  Returns status of the AWU peripheral flag.
    176            * @param  None
    177            * @retval FlagStatus : Status of the AWU flag.
    178            * This parameter can be any of the @ref FlagStatus enumeration.
    179            */

   \                                 In section .far_func.text, align 1
    180          FlagStatus AWU_GetFlagStatus(void)
    181          {
    182              return((FlagStatus)(((uint8_t)(AWU->CSR & AWU_CSR_AWUF) == (uint8_t)0x00) ? RESET : SET));
   \                     AWU_GetFlagStatus:
   \   000000 C650F0                LD        A, L:0x50f0
   \   000003 4E                    SWAP      A
   \   000004 A40F                  AND       A, #0xf
   \   000006 44                    SRL       A
   \   000007 A401                  AND       A, #0x1
   \   000009 87                    RETF
    183          }

   \                                 In section .near.rodata, align 1
   \                     `?<Constant "C:\\\\Users\\\\Administrato...">`:
   \   000000 433A5C557365          DC8 43H, 3AH, 5CH, 55H, 73H, 65H, 72H, 73H
   \   000008 5C41646D696E          DC8 5CH, 41H, 64H, 6DH, 69H, 6EH, 69H, 73H
   \   000010 747261746F72          DC8 74H, 72H, 61H, 74H, 6FH, 72H, 5CH, 44H
   \   000018 65736B746F70          DC8 65H, 73H, 6BH, 74H, 6FH, 70H, 5CH, 73H
   \   000020 746D38733130          DC8 74H, 6DH, 38H, 73H, 31H, 30H, 35H, 6BH
   \   000028 2D636F6E7472          DC8 2DH, 63H, 6FH, 6EH, 74H, 72H, 6FH, 6CH
   \   000030 6C65725C4C69          DC8 6CH, 65H, 72H, 5CH, 4CH, 69H, 62H, 72H
   \   000038 61726965735C          DC8 61H, 72H, 69H, 65H, 73H, 5CH, 53H, 54H
   \   000040 4D38535F5374          DC8 4DH, 38H, 53H, 5FH, 53H, 74H, 64H, 50H
   \   000048 65726970685F          DC8 65H, 72H, 69H, 70H, 68H, 5FH, 44H, 72H
   \   000050 697665725C73          DC8 69H, 76H, 65H, 72H, 5CH, 73H, 72H, 63H
   \   000058 5C73746D3873          DC8 5CH, 73H, 74H, 6DH, 38H, 73H, 5FH, 61H
   \   000060 77752E6300            DC8 77H, 75H, 2EH, 63H, 0
    184          
    185          
    186          /**
    187            * @}
    188            */
    189            
    190          /**
    191            * @}
    192            */
    193            
    194          /******************* (C) COPYRIGHT 2011 STMicroelectronics *****END OF FILE****/

   Section sizes:

     Function/Label                           Bytes
     --------------                           -----
     APR_Array                                  17
     TBR_Array                                  17
     AWU_DeInit                                 13
     AWU_Init                                  125
     ?Subroutine0                               12
     AWU_Cmd                                    13
     AWU_LSICalibrationConfig                  108
     AWU_IdleModeEnable                          9
     AWU_GetFlagStatus                          10
     ?<Constant "C:\\Users\\Administrato...">  101

 
 290 bytes in section .far_func.text
 135 bytes in section .near.rodata
 
 290 bytes of CODE  memory
 135 bytes of CONST memory

Errors: none
Warnings: none
