###############################################################################
#                                                                             #
# IAR C/C++ Compiler V1.30.1.50036 for STM8             08/Mar/2013  21:34:38 #
# Copyright 2010-2011 IAR Systems AB.                                         #
#                                                                             #
#    Source file  =  C:\Documents and Settings\Administrator\Desktop\Volt2Ser #
#                    ial\Libraries\STM8S_StdPeriph_Driver\src\stm8s_clk.c     #
#    Command line =  "C:\Documents and Settings\Administrator\Desktop\Volt2Se #
#                    rial\Libraries\STM8S_StdPeriph_Driver\src\stm8s_clk.c"   #
#                    -e -Ohz --debug --code_model medium --data_model medium  #
#                    -o "C:\Documents and Settings\Administrator\Desktop\Volt #
#                    2Serial\Project\STM8S_StdPeriph_Template\EWSTM8\STM8S105 #
#                    \Obj\" --dlib_config "C:\Program Files\IAR               #
#                    Systems\Embedded Workbench 6.0\stm8\LIB\dlstm8mmf.h" -D  #
#                    STM8S105 -lC "C:\Documents and                           #
#                    Settings\Administrator\Desktop\Volt2Serial\Project\STM8S #
#                    _StdPeriph_Template\EWSTM8\STM8S105\List\" -lA           #
#                    "C:\Documents and Settings\Administrator\Desktop\Volt2Se #
#                    rial\Project\STM8S_StdPeriph_Template\EWSTM8\STM8S105\Li #
#                    st\" -I "C:\Documents and Settings\Administrator\Desktop #
#                    \Volt2Serial\Project\STM8S_StdPeriph_Template\EWSTM8\..\ #
#                    " -I "C:\Documents and Settings\Administrator\Desktop\Vo #
#                    lt2Serial\Project\STM8S_StdPeriph_Template\EWSTM8\..\..\ #
#                    ..\Libraries\STM8S_StdPeriph_Driver\inc\" --vregs 16     #
#    List file    =  C:\Documents and Settings\Administrator\Desktop\Volt2Ser #
#                    ial\Project\STM8S_StdPeriph_Template\EWSTM8\STM8S105\Lis #
#                    t\stm8s_clk.lst                                          #
#    Object file  =  C:\Documents and Settings\Administrator\Desktop\Volt2Ser #
#                    ial\Project\STM8S_StdPeriph_Template\EWSTM8\STM8S105\Obj #
#                    \stm8s_clk.o                                             #
#                                                                             #
#                                                                             #
###############################################################################

C:\Documents and Settings\Administrator\Desktop\Volt2Serial\Libraries\STM8S_StdPeriph_Driver\src\stm8s_clk.c
      1          /**
      2            ******************************************************************************
      3            * @file    stm8s_clk.c
      4            * @author  MCD Application Team
      5            * @version V2.1.0
      6            * @date    18-November-2011
      7            * @brief   This file contains all the functions for the CLK peripheral.
      8            ******************************************************************************
      9            * @attention
     10            *
     11            * THE PRESENT FIRMWARE WHICH IS FOR GUIDANCE ONLY AIMS AT PROVIDING CUSTOMERS
     12            * WITH CODING INFORMATION REGARDING THEIR PRODUCTS IN ORDER FOR THEM TO SAVE
     13            * TIME. AS A RESULT, STMICROELECTRONICS SHALL NOT BE HELD LIABLE FOR ANY
     14            * DIRECT, INDIRECT OR CONSEQUENTIAL DAMAGES WITH RESPECT TO ANY CLAIMS ARISING
     15            * FROM THE CONTENT OF SUCH FIRMWARE AND/OR THE USE MADE BY CUSTOMERS OF THE
     16            * CODING INFORMATION CONTAINED HEREIN IN CONNECTION WITH THEIR PRODUCTS.
     17            *
     18            * <h2><center>&copy; COPYRIGHT 2011 STMicroelectronics</center></h2>
     19            ******************************************************************************
     20            */
     21          
     22          /* Includes ------------------------------------------------------------------*/
     23          
     24          #include "stm8s_clk.h"
     25          
     26          /** @addtogroup STM8S_StdPeriph_Driver
     27            * @{
     28            */
     29          /* Private typedef -----------------------------------------------------------*/
     30          /* Private define ------------------------------------------------------------*/
     31          /* Private macro -------------------------------------------------------------*/
     32          /* Private variables ---------------------------------------------------------*/
     33          /* Private function prototypes -----------------------------------------------*/
     34          
     35          /* Private Constants ---------------------------------------------------------*/
     36          
     37          /**
     38            * @addtogroup CLK_Private_Constants
     39            * @{
     40            */
     41          

   \                                 In section .near.rodata, align 1
     42          CONST uint8_t HSIDivFactor[4] = {1, 2, 4, 8}; /*!< Holds the different HSI Divider factors */
   \                     HSIDivFactor:
   \   000000 01020408              DC8 1, 2, 4, 8

   \                                 In section .near.rodata, align 1
     43          CONST uint8_t CLKPrescTable[8] = {1, 2, 4, 8, 10, 16, 20, 40}; /*!< Holds the different CLK prescaler values */
   \                     CLKPrescTable:
   \   000000 010204080A10          DC8 1, 2, 4, 8, 10, 16, 20, 40
     44          
     45          /**
     46            * @}
     47            */
     48          
     49          /* Public functions ----------------------------------------------------------*/
     50          /**
     51            * @addtogroup CLK_Public_Functions
     52            * @{
     53            */
     54          
     55          /**
     56            * @brief  Deinitializes the CLK peripheral registers to their default reset
     57            * values.
     58            * @param  None
     59            * @retval None
     60            * @par Warning:
     61            * Resetting the CCOR register: \n
     62            * When the CCOEN bit is set, the reset of the CCOR register require
     63            * two consecutive write instructions in order to reset first the CCOEN bit
     64            * and the second one is to reset the CCOSEL bits.
     65            */

   \                                 In section .far_func.text, align 1
     66          void CLK_DeInit(void)
     67          {
     68          
     69              CLK->ICKR = CLK_ICKR_RESET_VALUE;
   \                     CLK_DeInit:
   \   000000 350150C0              MOV       L:0x50c0, #0x1
     70              CLK->ECKR = CLK_ECKR_RESET_VALUE;
   \   000004 725F50C1              CLR       L:0x50c1
     71              CLK->SWR  = CLK_SWR_RESET_VALUE;
   \   000008 35E150C4              MOV       L:0x50c4, #0xe1
     72              CLK->SWCR = CLK_SWCR_RESET_VALUE;
   \   00000C 725F50C5              CLR       L:0x50c5
     73              CLK->CKDIVR = CLK_CKDIVR_RESET_VALUE;
   \   000010 351850C6              MOV       L:0x50c6, #0x18
     74              CLK->PCKENR1 = CLK_PCKENR1_RESET_VALUE;
   \   000014 35FF50C7              MOV       L:0x50c7, #0xff
     75              CLK->PCKENR2 = CLK_PCKENR2_RESET_VALUE;
   \   000018 35FF50CA              MOV       L:0x50ca, #0xff
     76              CLK->CSSR = CLK_CSSR_RESET_VALUE;
   \   00001C 725F50C8              CLR       L:0x50c8
     77              CLK->CCOR = CLK_CCOR_RESET_VALUE;
   \   000020 725F50C9              CLR       L:0x50c9
     78              while ((CLK->CCOR & CLK_CCOR_CCOEN)!= 0)
   \                     ??CLK_DeInit_0:
   \   000024 720050C9FB            BTJT      L:0x50c9, #0x0, L:??CLK_DeInit_0
     79              {}
     80              CLK->CCOR = CLK_CCOR_RESET_VALUE;
   \   000029 725F50C9              CLR       L:0x50c9
     81              CLK->HSITRIMR = CLK_HSITRIMR_RESET_VALUE;
   \   00002D 725F50CC              CLR       L:0x50cc
     82              CLK->SWIMCCR = CLK_SWIMCCR_RESET_VALUE;
   \   000031 725F50CD              CLR       L:0x50cd
     83          
     84          }
   \   000035 87                    RETF
     85          
     86          /**
     87            * @brief   Configures the High Speed Internal oscillator (HSI).
     88            * @par Full description:
     89            * If CLK_FastHaltWakeup is enabled, HSI oscillator is automatically
     90            * switched-on (HSIEN=1) and selected as next clock master
     91            * (CKM=SWI=HSI) when resuming from HALT/ActiveHalt modes.\n
     92            * @param   NewState this parameter is the Wake-up Mode state.
     93            * @retval None
     94            */

   \                                 In section .far_func.text, align 1
   \                     ?Subroutine0:
   \   000000 BF00                  LDW       S:?w1, X
   \   000002 5F                    CLRW      X
   \   000003 BF00                  LDW       S:?w0, X
   \   000005 AE0000                LDW       X, #`?<Constant "C:\\\\Documents and Sett...">`
   \   000008 AC000000              JPF       assert_failed

   \                                 In section .far_func.text, align 1
     95          void CLK_FastHaltWakeUpCmd(FunctionalState NewState)
     96          {
     97          
     98              /* check the parameters */
     99              assert_param(IS_FUNCTIONALSTATE_OK(NewState));
   \                     CLK_FastHaltWakeUpCmd:
   \   000000 4D                    TNZ       A
   \   000001 2710                  JREQ      L:??CLK_FastHaltWakeUpCmd_0
   \   000003 A101                  CP        A, #0x1
   \   000005 2707                  JREQ      L:??CrossCallReturnLabel_0
   \   000007 AE0063                LDW       X, #0x63
   \   00000A 8D000000              CALLF     ?Subroutine0
    100          
    101              if (NewState != DISABLE)
    102              {
    103                  /* Set FHWU bit (HSI oscillator is automatically switched-on) */
    104                  CLK->ICKR |= CLK_ICKR_FHWU;
   \                     ??CrossCallReturnLabel_0:
   \   00000E 721450C0              BSET      L:0x50c0, #0x2
   \   000012 87                    RETF
    105              }
    106              else  /* FastHaltWakeup = DISABLE */
    107              {
    108                  /* Reset FHWU bit */
    109                  CLK->ICKR &= (uint8_t)(~CLK_ICKR_FHWU);
   \                     ??CLK_FastHaltWakeUpCmd_0:
   \   000013 721550C0              BRES      L:0x50c0, #0x2
    110              }
    111          
    112          }
   \   000017 87                    RETF
    113          
    114          /**
    115            * @brief  Enable or Disable the External High Speed oscillator (HSE).
    116            * @param   NewState new state of HSEEN, value accepted ENABLE, DISABLE.
    117            * @retval None
    118            */

   \                                 In section .far_func.text, align 1
    119          void CLK_HSECmd(FunctionalState NewState)
    120          {
    121          
    122              /* Check the parameters */
    123              assert_param(IS_FUNCTIONALSTATE_OK(NewState));
   \                     CLK_HSECmd:
   \   000000 4D                    TNZ       A
   \   000001 2710                  JREQ      L:??CLK_HSECmd_0
   \   000003 A101                  CP        A, #0x1
   \   000005 2707                  JREQ      L:??CrossCallReturnLabel_1
   \   000007 AE007B                LDW       X, #0x7b
   \   00000A 8D000000              CALLF     ?Subroutine0
    124          
    125              if (NewState != DISABLE)
    126              {
    127                  /* Set HSEEN bit */
    128                  CLK->ECKR |= CLK_ECKR_HSEEN;
   \                     ??CrossCallReturnLabel_1:
   \   00000E 721050C1              BSET      L:0x50c1, #0x0
   \   000012 87                    RETF
    129              }
    130              else
    131              {
    132                  /* Reset HSEEN bit */
    133                  CLK->ECKR &= (uint8_t)(~CLK_ECKR_HSEEN);
   \                     ??CLK_HSECmd_0:
   \   000013 721150C1              BRES      L:0x50c1, #0x0
    134              }
    135          
    136          }
   \   000017 87                    RETF
    137          
    138          /**
    139            * @brief  Enables or disables the Internal High Speed oscillator (HSI).
    140            * @param   NewState new state of HSIEN, value accepted ENABLE, DISABLE.
    141            * @retval None
    142            */

   \                                 In section .far_func.text, align 1
    143          void CLK_HSICmd(FunctionalState NewState)
    144          {
    145          
    146              /* Check the parameters */
    147              assert_param(IS_FUNCTIONALSTATE_OK(NewState));
   \                     CLK_HSICmd:
   \   000000 4D                    TNZ       A
   \   000001 2710                  JREQ      L:??CLK_HSICmd_0
   \   000003 A101                  CP        A, #0x1
   \   000005 2707                  JREQ      L:??CrossCallReturnLabel_2
   \   000007 AE0093                LDW       X, #0x93
   \   00000A 8D000000              CALLF     ?Subroutine0
    148          
    149              if (NewState != DISABLE)
    150              {
    151                  /* Set HSIEN bit */
    152                  CLK->ICKR |= CLK_ICKR_HSIEN;
   \                     ??CrossCallReturnLabel_2:
   \   00000E 721050C0              BSET      L:0x50c0, #0x0
   \   000012 87                    RETF
    153              }
    154              else
    155              {
    156                  /* Reset HSIEN bit */
    157                  CLK->ICKR &= (uint8_t)(~CLK_ICKR_HSIEN);
   \                     ??CLK_HSICmd_0:
   \   000013 721150C0              BRES      L:0x50c0, #0x0
    158              }
    159          
    160          }
   \   000017 87                    RETF
    161          
    162          /**
    163            * @brief  Enables or disables the Internal Low Speed oscillator (LSI).
    164            * @param    NewState new state of LSIEN, value accepted ENABLE, DISABLE.
    165            * @retval None
    166            */

   \                                 In section .far_func.text, align 1
    167          void CLK_LSICmd(FunctionalState NewState)
    168          {
    169          
    170              /* Check the parameters */
    171              assert_param(IS_FUNCTIONALSTATE_OK(NewState));
   \                     CLK_LSICmd:
   \   000000 4D                    TNZ       A
   \   000001 2710                  JREQ      L:??CLK_LSICmd_0
   \   000003 A101                  CP        A, #0x1
   \   000005 2707                  JREQ      L:??CrossCallReturnLabel_3
   \   000007 AE00AB                LDW       X, #0xab
   \   00000A 8D000000              CALLF     ?Subroutine0
    172          
    173              if (NewState != DISABLE)
    174              {
    175                  /* Set LSIEN bit */
    176                  CLK->ICKR |= CLK_ICKR_LSIEN;
   \                     ??CrossCallReturnLabel_3:
   \   00000E 721650C0              BSET      L:0x50c0, #0x3
   \   000012 87                    RETF
    177              }
    178              else
    179              {
    180                  /* Reset LSIEN bit */
    181                  CLK->ICKR &= (uint8_t)(~CLK_ICKR_LSIEN);
   \                     ??CLK_LSICmd_0:
   \   000013 721750C0              BRES      L:0x50c0, #0x3
    182              }
    183          
    184          }
   \   000017 87                    RETF
    185          
    186          /**
    187            * @brief  Enables or disablle the Configurable Clock Output (CCO).
    188            * @param   NewState : New state of CCEN bit (CCO register).
    189            * This parameter can be any of the @ref FunctionalState enumeration.
    190            * @retval None
    191            */

   \                                 In section .far_func.text, align 1
    192          void CLK_CCOCmd(FunctionalState NewState)
    193          {
    194          
    195              /* Check the parameters */
    196              assert_param(IS_FUNCTIONALSTATE_OK(NewState));
   \                     CLK_CCOCmd:
   \   000000 4D                    TNZ       A
   \   000001 2710                  JREQ      L:??CLK_CCOCmd_0
   \   000003 A101                  CP        A, #0x1
   \   000005 2707                  JREQ      L:??CrossCallReturnLabel_4
   \   000007 AE00C4                LDW       X, #0xc4
   \   00000A 8D000000              CALLF     ?Subroutine0
    197          
    198              if (NewState != DISABLE)
    199              {
    200                  /* Set CCOEN bit */
    201                  CLK->CCOR |= CLK_CCOR_CCOEN;
   \                     ??CrossCallReturnLabel_4:
   \   00000E 721050C9              BSET      L:0x50c9, #0x0
   \   000012 87                    RETF
    202              }
    203              else
    204              {
    205                  /* Reset CCOEN bit */
    206                  CLK->CCOR &= (uint8_t)(~CLK_CCOR_CCOEN);
   \                     ??CLK_CCOCmd_0:
   \   000013 721150C9              BRES      L:0x50c9, #0x0
    207              }
    208          
    209          }
   \   000017 87                    RETF
    210          
    211          /**
    212            * @brief  Starts or Stops manually the clock switch execution.
    213            * @par Full description:
    214            * NewState parameter set the SWEN.
    215            * @param   NewState new state of SWEN, value accepted ENABLE, DISABLE.
    216            * @retval None
    217            */

   \                                 In section .far_func.text, align 1
    218          void CLK_ClockSwitchCmd(FunctionalState NewState)
    219          {
    220          
    221              /* Check the parameters */
    222              assert_param(IS_FUNCTIONALSTATE_OK(NewState));
   \                     CLK_ClockSwitchCmd:
   \   000000 4D                    TNZ       A
   \   000001 2710                  JREQ      L:??CLK_ClockSwitchCmd_0
   \   000003 A101                  CP        A, #0x1
   \   000005 2707                  JREQ      L:??CrossCallReturnLabel_5
   \   000007 AE00DE                LDW       X, #0xde
   \   00000A 8D000000              CALLF     ?Subroutine0
    223          
    224              if (NewState != DISABLE )
    225              {
    226                  /* Enable the Clock Switch */
    227                  CLK->SWCR |= CLK_SWCR_SWEN;
   \                     ??CrossCallReturnLabel_5:
   \   00000E 721250C5              BSET      L:0x50c5, #0x1
   \   000012 87                    RETF
    228              }
    229              else
    230              {
    231                  /* Disable the Clock Switch */
    232                  CLK->SWCR &= (uint8_t)(~CLK_SWCR_SWEN);
   \                     ??CLK_ClockSwitchCmd_0:
   \   000013 721350C5              BRES      L:0x50c5, #0x1
    233              }
    234          
    235          }
   \   000017 87                    RETF
    236          
    237          /**
    238            * @brief  Configures the slow active halt wake up
    239            * @param   NewState: specifies the Slow Active Halt wake up state.
    240            * can be set of the following values:
    241            * - DISABLE: Slow Active Halt mode disabled;
    242            * - ENABLE:  Slow Active Halt mode enabled.
    243            * @retval None
    244            */

   \                                 In section .far_func.text, align 1
    245          void CLK_SlowActiveHaltWakeUpCmd(FunctionalState NewState)
    246          {
    247          
    248              /* check the parameters */
    249              assert_param(IS_FUNCTIONALSTATE_OK(NewState));
   \                     CLK_SlowActiveHaltWakeUpCmd:
   \   000000 4D                    TNZ       A
   \   000001 2710                  JREQ      L:??CLK_SlowActiveHaltWakeUpCmd_0
   \   000003 A101                  CP        A, #0x1
   \   000005 2707                  JREQ      L:??CrossCallReturnLabel_6
   \   000007 AE00F9                LDW       X, #0xf9
   \   00000A 8D000000              CALLF     ?Subroutine0
    250          
    251              if (NewState != DISABLE)
    252              {
    253                  /* Set S_ACTHALT bit */
    254                  CLK->ICKR |= CLK_ICKR_SWUAH;
   \                     ??CrossCallReturnLabel_6:
   \   00000E 721A50C0              BSET      L:0x50c0, #0x5
   \   000012 87                    RETF
    255              }
    256              else
    257              {
    258                  /* Reset S_ACTHALT bit */
    259                  CLK->ICKR &= (uint8_t)(~CLK_ICKR_SWUAH);
   \                     ??CLK_SlowActiveHaltWakeUpCmd_0:
   \   000013 721B50C0              BRES      L:0x50c0, #0x5
    260              }
    261          
    262          }
   \   000017 87                    RETF
    263          
    264          /**
    265            * @brief   Enables or disables the specified peripheral CLK.
    266            * @param   CLK_Peripheral : This parameter specifies the peripheral clock to gate.
    267            * This parameter can be any of the  @ref CLK_Peripheral_TypeDef enumeration.
    268            * @param   NewState : New state of specified peripheral clock.
    269            * This parameter can be any of the @ref FunctionalState enumeration.
    270            * @retval None
    271            */

   \                                 In section .far_func.text, align 1
    272          void CLK_PeripheralClockConfig(CLK_Peripheral_TypeDef CLK_Peripheral, FunctionalState NewState)
    273          {
   \                     CLK_PeripheralClockConfig:
   \   000000 8D000000              CALLF     L:?push_w4
   \   000004 B700                  LD        S:?b8, A
   \   000006 450000                MOV       S:?b9, S:?b0
    274          
    275              /* Check the parameters */
    276              assert_param(IS_FUNCTIONALSTATE_OK(NewState));
   \   000009 3D00                  TNZ       S:?b9
   \   00000B 270D                  JREQ      L:??CrossCallReturnLabel_8
   \   00000D B600                  LD        A, S:?b9
   \   00000F A101                  CP        A, #0x1
   \   000011 2707                  JREQ      L:??CrossCallReturnLabel_8
   \   000013 AE0114                LDW       X, #0x114
   \   000016 8D000000              CALLF     ?Subroutine0
    277              assert_param(IS_CLK_PERIPHERAL_OK(CLK_Peripheral));
   \                     ??CrossCallReturnLabel_8:
   \   00001A 3D00                  TNZ       S:?b8
   \   00001C 272D                  JREQ      L:??CrossCallReturnLabel_7
   \   00001E B600                  LD        A, S:?b8
   \   000020 A101                  CP        A, #0x1
   \   000022 2727                  JREQ      L:??CrossCallReturnLabel_7
   \   000024 A103                  CP        A, #0x3
   \   000026 2723                  JREQ      L:??CrossCallReturnLabel_7
   \   000028 A104                  CP        A, #0x4
   \   00002A 271F                  JREQ      L:??CrossCallReturnLabel_7
   \   00002C A105                  CP        A, #0x5
   \   00002E 271B                  JREQ      L:??CrossCallReturnLabel_7
   \   000030 A106                  CP        A, #0x6
   \   000032 2717                  JREQ      L:??CrossCallReturnLabel_7
   \   000034 A107                  CP        A, #0x7
   \   000036 2713                  JREQ      L:??CrossCallReturnLabel_7
   \   000038 A117                  CP        A, #0x17
   \   00003A 270F                  JREQ      L:??CrossCallReturnLabel_7
   \   00003C A113                  CP        A, #0x13
   \   00003E 270B                  JREQ      L:??CrossCallReturnLabel_7
   \   000040 A112                  CP        A, #0x12
   \   000042 2707                  JREQ      L:??CrossCallReturnLabel_7
   \   000044 AE0115                LDW       X, #0x115
   \   000047 8D000000              CALLF     ?Subroutine0
    278          
    279              if (((uint8_t)CLK_Peripheral & (uint8_t)0x10) == 0x00)
   \                     ??CrossCallReturnLabel_7:
   \   00004B B600                  LD        A, S:?b8
   \   00004D A40F                  AND       A, #0xf
   \   00004F 5F                    CLRW      X
   \   000050 5C                    INCW      X
   \   000051 8D000000              CALLF     L:?sll16_x_x_a
   \   000055 41                    EXG       A, XL
   \   000056 B700                  LD        S:?b0, A
   \   000058 450000                MOV       S:?b1, S:?b0
   \   00005B 3300                  CPL       S:?b1
   \   00005D B600                  LD        A, S:?b8
   \   00005F A510                  BCP       A, #0x10
   \   000061 2617                  JRNE      L:??CLK_PeripheralClockConfig_0
    280              {
    281                  if (NewState != DISABLE)
   \   000063 3D00                  TNZ       S:?b9
   \   000065 270C                  JREQ      L:??CLK_PeripheralClockConfig_1
    282                  {
    283                      /* Enable the peripheral Clock */
    284                      CLK->PCKENR1 |= (uint8_t)((uint8_t)1 << ((uint8_t)CLK_Peripheral & (uint8_t)0x0F));
   \   000067 B600                  LD        A, S:?b0
   \   000069 CA50C7                OR        A, L:0x50c7
   \                     ??CLK_PeripheralClockConfig_2:
   \   00006C C750C7                LD        L:0x50c7, A
   \   00006F AC000000              JPF       L:?epilogue_w4
    285                  }
    286                  else
    287                  {
    288                      /* Disable the peripheral Clock */
    289                      CLK->PCKENR1 &= (uint8_t)(~(uint8_t)(((uint8_t)1 << ((uint8_t)CLK_Peripheral & (uint8_t)0x0F))));
   \                     ??CLK_PeripheralClockConfig_1:
   \   000073 B600                  LD        A, S:?b1
   \   000075 C450C7                AND       A, L:0x50c7
   \   000078 20F2                  JRA       ??CLK_PeripheralClockConfig_2
    290                  }
    291              }
    292              else
    293              {
    294                  if (NewState != DISABLE)
   \                     ??CLK_PeripheralClockConfig_0:
   \   00007A 3D00                  TNZ       S:?b9
   \   00007C 2707                  JREQ      L:??CLK_PeripheralClockConfig_3
    295                  {
    296                      /* Enable the peripheral Clock */
    297                      CLK->PCKENR2 |= (uint8_t)((uint8_t)1 << ((uint8_t)CLK_Peripheral & (uint8_t)0x0F));
   \   00007E B600                  LD        A, S:?b0
   \   000080 CA50CA                OR        A, L:0x50ca
   \   000083 2005                  JRA       ??CLK_PeripheralClockConfig_4
    298                  }
    299                  else
    300                  {
    301                      /* Disable the peripheral Clock */
    302                      CLK->PCKENR2 &= (uint8_t)(~(uint8_t)(((uint8_t)1 << ((uint8_t)CLK_Peripheral & (uint8_t)0x0F))));
   \                     ??CLK_PeripheralClockConfig_3:
   \   000085 B600                  LD        A, S:?b1
   \   000087 C450CA                AND       A, L:0x50ca
   \                     ??CLK_PeripheralClockConfig_4:
   \   00008A C750CA                LD        L:0x50ca, A
    303                  }
    304              }
    305          
    306          }
   \   00008D AC000000              JPF       L:?epilogue_w4
    307          
    308          /**
    309            * @brief  configures the Switch from one clock to another
    310            * @param   CLK_SwitchMode select the clock switch mode.
    311            * It can be set of the values of @ref CLK_SwitchMode_TypeDef
    312            * @param   CLK_NewClock choice of the future clock.
    313            * It can be set of the values of @ref CLK_Source_TypeDef
    314            * @param   NewState Enable or Disable the Clock Switch interrupt.
    315            * @param   CLK_CurrentClockState current clock to switch OFF or to keep ON.
    316            * It can be set of the values of @ref CLK_CurrentClockState_TypeDef
    317            * @retval ErrorStatus this shows the clock switch status (ERROR/SUCCESS).
    318            */

   \                                 In section .far_func.text, align 1
    319          ErrorStatus CLK_ClockSwitchConfig(CLK_SwitchMode_TypeDef CLK_SwitchMode, CLK_Source_TypeDef CLK_NewClock, FunctionalState ITState, CLK_CurrentClockState_TypeDef CLK_CurrentClockState)
    320          {
   \                     CLK_ClockSwitchConfig:
   \   000000 8D000000              CALLF     L:?push_l2
   \   000004 8D000000              CALLF     L:?push_w6
   \   000008 B700                  LD        S:?b10, A
   \   00000A 450000                MOV       S:?b11, S:?b0
   \   00000D 450000                MOV       S:?b12, S:?b1
   \   000010 450000                MOV       S:?b13, S:?b2
    321          
    322              CLK_Source_TypeDef clock_master;
    323              uint16_t DownCounter = CLK_TIMEOUT;
   \   000013 AE0491                LDW       X, #0x491
   \   000016 BF00                  LDW       S:?w4, X
    324              ErrorStatus Swif = ERROR;
    325          
    326              /* Check the parameters */
    327              assert_param(IS_CLK_SOURCE_OK(CLK_NewClock));
   \   000018 B600                  LD        A, S:?b11
   \   00001A A1E1                  CP        A, #0xe1
   \   00001C 270F                  JREQ      L:??CrossCallReturnLabel_12
   \   00001E A1D2                  CP        A, #0xd2
   \   000020 270B                  JREQ      L:??CrossCallReturnLabel_12
   \   000022 A1B4                  CP        A, #0xb4
   \   000024 2707                  JREQ      L:??CrossCallReturnLabel_12
   \   000026 AE0147                LDW       X, #0x147
   \   000029 8D000000              CALLF     ?Subroutine0
    328              assert_param(IS_CLK_SWITCHMODE_OK(CLK_SwitchMode));
   \                     ??CrossCallReturnLabel_12:
   \   00002D 3D00                  TNZ       S:?b10
   \   00002F 270D                  JREQ      L:??CrossCallReturnLabel_11
   \   000031 B600                  LD        A, S:?b10
   \   000033 A101                  CP        A, #0x1
   \   000035 2707                  JREQ      L:??CrossCallReturnLabel_11
   \   000037 AE0148                LDW       X, #0x148
   \   00003A 8D000000              CALLF     ?Subroutine0
    329              assert_param(IS_FUNCTIONALSTATE_OK(ITState));
   \                     ??CrossCallReturnLabel_11:
   \   00003E 3D00                  TNZ       S:?b12
   \   000040 270D                  JREQ      L:??CrossCallReturnLabel_10
   \   000042 B600                  LD        A, S:?b12
   \   000044 A101                  CP        A, #0x1
   \   000046 2707                  JREQ      L:??CrossCallReturnLabel_10
   \   000048 AE0149                LDW       X, #0x149
   \   00004B 8D000000              CALLF     ?Subroutine0
    330              assert_param(IS_CLK_CURRENTCLOCKSTATE_OK(CLK_CurrentClockState));
   \                     ??CrossCallReturnLabel_10:
   \   00004F 3D00                  TNZ       S:?b13
   \   000051 270D                  JREQ      L:??CrossCallReturnLabel_9
   \   000053 B600                  LD        A, S:?b13
   \   000055 A101                  CP        A, #0x1
   \   000057 2707                  JREQ      L:??CrossCallReturnLabel_9
   \   000059 AE014A                LDW       X, #0x14a
   \   00005C 8D000000              CALLF     ?Subroutine0
    331          
    332              /* Current clock master saving */
    333              clock_master = (CLK_Source_TypeDef)CLK->CMSR;
   \                     ??CrossCallReturnLabel_9:
   \   000060 C650C3                LD        A, L:0x50c3
   \   000063 B700                  LD        S:?b1, A
    334          
    335              /* Automatic switch mode management */
    336              if (CLK_SwitchMode == CLK_SWITCHMODE_AUTO)
   \   000065 B600                  LD        A, S:?b10
   \   000067 A101                  CP        A, #0x1
   \   000069 262B                  JRNE      L:??CLK_ClockSwitchConfig_0
    337              {
    338          
    339                  /* Enables Clock switch */
    340                  CLK->SWCR |= CLK_SWCR_SWEN;
   \   00006B 721250C5              BSET      L:0x50c5, #0x1
    341          
    342                  /* Enables or Disables Switch interrupt */
    343                  if (ITState != DISABLE)
   \   00006F 3D00                  TNZ       S:?b12
   \   000071 2706                  JREQ      L:??CLK_ClockSwitchConfig_1
    344                  {
    345                      CLK->SWCR |= CLK_SWCR_SWIEN;
   \   000073 721450C5              BSET      L:0x50c5, #0x2
   \   000077 2004                  JRA       L:??CLK_ClockSwitchConfig_2
    346                  }
    347                  else
    348                  {
    349                      CLK->SWCR &= (uint8_t)(~CLK_SWCR_SWIEN);
   \                     ??CLK_ClockSwitchConfig_1:
   \   000079 721550C5              BRES      L:0x50c5, #0x2
    350                  }
    351          
    352                  /* Selection of the target clock source */
    353                  CLK->SWR = (uint8_t)CLK_NewClock;
   \                     ??CLK_ClockSwitchConfig_2:
   \   00007D B600                  LD        A, S:?b11
   \   00007F C750C4                LD        L:0x50c4, A
   \   000082 2005                  JRA       L:??CLK_ClockSwitchConfig_3
    354          
    355                  while ((((CLK->SWCR & CLK_SWCR_SWBSY) != 0 )&& (DownCounter != 0)))
   \                     ??CLK_ClockSwitchConfig_4:
   \   000084 270C                  JREQ      L:??CLK_ClockSwitchConfig_5
    356                  {
    357                      DownCounter--;
   \   000086 5A                    DECW      X
   \   000087 BF00                  LDW       S:?w4, X
    358                  }
   \                     ??CLK_ClockSwitchConfig_3:
   \   000089 BE00                  LDW       X, S:?w4
   \   00008B 720050C5F4            BTJT      L:0x50c5, #0x0, L:??CLK_ClockSwitchConfig_4
    359          
    360                  if (DownCounter != 0)
   \   000090 2617                  JRNE      L:??CLK_ClockSwitchConfig_6
    361                  {
    362                      Swif = SUCCESS;
    363                  }
    364                  else
    365                  {
    366                      Swif = ERROR;
   \                     ??CLK_ClockSwitchConfig_5:
   \   000092 3F00                  CLR       S:?b0
   \   000094 2017                  JRA       L:??CLK_ClockSwitchConfig_7
    367                  }
    368          
    369              }
    370              else /* CLK_SwitchMode == CLK_SWITCHMODE_MANUAL */
    371              {
    372          
    373                  /* Enables or Disables Switch interrupt  if required  */
    374                  if (ITState != DISABLE)
   \                     ??CLK_ClockSwitchConfig_0:
   \   000096 3D00                  TNZ       S:?b12
   \   000098 2706                  JREQ      L:??CLK_ClockSwitchConfig_8
    375                  {
    376                      CLK->SWCR |= CLK_SWCR_SWIEN;
   \   00009A 721450C5              BSET      L:0x50c5, #0x2
   \   00009E 2004                  JRA       L:??CLK_ClockSwitchConfig_9
    377                  }
    378                  else
    379                  {
    380                      CLK->SWCR &= (uint8_t)(~CLK_SWCR_SWIEN);
   \                     ??CLK_ClockSwitchConfig_8:
   \   0000A0 721550C5              BRES      L:0x50c5, #0x2
    381                  }
    382          
    383                  /* Selection of the target clock source */
    384                  CLK->SWR = (uint8_t)CLK_NewClock;
   \                     ??CLK_ClockSwitchConfig_9:
   \   0000A4 B600                  LD        A, S:?b11
   \   0000A6 C750C4                LD        L:0x50c4, A
    385          
    386                  /* In manual mode, there is no risk to be stuck in a loop, value returned
    387                    is then always SUCCESS */
    388                  Swif = SUCCESS;
   \                     ??CLK_ClockSwitchConfig_6:
   \   0000A9 35010000              MOV       S:?b0, #0x1
    389          
    390              }
    391          
    392              /* Switch OFF current clock if required */
    393              if ((CLK_CurrentClockState == CLK_CURRENTCLOCKSTATE_DISABLE) && ( clock_master == CLK_SOURCE_HSI))
   \                     ??CLK_ClockSwitchConfig_7:
   \   0000AD 3D00                  TNZ       S:?b13
   \   0000AF 261E                  JRNE      L:??CLK_ClockSwitchConfig_10
   \   0000B1 B600                  LD        A, S:?b1
   \   0000B3 A1E1                  CP        A, #0xe1
   \   0000B5 2606                  JRNE      L:??CLK_ClockSwitchConfig_11
    394              {
    395                  CLK->ICKR &= (uint8_t)(~CLK_ICKR_HSIEN);
   \   0000B7 721150C0              BRES      L:0x50c0, #0x0
   \   0000BB 2012                  JRA       L:??CLK_ClockSwitchConfig_10
    396              }
   \                     ??CLK_ClockSwitchConfig_11:
   \   0000BD A1D2                  CP        A, #0xd2
   \   0000BF 2606                  JRNE      L:??CLK_ClockSwitchConfig_12
    397              else if ((CLK_CurrentClockState == CLK_CURRENTCLOCKSTATE_DISABLE) && ( clock_master == CLK_SOURCE_LSI))
    398              {
    399                  CLK->ICKR &= (uint8_t)(~CLK_ICKR_LSIEN);
   \   0000C1 721750C0              BRES      L:0x50c0, #0x3
   \   0000C5 2008                  JRA       L:??CLK_ClockSwitchConfig_10
    400              }
   \                     ??CLK_ClockSwitchConfig_12:
   \   0000C7 A1B4                  CP        A, #0xb4
   \   0000C9 2604                  JRNE      L:??CLK_ClockSwitchConfig_10
    401              else if ((CLK_CurrentClockState == CLK_CURRENTCLOCKSTATE_DISABLE) && ( clock_master == CLK_SOURCE_HSE))
    402              {
    403                  CLK->ECKR &= (uint8_t)(~CLK_ECKR_HSEEN);
   \   0000CB 721150C1              BRES      L:0x50c1, #0x0
    404              }
    405          
    406              return(Swif);
   \                     ??CLK_ClockSwitchConfig_10:
   \   0000CF B600                  LD        A, S:?b0
   \   0000D1 AC000000              JPF       L:?epilogue_l2_w6
    407          
    408          }
    409          
    410          /**
    411            * @brief  Configures the HSI clock dividers.
    412            * @param   HSIPrescaler : Specifies the HSI clock divider to apply.
    413            * This parameter can be any of the @ref CLK_Prescaler_TypeDef enumeration.
    414            * @retval None
    415            */

   \                                 In section .far_func.text, align 1
    416          void CLK_HSIPrescalerConfig(CLK_Prescaler_TypeDef HSIPrescaler)
    417          {
   \                     CLK_HSIPrescalerConfig:
   \   000000 3B0000                PUSH      S:?b8
   \   000003 B700                  LD        S:?b8, A
    418          
    419              /* check the parameters */
    420              assert_param(IS_CLK_HSIPRESCALER_OK(HSIPrescaler));
   \   000005 2713                  JREQ      L:??CrossCallReturnLabel_13
   \   000007 A108                  CP        A, #0x8
   \   000009 270F                  JREQ      L:??CrossCallReturnLabel_13
   \   00000B A110                  CP        A, #0x10
   \   00000D 270B                  JREQ      L:??CrossCallReturnLabel_13
   \   00000F A118                  CP        A, #0x18
   \   000011 2707                  JREQ      L:??CrossCallReturnLabel_13
   \   000013 AE01A4                LDW       X, #0x1a4
   \   000016 8D000000              CALLF     ?Subroutine0
    421          
    422              /* Clear High speed internal clock prescaler */
    423              CLK->CKDIVR &= (uint8_t)(~CLK_CKDIVR_HSIDIV);
   \                     ??CrossCallReturnLabel_13:
   \   00001A 8D000000              CALLF     ?Subroutine1
    424          
    425              /* Set High speed internal clock prescaler */
    426              CLK->CKDIVR |= (uint8_t)HSIPrescaler;
   \                     ??CrossCallReturnLabel_24:
   \   00001E CA50C6                OR        A, L:0x50c6
   \   000021 C750C6                LD        L:0x50c6, A
    427          
    428          }
   \   000024 320000                POP       S:?b8
   \   000027 87                    RETF

   \                                 In section .far_func.text, align 1
   \                     ?Subroutine1:
   \   000000 C650C6                LD        A, L:0x50c6
   \   000003 A4E7                  AND       A, #0xe7
   \   000005 C750C6                LD        L:0x50c6, A
   \   000008 B600                  LD        A, S:?b8
   \   00000A 87                    RETF
    429          
    430          /**
    431            * @brief  Output the selected clock on a dedicated I/O pin.
    432            * @param   CLK_CCO : Specifies the clock source.
    433            * This parameter can be any of the  @ref CLK_Output_TypeDef enumeration.
    434            * @retval None
    435            * @par Required preconditions:
    436            * The dedicated I/O pin must be set at 1 in the corresponding Px_CR1 register \n
    437            * to be set as input with pull-up or push-pull output.
    438            */

   \                                 In section .far_func.text, align 1
    439          void CLK_CCOConfig(CLK_Output_TypeDef CLK_CCO)
    440          {
   \                     CLK_CCOConfig:
   \   000000 3B0000                PUSH      S:?b8
   \   000003 B700                  LD        S:?b8, A
    441          
    442              /* check the parameters */
    443              assert_param(IS_CLK_OUTPUT_OK(CLK_CCO));
   \   000005 2737                  JREQ      L:??CrossCallReturnLabel_14
   \   000007 A104                  CP        A, #0x4
   \   000009 2733                  JREQ      L:??CrossCallReturnLabel_14
   \   00000B A102                  CP        A, #0x2
   \   00000D 272F                  JREQ      L:??CrossCallReturnLabel_14
   \   00000F A108                  CP        A, #0x8
   \   000011 272B                  JREQ      L:??CrossCallReturnLabel_14
   \   000013 A10A                  CP        A, #0xa
   \   000015 2727                  JREQ      L:??CrossCallReturnLabel_14
   \   000017 A10C                  CP        A, #0xc
   \   000019 2723                  JREQ      L:??CrossCallReturnLabel_14
   \   00001B A10E                  CP        A, #0xe
   \   00001D 271F                  JREQ      L:??CrossCallReturnLabel_14
   \   00001F A110                  CP        A, #0x10
   \   000021 271B                  JREQ      L:??CrossCallReturnLabel_14
   \   000023 A112                  CP        A, #0x12
   \   000025 2717                  JREQ      L:??CrossCallReturnLabel_14
   \   000027 A114                  CP        A, #0x14
   \   000029 2713                  JREQ      L:??CrossCallReturnLabel_14
   \   00002B A116                  CP        A, #0x16
   \   00002D 270F                  JREQ      L:??CrossCallReturnLabel_14
   \   00002F A118                  CP        A, #0x18
   \   000031 270B                  JREQ      L:??CrossCallReturnLabel_14
   \   000033 A11A                  CP        A, #0x1a
   \   000035 2707                  JREQ      L:??CrossCallReturnLabel_14
   \   000037 AE01BB                LDW       X, #0x1bb
   \   00003A 8D000000              CALLF     ?Subroutine0
    444          
    445              /* Clears of the CCO type bits part */
    446              CLK->CCOR &= (uint8_t)(~CLK_CCOR_CCOSEL);
   \                     ??CrossCallReturnLabel_14:
   \   00003E C650C9                LD        A, L:0x50c9
   \   000041 A4E1                  AND       A, #0xe1
   \   000043 C750C9                LD        L:0x50c9, A
    447          
    448              /* Selects the source provided on cco_ck output */
    449              CLK->CCOR |= (uint8_t)CLK_CCO;
   \   000046 B600                  LD        A, S:?b8
   \   000048 CA50C9                OR        A, L:0x50c9
   \   00004B C750C9                LD        L:0x50c9, A
    450          
    451              /* Enable the clock output */
    452              CLK->CCOR |= CLK_CCOR_CCOEN;
   \   00004E 721050C9              BSET      L:0x50c9, #0x0
    453          
    454          }
   \   000052 320000                POP       S:?b8
   \   000055 87                    RETF
    455          
    456          /**
    457            * @brief   Enables or disables the specified CLK interrupts.
    458            * @param   CLK_IT This parameter specifies the interrupt sources.
    459            * It can be one of the values of @ref CLK_IT_TypeDef.
    460            * @param   NewState New state of the Interrupt.
    461            * Value accepted ENABLE, DISABLE.
    462            * @retval None
    463            */

   \                                 In section .far_func.text, align 1
    464          void CLK_ITConfig(CLK_IT_TypeDef CLK_IT, FunctionalState NewState)
    465          {
   \                     CLK_ITConfig:
   \   000000 8D000000              CALLF     L:?push_w4
   \   000004 B700                  LD        S:?b8, A
   \   000006 450000                MOV       S:?b9, S:?b0
    466          
    467              /* check the parameters */
    468              assert_param(IS_FUNCTIONALSTATE_OK(NewState));
   \   000009 3D00                  TNZ       S:?b9
   \   00000B 270D                  JREQ      L:??CrossCallReturnLabel_16
   \   00000D B600                  LD        A, S:?b9
   \   00000F A101                  CP        A, #0x1
   \   000011 2707                  JREQ      L:??CrossCallReturnLabel_16
   \   000013 AE01D4                LDW       X, #0x1d4
   \   000016 8D000000              CALLF     ?Subroutine0
    469              assert_param(IS_CLK_IT_OK(CLK_IT));
   \                     ??CrossCallReturnLabel_16:
   \   00001A B600                  LD        A, S:?b8
   \   00001C A10C                  CP        A, #0xc
   \   00001E 270B                  JREQ      L:??CrossCallReturnLabel_15
   \   000020 A11C                  CP        A, #0x1c
   \   000022 2707                  JREQ      L:??CrossCallReturnLabel_15
   \   000024 AE01D5                LDW       X, #0x1d5
   \   000027 8D000000              CALLF     ?Subroutine0
    470          
    471              if (NewState != DISABLE)
   \                     ??CrossCallReturnLabel_15:
   \   00002B 3D00                  TNZ       S:?b9
   \   00002D 271A                  JREQ      L:??CLK_ITConfig_0
    472              {
    473                  switch (CLK_IT)
   \   00002F B600                  LD        A, S:?b8
   \   000031 A00C                  SUB       A, #0xc
   \   000033 270C                  JREQ      L:??CLK_ITConfig_1
   \   000035 A010                  SUB       A, #0x10
   \   000037 2626                  JRNE      L:??CLK_ITConfig_2
    474                  {
    475                  case CLK_IT_SWIF: /* Enable the clock switch interrupt */
    476                      CLK->SWCR |= CLK_SWCR_SWIEN;
   \   000039 721450C5              BSET      L:0x50c5, #0x2
    477                      break;
   \   00003D AC000000              JPF       L:?epilogue_w4
    478                  case CLK_IT_CSSD: /* Enable the clock security system detection interrupt */
    479                      CLK->CSSR |= CLK_CSSR_CSSDIE;
   \                     ??CLK_ITConfig_1:
   \   000041 721450C8              BSET      L:0x50c8, #0x2
    480                      break;
   \   000045 AC000000              JPF       L:?epilogue_w4
    481                  default:
    482                      break;
    483                  }
    484              }
    485              else  /*(NewState == DISABLE)*/
    486              {
    487                  switch (CLK_IT)
   \                     ??CLK_ITConfig_0:
   \   000049 B600                  LD        A, S:?b8
   \   00004B A00C                  SUB       A, #0xc
   \   00004D 270C                  JREQ      L:??CLK_ITConfig_3
   \   00004F A010                  SUB       A, #0x10
   \   000051 260C                  JRNE      L:??CLK_ITConfig_2
    488                  {
    489                  case CLK_IT_SWIF: /* Disable the clock switch interrupt */
    490                      CLK->SWCR  &= (uint8_t)(~CLK_SWCR_SWIEN);
   \   000053 721550C5              BRES      L:0x50c5, #0x2
    491                      break;
   \   000057 AC000000              JPF       L:?epilogue_w4
    492                  case CLK_IT_CSSD: /* Disable the clock security system detection interrupt */
    493                      CLK->CSSR &= (uint8_t)(~CLK_CSSR_CSSDIE);
   \                     ??CLK_ITConfig_3:
   \   00005B 721550C8              BRES      L:0x50c8, #0x2
    494                      break;
    495                  default:
    496                      break;
    497                  }
    498              }
    499          
    500          }
   \                     ??CLK_ITConfig_2:
   \   00005F AC000000              JPF       L:?epilogue_w4
    501          
    502          /**
    503            * @brief  Configures the HSI and CPU clock dividers.
    504            * @param   ClockPrescaler Specifies the HSI or CPU clock divider to apply.
    505            * @retval None
    506            */

   \                                 In section .far_func.text, align 1
    507          void CLK_SYSCLKConfig(CLK_Prescaler_TypeDef CLK_Prescaler)
    508          {
   \                     CLK_SYSCLKConfig:
   \   000000 3B0000                PUSH      S:?b8
   \   000003 B700                  LD        S:?b8, A
    509          
    510              /* check the parameters */
    511              assert_param(IS_CLK_PRESCALER_OK(CLK_Prescaler));
   \   000005 2733                  JREQ      L:??CrossCallReturnLabel_17
   \   000007 A108                  CP        A, #0x8
   \   000009 272F                  JREQ      L:??CrossCallReturnLabel_17
   \   00000B A110                  CP        A, #0x10
   \   00000D 272B                  JREQ      L:??CrossCallReturnLabel_17
   \   00000F A118                  CP        A, #0x18
   \   000011 2727                  JREQ      L:??CrossCallReturnLabel_17
   \   000013 A180                  CP        A, #0x80
   \   000015 2723                  JREQ      L:??CrossCallReturnLabel_17
   \   000017 A181                  CP        A, #0x81
   \   000019 271F                  JREQ      L:??CrossCallReturnLabel_17
   \   00001B A182                  CP        A, #0x82
   \   00001D 271B                  JREQ      L:??CrossCallReturnLabel_17
   \   00001F A183                  CP        A, #0x83
   \   000021 2717                  JREQ      L:??CrossCallReturnLabel_17
   \   000023 A184                  CP        A, #0x84
   \   000025 2713                  JREQ      L:??CrossCallReturnLabel_17
   \   000027 A185                  CP        A, #0x85
   \   000029 270F                  JREQ      L:??CrossCallReturnLabel_17
   \   00002B A186                  CP        A, #0x86
   \   00002D 270B                  JREQ      L:??CrossCallReturnLabel_17
   \   00002F A187                  CP        A, #0x87
   \   000031 2707                  JREQ      L:??CrossCallReturnLabel_17
   \   000033 AE01FF                LDW       X, #0x1ff
   \   000036 8D000000              CALLF     ?Subroutine0
    512          
    513              if (((uint8_t)CLK_Prescaler & (uint8_t)0x80) == 0x00) /* Bit7 = 0 means HSI divider */
   \                     ??CrossCallReturnLabel_17:
   \   00003A B600                  LD        A, S:?b8
   \   00003C A580                  BCP       A, #0x80
   \   00003E 2608                  JRNE      L:??CLK_SYSCLKConfig_0
    514              {
    515                  CLK->CKDIVR &= (uint8_t)(~CLK_CKDIVR_HSIDIV);
   \   000040 8D000000              CALLF     ?Subroutine1
    516                  CLK->CKDIVR |= (uint8_t)((uint8_t)CLK_Prescaler & (uint8_t)CLK_CKDIVR_HSIDIV);
    517              }
   \                     ??CrossCallReturnLabel_23:
   \   000044 A418                  AND       A, #0x18
   \   000046 200C                  JRA       ??CLK_SYSCLKConfig_1
    518              else /* Bit7 = 1 means CPU divider */
    519              {
    520                  CLK->CKDIVR &= (uint8_t)(~CLK_CKDIVR_CPUDIV);
   \                     ??CLK_SYSCLKConfig_0:
   \   000048 C650C6                LD        A, L:0x50c6
   \   00004B A4F8                  AND       A, #0xf8
   \   00004D C750C6                LD        L:0x50c6, A
    521                  CLK->CKDIVR |= (uint8_t)((uint8_t)CLK_Prescaler & (uint8_t)CLK_CKDIVR_CPUDIV);
   \   000050 B600                  LD        A, S:?b8
   \   000052 A407                  AND       A, #0x7
   \                     ??CLK_SYSCLKConfig_1:
   \   000054 CA50C6                OR        A, L:0x50c6
   \   000057 C750C6                LD        L:0x50c6, A
    522              }
    523          
    524          }
   \   00005A 320000                POP       S:?b8
   \   00005D 87                    RETF
    525          /**
    526            * @brief  Configures the SWIM clock frequency on the fly.
    527            * @param   CLK_SWIMDivider Specifies the SWIM clock divider to apply.
    528            * can be one of the value of @ref CLK_SWIMDivider_TypeDef
    529            * @retval None
    530            */

   \                                 In section .far_func.text, align 1
    531          void CLK_SWIMConfig(CLK_SWIMDivider_TypeDef CLK_SWIMDivider)
    532          {
    533          
    534              /* check the parameters */
    535              assert_param(IS_CLK_SWIMDIVIDER_OK(CLK_SWIMDivider));
   \                     CLK_SWIMConfig:
   \   000000 4D                    TNZ       A
   \   000001 2710                  JREQ      L:??CLK_SWIMConfig_0
   \   000003 A101                  CP        A, #0x1
   \   000005 2707                  JREQ      L:??CrossCallReturnLabel_18
   \   000007 AE0217                LDW       X, #0x217
   \   00000A 8D000000              CALLF     ?Subroutine0
    536          
    537              if (CLK_SWIMDivider != CLK_SWIMDIVIDER_2)
    538              {
    539                  /* SWIM clock is not divided by 2 */
    540                  CLK->SWIMCCR |= CLK_SWIMCCR_SWIMDIV;
   \                     ??CrossCallReturnLabel_18:
   \   00000E 721050CD              BSET      L:0x50cd, #0x0
   \   000012 87                    RETF
    541              }
    542              else /* CLK_SWIMDivider == CLK_SWIMDIVIDER_2 */
    543              {
    544                  /* SWIM clock is divided by 2 */
    545                  CLK->SWIMCCR &= (uint8_t)(~CLK_SWIMCCR_SWIMDIV);
   \                     ??CLK_SWIMConfig_0:
   \   000013 721150CD              BRES      L:0x50cd, #0x0
    546              }
    547          
    548          }
   \   000017 87                    RETF
    549          
    550          /**
    551            * @brief  Enables the Clock Security System.
    552            * @par Full description:
    553            * once CSS is enabled it cannot be disabled until the next reset.
    554            * @param  None
    555            * @retval None
    556            */

   \                                 In section .far_func.text, align 1
    557          void CLK_ClockSecuritySystemEnable(void)
    558          {
    559              /* Set CSSEN bit */
    560              CLK->CSSR |= CLK_CSSR_CSSEN;
   \                     CLK_ClockSecuritySystemEnable:
   \   000000 721050C8              BSET      L:0x50c8, #0x0
    561          }
   \   000004 87                    RETF
    562          
    563          /**
    564            * @brief  Returns the clock source used as system clock.
    565            * @param  None
    566            * @retval  Clock source used.
    567            * can be one of the values of @ref CLK_Source_TypeDef
    568            */

   \                                 In section .far_func.text, align 1
    569          CLK_Source_TypeDef CLK_GetSYSCLKSource(void)
    570          {
    571              return((CLK_Source_TypeDef)CLK->CMSR);
   \                     CLK_GetSYSCLKSource:
   \   000000 C650C3                LD        A, L:0x50c3
   \   000003 87                    RETF
    572          }
    573          
    574          /**
    575            * @brief  This function returns the frequencies of different on chip clocks.
    576            * @param  None
    577            * @retval the master clock frequency
    578            */

   \                                 In section .far_func.text, align 1
    579          uint32_t CLK_GetClockFreq(void)
    580          {
    581          
    582              uint32_t clockfrequency = 0;
    583              CLK_Source_TypeDef clocksource = CLK_SOURCE_HSI;
    584              uint8_t tmp = 0, presc = 0;
    585          
    586              /* Get CLK source. */
    587              clocksource = (CLK_Source_TypeDef)CLK->CMSR;
   \                     CLK_GetClockFreq:
   \   000000 C650C3                LD        A, L:0x50c3
    588          
    589              if (clocksource == CLK_SOURCE_HSI)
   \   000003 A1E1                  CP        A, #0xe1
   \   000005 261C                  JRNE      L:??CLK_GetClockFreq_0
    590              {
    591                  tmp = (uint8_t)(CLK->CKDIVR & CLK_CKDIVR_HSIDIV);
   \   000007 C650C6                LD        A, L:0x50c6
    592                  tmp = (uint8_t)(tmp >> 3);
    593                  presc = HSIDivFactor[tmp];
    594                  clockfrequency = HSI_VALUE / presc;
   \   00000A 44                    SRL       A
   \   00000B 44                    SRL       A
   \   00000C 44                    SRL       A
   \   00000D A403                  AND       A, #0x3
   \   00000F 5F                    CLRW      X
   \   000010 97                    LD        XL, A
   \   000011 D60000                LD        A, (L:HSIDivFactor,X)
   \   000014 97                    LD        XL, A
   \   000015 BF00                  LDW       S:?w3, X
   \   000017 5F                    CLRW      X
   \   000018 BF00                  LDW       S:?w2, X
   \   00001A 8D000000              CALLF     L:?udiv32_l0_dl_l1
   \   00001E 00F42400              DC32      0xf42400
   \   000022 87                    RETF
    595              }
    596              else if ( clocksource == CLK_SOURCE_LSI)
   \                     ??CLK_GetClockFreq_0:
   \   000023 A1D2                  CP        A, #0xd2
   \   000025 260A                  JRNE      L:??CLK_GetClockFreq_1
    597              {
    598                  clockfrequency = LSI_VALUE;
   \   000027 AEF400                LDW       X, #0xf400
   \   00002A BF00                  LDW       S:?w1, X
   \   00002C 5F                    CLRW      X
   \   00002D 5C                    INCW      X
   \   00002E BF00                  LDW       S:?w0, X
   \   000030 87                    RETF
    599              }
    600              else
    601              {
    602                  clockfrequency = HSE_VALUE;
   \                     ??CLK_GetClockFreq_1:
   \   000031 AE2400                LDW       X, #0x2400
   \   000034 BF00                  LDW       S:?w1, X
   \   000036 AE00F4                LDW       X, #0xf4
   \   000039 BF00                  LDW       S:?w0, X
    603              }
    604          
    605              return((uint32_t)clockfrequency);
   \   00003B 87                    RETF
    606          
    607          }
    608          
    609          /**
    610            * @brief  Adjusts the Internal High Speed oscillator (HSI) calibration value.
    611            * @par Full description:
    612            * @param   CLK_HSICalibrationValue calibration trimming value.
    613            * can be one of the values of @ref CLK_HSITrimValue_TypeDef
    614            * @retval None
    615            */

   \                                 In section .far_func.text, align 1
    616          void CLK_AdjustHSICalibrationValue(CLK_HSITrimValue_TypeDef CLK_HSICalibrationValue)
    617          {
   \                     CLK_AdjustHSICalibrationValue:
   \   000000 3B0000                PUSH      S:?b8
   \   000003 B700                  LD        S:?b8, A
    618          
    619              /* check the parameters */
    620              assert_param(IS_CLK_HSITRIMVALUE_OK(CLK_HSICalibrationValue));
   \   000005 2723                  JREQ      L:??CrossCallReturnLabel_19
   \   000007 A101                  CP        A, #0x1
   \   000009 271F                  JREQ      L:??CrossCallReturnLabel_19
   \   00000B A102                  CP        A, #0x2
   \   00000D 271B                  JREQ      L:??CrossCallReturnLabel_19
   \   00000F A103                  CP        A, #0x3
   \   000011 2717                  JREQ      L:??CrossCallReturnLabel_19
   \   000013 A104                  CP        A, #0x4
   \   000015 2713                  JREQ      L:??CrossCallReturnLabel_19
   \   000017 A105                  CP        A, #0x5
   \   000019 270F                  JREQ      L:??CrossCallReturnLabel_19
   \   00001B A106                  CP        A, #0x6
   \   00001D 270B                  JREQ      L:??CrossCallReturnLabel_19
   \   00001F A107                  CP        A, #0x7
   \   000021 2707                  JREQ      L:??CrossCallReturnLabel_19
   \   000023 AE026C                LDW       X, #0x26c
   \   000026 8D000000              CALLF     ?Subroutine0
    621          
    622              /* Store the new value */
    623              CLK->HSITRIMR = (uint8_t)( (uint8_t)(CLK->HSITRIMR & (uint8_t)(~CLK_HSITRIMR_HSITRIM))|((uint8_t)CLK_HSICalibrationValue));
   \                     ??CrossCallReturnLabel_19:
   \   00002A C650CC                LD        A, L:0x50cc
   \   00002D A4F8                  AND       A, #0xf8
   \   00002F BA00                  OR        A, S:?b8
   \   000031 C750CC                LD        L:0x50cc, A
    624          
    625          }
   \   000034 320000                POP       S:?b8
   \   000037 87                    RETF
    626          
    627          /**
    628            * @brief  Reset the SWBSY flag (SWICR Reister)
    629            * @par Full description:
    630            * This function reset SWBSY flag in order to reset clock switch operations (target
    631            * oscillator is broken, stabilization is longing too much, etc.).  If at the same time \n
    632            * software attempts to set SWEN and clear SWBSY, SWBSY action takes precedence.
    633            * @param  None
    634            * @retval None
    635            */

   \                                 In section .far_func.text, align 1
    636          void CLK_SYSCLKEmergencyClear(void)
    637          {
    638              CLK->SWCR &= (uint8_t)(~CLK_SWCR_SWBSY);
   \                     CLK_SYSCLKEmergencyClear:
   \   000000 721150C5              BRES      L:0x50c5, #0x0
    639          }
   \   000004 87                    RETF
    640          
    641          /**
    642            * @brief  Checks whether the specified CLK flag is set or not.
    643            * @par Full description:
    644            * @param   CLK_FLAG Flag to check.
    645            * can be one of the values of @ref CLK_Flag_TypeDef
    646            * @retval FlagStatus, status of the checked flag
    647            */

   \                                 In section .far_func.text, align 1
    648          FlagStatus CLK_GetFlagStatus(CLK_Flag_TypeDef CLK_FLAG)
    649          {
   \                     CLK_GetFlagStatus:
   \   000000 8D000000              CALLF     L:?push_w4
   \   000004 BF00                  LDW       S:?w4, X
    650          
    651              uint16_t statusreg = 0;
    652              uint8_t tmpreg = 0;
    653              FlagStatus bitstatus = RESET;
    654          
    655              /* check the parameters */
    656              assert_param(IS_CLK_FLAG_OK(CLK_FLAG));
   \   000006 A30110                CPW       X, #0x110
   \   000009 272F                  JREQ      L:??CrossCallReturnLabel_20
   \   00000B A30102                CPW       X, #0x102
   \   00000E 272A                  JREQ      L:??CrossCallReturnLabel_20
   \   000010 A30202                CPW       X, #0x202
   \   000013 2725                  JREQ      L:??CrossCallReturnLabel_20
   \   000015 A30308                CPW       X, #0x308
   \   000018 2720                  JREQ      L:??CrossCallReturnLabel_20
   \   00001A A30301                CPW       X, #0x301
   \   00001D 271B                  JREQ      L:??CrossCallReturnLabel_20
   \   00001F A30408                CPW       X, #0x408
   \   000022 2716                  JREQ      L:??CrossCallReturnLabel_20
   \   000024 A30402                CPW       X, #0x402
   \   000027 2711                  JREQ      L:??CrossCallReturnLabel_20
   \   000029 A30504                CPW       X, #0x504
   \   00002C 270C                  JREQ      L:??CrossCallReturnLabel_20
   \   00002E A30502                CPW       X, #0x502
   \   000031 2707                  JREQ      L:??CrossCallReturnLabel_20
   \   000033 AE0290                LDW       X, #0x290
   \   000036 8D000000              CALLF     ?Subroutine0
    657          
    658              /* Get the CLK register index */
    659              statusreg = (uint16_t)((uint16_t)CLK_FLAG & (uint16_t)0xFF00);
   \                     ??CrossCallReturnLabel_20:
   \   00003A BE00                  LDW       X, S:?w4
   \   00003C 01                    RRWA      X, A
   \   00003D 4F                    CLR       A
   \   00003E 02                    RLWA      X, A
    660          
    661          
    662              if (statusreg == 0x0100) /* The flag to check is in ICKRregister */
   \   00003F A30100                CPW       X, #0x100
   \   000042 2605                  JRNE      L:??CLK_GetFlagStatus_0
    663              {
    664                  tmpreg = CLK->ICKR;
   \   000044 C650C0                LD        A, L:0x50c0
   \   000047 2021                  JRA       ??CLK_GetFlagStatus_1
    665              }
    666              else if (statusreg == 0x0200) /* The flag to check is in ECKRregister */
   \                     ??CLK_GetFlagStatus_0:
   \   000049 A30200                CPW       X, #0x200
   \   00004C 2605                  JRNE      L:??CLK_GetFlagStatus_2
    667              {
    668                  tmpreg = CLK->ECKR;
   \   00004E C650C1                LD        A, L:0x50c1
   \   000051 2017                  JRA       ??CLK_GetFlagStatus_1
    669              }
    670              else if (statusreg == 0x0300) /* The flag to check is in SWIC register */
   \                     ??CLK_GetFlagStatus_2:
   \   000053 A30300                CPW       X, #0x300
   \   000056 2605                  JRNE      L:??CLK_GetFlagStatus_3
    671              {
    672                  tmpreg = CLK->SWCR;
   \   000058 C650C5                LD        A, L:0x50c5
   \   00005B 200D                  JRA       ??CLK_GetFlagStatus_1
    673              }
    674              else if (statusreg == 0x0400) /* The flag to check is in CSS register */
   \                     ??CLK_GetFlagStatus_3:
   \   00005D A30400                CPW       X, #0x400
   \   000060 2605                  JRNE      L:??CLK_GetFlagStatus_4
    675              {
    676                  tmpreg = CLK->CSSR;
   \   000062 C650C8                LD        A, L:0x50c8
   \   000065 2003                  JRA       ??CLK_GetFlagStatus_1
    677              }
    678              else /* The flag to check is in CCO register */
    679              {
    680                  tmpreg = CLK->CCOR;
   \                     ??CLK_GetFlagStatus_4:
   \   000067 C650C9                LD        A, L:0x50c9
   \                     ??CLK_GetFlagStatus_1:
   \   00006A B700                  LD        S:?b0, A
    681              }
    682          
    683              if ((tmpreg & (uint8_t)CLK_FLAG) != (uint8_t)RESET)
   \   00006C B600                  LD        A, S:?b9
   \   00006E B500                  BCP       A, S:?b0
   \   000070 2706                  JREQ      L:??CLK_GetFlagStatus_5
    684              {
    685                  bitstatus = SET;
   \   000072 A601                  LD        A, #0x1
   \   000074 AC000000              JPF       L:?epilogue_w4
    686              }
    687              else
    688              {
    689                  bitstatus = RESET;
   \                     ??CLK_GetFlagStatus_5:
   \   000078 4F                    CLR       A
    690              }
    691          
    692              /* Return the flag status */
    693              return((FlagStatus)bitstatus);
   \   000079 AC000000              JPF       L:?epilogue_w4
    694          
    695          }
    696          
    697          /**
    698            * @brief  Checks whether the specified CLK interrupt has is enabled or not.
    699            * @param   CLK_IT specifies the CLK interrupt.
    700            * can be one of the values of @ref CLK_IT_TypeDef
    701            * @retval ITStatus, new state of CLK_IT (SET or RESET).
    702            */

   \                                 In section .far_func.text, align 1
    703          ITStatus CLK_GetITStatus(CLK_IT_TypeDef CLK_IT)
    704          {
   \                     CLK_GetITStatus:
   \   000000 3B0000                PUSH      S:?b8
   \   000003 B700                  LD        S:?b8, A
    705          
    706              ITStatus bitstatus = RESET;
    707          
    708              /* check the parameters */
    709              assert_param(IS_CLK_IT_OK(CLK_IT));
   \   000005 A10C                  CP        A, #0xc
   \   000007 270B                  JREQ      L:??CrossCallReturnLabel_21
   \   000009 A11C                  CP        A, #0x1c
   \   00000B 2715                  JREQ      L:??CLK_GetITStatus_0
   \   00000D AE02C5                LDW       X, #0x2c5
   \   000010 8D000000              CALLF     ?Subroutine0
    710          
    711              if (CLK_IT == CLK_IT_SWIF)
    712              {
    713                  /* Check the status of the clock switch interrupt */
    714                  if ((CLK->SWCR & (uint8_t)CLK_IT) == (uint8_t)0x0C)
    715                  {
    716                      bitstatus = SET;
    717                  }
    718                  else
    719                  {
    720                      bitstatus = RESET;
    721                  }
    722              }
    723              else /* CLK_IT == CLK_IT_CSSDIE */
    724              {
    725                  /* Check the status of the security system detection interrupt */
    726                  if ((CLK->CSSR & (uint8_t)CLK_IT) == (uint8_t)0x0C)
   \                     ??CrossCallReturnLabel_21:
   \   000014 B600                  LD        A, S:?b8
   \   000016 C450C8                AND       A, L:0x50c8
   \   000019 A10C                  CP        A, #0xc
   \   00001B 270E                  JREQ      L:??CLK_GetITStatus_1
    727                  {
    728                      bitstatus = SET;
    729                  }
    730                  else
    731                  {
    732                      bitstatus = RESET;
    733                  }
    734              }
   \                     ??CLK_GetITStatus_2:
   \   00001D 4F                    CLR       A
    735          
    736              /* Return the CLK_IT status */
    737              return bitstatus;
   \                     ??CLK_GetITStatus_3:
   \   00001E 320000                POP       S:?b8
   \   000021 87                    RETF
   \                     ??CLK_GetITStatus_0:
   \   000022 C650C5                LD        A, L:0x50c5
   \   000025 A41C                  AND       A, #0x1c
   \   000027 A10C                  CP        A, #0xc
   \   000029 26F2                  JRNE      L:??CLK_GetITStatus_2
   \                     ??CLK_GetITStatus_1:
   \   00002B A601                  LD        A, #0x1
   \   00002D 20EF                  JRA       L:??CLK_GetITStatus_3
    738          
    739          }
    740          
    741          /**
    742            * @brief  Clears the CLKs interrupt pending bits.
    743            * @param   CLK_IT specifies the interrupt pending bits.
    744            * can be one of the values of @ref CLK_IT_TypeDef
    745            * @retval None
    746            */

   \                                 In section .far_func.text, align 1
    747          void CLK_ClearITPendingBit(CLK_IT_TypeDef CLK_IT)
    748          {
    749          
    750              /* check the parameters */
    751              assert_param(IS_CLK_IT_OK(CLK_IT));
   \                     CLK_ClearITPendingBit:
   \   000000 A10C                  CP        A, #0xc
   \   000002 2710                  JREQ      L:??CLK_ClearITPendingBit_0
   \   000004 A11C                  CP        A, #0x1c
   \   000006 2707                  JREQ      L:??CrossCallReturnLabel_22
   \   000008 AE02EF                LDW       X, #0x2ef
   \   00000B 8D000000              CALLF     ?Subroutine0
    752          
    753              if (CLK_IT == (uint8_t)CLK_IT_CSSD)
    754              {
    755                  /* Clear the status of the security system detection interrupt */
    756                  CLK->CSSR &= (uint8_t)(~CLK_CSSR_CSSD);
    757              }
    758              else /* CLK_PendingBit == (uint8_t)CLK_IT_SWIF */
    759              {
    760                  /* Clear the status of the clock switch interrupt */
    761                  CLK->SWCR &= (uint8_t)(~CLK_SWCR_SWIF);
   \                     ??CrossCallReturnLabel_22:
   \   00000F 721750C5              BRES      L:0x50c5, #0x3
    762              }
    763          
    764          }
   \   000013 87                    RETF
   \                     ??CLK_ClearITPendingBit_0:
   \   000014 721750C8              BRES      L:0x50c8, #0x3
   \   000018 87                    RETF

   \                                 In section .near.rodata, align 1
   \                     `?<Constant "C:\\\\Documents and Sett...">`:
   \   000000 433A5C446F63          DC8 43H, 3AH, 5CH, 44H, 6FH, 63H, 75H, 6DH
   \   000008 656E74732061          DC8 65H, 6EH, 74H, 73H, 20H, 61H, 6EH, 64H
   \   000010 205365747469          DC8 20H, 53H, 65H, 74H, 74H, 69H, 6EH, 67H
   \   000018 735C41646D69          DC8 73H, 5CH, 41H, 64H, 6DH, 69H, 6EH, 69H
   \   000020 73747261746F          DC8 73H, 74H, 72H, 61H, 74H, 6FH, 72H, 5CH
   \   000028 4465736B746F          DC8 44H, 65H, 73H, 6BH, 74H, 6FH, 70H, 5CH
   \   000030 566F6C743253          DC8 56H, 6FH, 6CH, 74H, 32H, 53H, 65H, 72H
   \   000038 69616C5C4C69          DC8 69H, 61H, 6CH, 5CH, 4CH, 69H, 62H, 72H
   \   000040 61726965735C          DC8 61H, 72H, 69H, 65H, 73H, 5CH, 53H, 54H
   \   000048 4D38535F5374          DC8 4DH, 38H, 53H, 5FH, 53H, 74H, 64H, 50H
   \   000050 65726970685F          DC8 65H, 72H, 69H, 70H, 68H, 5FH, 44H, 72H
   \   000058 697665725C73          DC8 69H, 76H, 65H, 72H, 5CH, 73H, 72H, 63H
   \   000060 5C73746D3873          DC8 5CH, 73H, 74H, 6DH, 38H, 73H, 5FH, 63H
   \   000068 6C6B2E6300            DC8 6CH, 6BH, 2EH, 63H, 0
    765          /**
    766            * @}
    767            */
    768            
    769          /**
    770            * @}
    771            */
    772            
    773          /******************* (C) COPYRIGHT 2011 STMicroelectronics *****END OF FILE****/

   Section sizes:

     Function/Label                          Bytes
     --------------                          -----
     HSIDivFactor                               4
     CLKPrescTable                              8
     CLK_DeInit                                54
     ?Subroutine0                              12
     CLK_FastHaltWakeUpCmd                     24
     CLK_HSECmd                                24
     CLK_HSICmd                                24
     CLK_LSICmd                                24
     CLK_CCOCmd                                24
     CLK_ClockSwitchCmd                        24
     CLK_SlowActiveHaltWakeUpCmd               24
     CLK_PeripheralClockConfig                145
     CLK_ClockSwitchConfig                    213
     CLK_HSIPrescalerConfig                    40
     ?Subroutine1                              11
     CLK_CCOConfig                             86
     CLK_ITConfig                              99
     CLK_SYSCLKConfig                          94
     CLK_SWIMConfig                            24
     CLK_ClockSecuritySystemEnable              5
     CLK_GetSYSCLKSource                        4
     CLK_GetClockFreq                          60
     CLK_AdjustHSICalibrationValue             56
     CLK_SYSCLKEmergencyClear                   5
     CLK_GetFlagStatus                        125
     CLK_GetITStatus                           47
     CLK_ClearITPendingBit                     25
     ?<Constant "C:\\Documents and Sett...">  109

 
 1 273 bytes in section .far_func.text
   121 bytes in section .near.rodata
 
 1 273 bytes of CODE  memory
   121 bytes of CONST memory

Errors: none
Warnings: none
